
VP-08_rev2.elf:     file format elf32-avr

Sections:
Idx Name          Size      VMA       LMA       File off  Algn
  0 .data         00000122  00800200  00009796  0000982a  2**0
                  CONTENTS, ALLOC, LOAD, DATA
  1 .text         00009796  00000000  00000000  00000094  2**1
                  CONTENTS, ALLOC, LOAD, READONLY, CODE
  2 .bss          00000372  00800322  00800322  0000994c  2**0
                  ALLOC
  3 .comment      0000005c  00000000  00000000  0000994c  2**0
                  CONTENTS, READONLY
  4 .note.gnu.avr.deviceinfo 00000040  00000000  00000000  000099a8  2**2
                  CONTENTS, READONLY
  5 .debug_aranges 000004a0  00000000  00000000  000099e8  2**0
                  CONTENTS, READONLY, DEBUGGING
  6 .debug_info   0000a069  00000000  00000000  00009e88  2**0
                  CONTENTS, READONLY, DEBUGGING
  7 .debug_abbrev 00001d45  00000000  00000000  00013ef1  2**0
                  CONTENTS, READONLY, DEBUGGING
  8 .debug_line   00005748  00000000  00000000  00015c36  2**0
                  CONTENTS, READONLY, DEBUGGING
  9 .debug_frame  000012d8  00000000  00000000  0001b380  2**2
                  CONTENTS, READONLY, DEBUGGING
 10 .debug_str    0000d753  00000000  00000000  0001c658  2**0
                  CONTENTS, READONLY, DEBUGGING
 11 .debug_loc    00003dac  00000000  00000000  00029dab  2**0
                  CONTENTS, READONLY, DEBUGGING
 12 .debug_ranges 00000510  00000000  00000000  0002db57  2**0
                  CONTENTS, READONLY, DEBUGGING
 13 .debug_macro  0000452b  00000000  00000000  0002e067  2**0
                  CONTENTS, READONLY, DEBUGGING

Disassembly of section .text:

00000000 <__vectors>:
       0:	f1 c3       	rjmp	.+2018   	; 0x7e4 <__ctors_end>
       2:	00 00       	nop
       4:	10 c4       	rjmp	.+2080   	; 0x826 <__bad_interrupt>
       6:	00 00       	nop
       8:	0e c4       	rjmp	.+2076   	; 0x826 <__bad_interrupt>
       a:	00 00       	nop
       c:	0c c4       	rjmp	.+2072   	; 0x826 <__bad_interrupt>
       e:	00 00       	nop
      10:	0a c4       	rjmp	.+2068   	; 0x826 <__bad_interrupt>
      12:	00 00       	nop
      14:	08 c4       	rjmp	.+2064   	; 0x826 <__bad_interrupt>
      16:	00 00       	nop
      18:	06 c4       	rjmp	.+2060   	; 0x826 <__bad_interrupt>
      1a:	00 00       	nop
      1c:	04 c4       	rjmp	.+2056   	; 0x826 <__bad_interrupt>
      1e:	00 00       	nop
      20:	02 c4       	rjmp	.+2052   	; 0x826 <__bad_interrupt>
      22:	00 00       	nop
      24:	00 c4       	rjmp	.+2048   	; 0x826 <__bad_interrupt>
      26:	00 00       	nop
      28:	fe c3       	rjmp	.+2044   	; 0x826 <__bad_interrupt>
      2a:	00 00       	nop
      2c:	fc c3       	rjmp	.+2040   	; 0x826 <__bad_interrupt>
      2e:	00 00       	nop
      30:	fa c3       	rjmp	.+2036   	; 0x826 <__bad_interrupt>
      32:	00 00       	nop
      34:	f8 c3       	rjmp	.+2032   	; 0x826 <__bad_interrupt>
      36:	00 00       	nop
      38:	f6 c3       	rjmp	.+2028   	; 0x826 <__bad_interrupt>
      3a:	00 00       	nop
      3c:	f4 c3       	rjmp	.+2024   	; 0x826 <__bad_interrupt>
      3e:	00 00       	nop
      40:	f2 c3       	rjmp	.+2020   	; 0x826 <__bad_interrupt>
      42:	00 00       	nop
      44:	f0 c3       	rjmp	.+2016   	; 0x826 <__bad_interrupt>
      46:	00 00       	nop
      48:	ee c3       	rjmp	.+2012   	; 0x826 <__bad_interrupt>
      4a:	00 00       	nop
      4c:	ec c3       	rjmp	.+2008   	; 0x826 <__bad_interrupt>
      4e:	00 00       	nop
      50:	0c 94 03 09 	jmp	0x1206	; 0x1206 <__vector_20>
      54:	e8 c3       	rjmp	.+2000   	; 0x826 <__bad_interrupt>
      56:	00 00       	nop
      58:	e6 c3       	rjmp	.+1996   	; 0x826 <__bad_interrupt>
      5a:	00 00       	nop
      5c:	db c7       	rjmp	.+4022   	; 0x1014 <__vector_23>
      5e:	00 00       	nop
      60:	0c 94 58 1e 	jmp	0x3cb0	; 0x3cb0 <__vector_24>
      64:	0c 94 43 35 	jmp	0x6a86	; 0x6a86 <__vector_25>
      68:	0c 94 2d 3e 	jmp	0x7c5a	; 0x7c5a <__vector_26>
      6c:	dc c3       	rjmp	.+1976   	; 0x826 <__bad_interrupt>
      6e:	00 00       	nop
      70:	da c3       	rjmp	.+1972   	; 0x826 <__bad_interrupt>
      72:	00 00       	nop
      74:	b9 c7       	rjmp	.+3954   	; 0xfe8 <__vector_29>
      76:	00 00       	nop
      78:	d6 c3       	rjmp	.+1964   	; 0x826 <__bad_interrupt>
      7a:	00 00       	nop
      7c:	d4 c3       	rjmp	.+1960   	; 0x826 <__bad_interrupt>
      7e:	00 00       	nop
      80:	d2 c3       	rjmp	.+1956   	; 0x826 <__bad_interrupt>
      82:	00 00       	nop
      84:	d0 c3       	rjmp	.+1952   	; 0x826 <__bad_interrupt>
      86:	00 00       	nop
      88:	ce c3       	rjmp	.+1948   	; 0x826 <__bad_interrupt>
      8a:	00 00       	nop
      8c:	cc c3       	rjmp	.+1944   	; 0x826 <__bad_interrupt>
      8e:	00 00       	nop
      90:	0c 94 77 35 	jmp	0x6aee	; 0x6aee <__vector_36>
      94:	0c 94 5e 3e 	jmp	0x7cbc	; 0x7cbc <__vector_37>
      98:	c6 c3       	rjmp	.+1932   	; 0x826 <__bad_interrupt>
      9a:	00 00       	nop
      9c:	c4 c3       	rjmp	.+1928   	; 0x826 <__bad_interrupt>
      9e:	00 00       	nop
      a0:	c2 c3       	rjmp	.+1924   	; 0x826 <__bad_interrupt>
      a2:	00 00       	nop
      a4:	c0 c3       	rjmp	.+1920   	; 0x826 <__bad_interrupt>
      a6:	00 00       	nop
      a8:	be c3       	rjmp	.+1916   	; 0x826 <__bad_interrupt>
      aa:	00 00       	nop
      ac:	bc c3       	rjmp	.+1912   	; 0x826 <__bad_interrupt>
      ae:	00 00       	nop
      b0:	ba c3       	rjmp	.+1908   	; 0x826 <__bad_interrupt>
      b2:	00 00       	nop
      b4:	b8 c3       	rjmp	.+1904   	; 0x826 <__bad_interrupt>
      b6:	00 00       	nop
      b8:	b6 c3       	rjmp	.+1900   	; 0x826 <__bad_interrupt>
      ba:	00 00       	nop
      bc:	b4 c3       	rjmp	.+1896   	; 0x826 <__bad_interrupt>
      be:	00 00       	nop
      c0:	b2 c3       	rjmp	.+1892   	; 0x826 <__bad_interrupt>
      c2:	00 00       	nop
      c4:	b0 c3       	rjmp	.+1888   	; 0x826 <__bad_interrupt>
      c6:	00 00       	nop
      c8:	ae c3       	rjmp	.+1884   	; 0x826 <__bad_interrupt>
      ca:	00 00       	nop
      cc:	0c 94 ab 35 	jmp	0x6b56	; 0x6b56 <__vector_51>
      d0:	0c 94 8f 3e 	jmp	0x7d1e	; 0x7d1e <__vector_52>
      d4:	a8 c3       	rjmp	.+1872   	; 0x826 <__bad_interrupt>
      d6:	00 00       	nop
      d8:	a6 c3       	rjmp	.+1868   	; 0x826 <__bad_interrupt>
      da:	00 00       	nop
      dc:	0c 94 c0 3e 	jmp	0x7d80	; 0x7d80 <__vector_55>
      e0:	a2 c3       	rjmp	.+1860   	; 0x826 <__bad_interrupt>
      e2:	00 00       	nop
      e4:	fb 16       	cp	r15, r27
      e6:	0c 17       	cp	r16, r28
      e8:	1d 17       	cp	r17, r29
      ea:	2e 17       	cp	r18, r30
      ec:	3f 17       	cp	r19, r31
      ee:	50 17       	cp	r21, r16
      f0:	61 17       	cp	r22, r17
      f2:	72 17       	cp	r23, r18
      f4:	83 17       	cp	r24, r19
      f6:	96 17       	cp	r25, r22
      f8:	a9 17       	cp	r26, r25
      fa:	bc 17       	cp	r27, r28
      fc:	f7 1d       	adc	r31, r7
      fe:	01 1e       	adc	r0, r17
     100:	0b 1e       	adc	r0, r27
     102:	15 1e       	adc	r1, r21
     104:	1f 1e       	adc	r1, r31
     106:	29 1e       	adc	r2, r25
     108:	33 1e       	adc	r3, r19
     10a:	ea 22       	and	r14, r26
     10c:	f7 22       	and	r15, r23
     10e:	04 23       	and	r16, r20
     110:	11 23       	and	r17, r17
     112:	1e 23       	and	r17, r30
     114:	2b 23       	and	r18, r27
     116:	38 23       	and	r19, r24
     118:	45 23       	and	r20, r21
     11a:	0b 2f       	mov	r16, r27
     11c:	12 2f       	mov	r17, r18
     11e:	19 2f       	mov	r17, r25
     120:	20 2f       	mov	r18, r16
     122:	27 2f       	mov	r18, r23
     124:	2e 2f       	mov	r18, r30
     126:	35 2f       	mov	r19, r21
     128:	3c 2f       	mov	r19, r28
     12a:	43 2f       	mov	r20, r19
     12c:	4a 2f       	mov	r20, r26
     12e:	51 2f       	mov	r21, r17
     130:	58 2f       	mov	r21, r24
     132:	2c 36       	cpi	r18, 0x6C	; 108
     134:	32 36       	cpi	r19, 0x62	; 98
     136:	8b 36       	cpi	r24, 0x6B	; 107
     138:	f4 36       	cpi	r31, 0x64	; 100
     13a:	ff 36       	cpi	r31, 0x6F	; 111
     13c:	3c 37       	cpi	r19, 0x7C	; 124
     13e:	60 37       	cpi	r22, 0x70	; 112
     140:	ba 37       	cpi	r27, 0x7A	; 122
     142:	d1 37       	cpi	r29, 0x71	; 113
     144:	f0 37       	cpi	r31, 0x70	; 112
     146:	0d 38       	cpi	r16, 0x8D	; 141
     148:	24 38       	cpi	r18, 0x84	; 132
     14a:	4c 38       	cpi	r20, 0x8C	; 140
     14c:	63 38       	cpi	r22, 0x83	; 131
     14e:	80 38       	cpi	r24, 0x80	; 128
     150:	97 38       	cpi	r25, 0x87	; 135
     152:	bf 38       	cpi	r27, 0x8F	; 143
     154:	d6 38       	cpi	r29, 0x86	; 134
     156:	f3 38       	cpi	r31, 0x83	; 131
     158:	0a 39       	cpi	r16, 0x9A	; 154
     15a:	32 39       	cpi	r19, 0x92	; 146
     15c:	49 39       	cpi	r20, 0x99	; 153
     15e:	66 39       	cpi	r22, 0x96	; 150
     160:	7d 39       	cpi	r23, 0x9D	; 157
     162:	a6 39       	cpi	r26, 0x96	; 150
     164:	bd 39       	cpi	r27, 0x9D	; 157
     166:	da 39       	cpi	r29, 0x9A	; 154
     168:	f1 39       	cpi	r31, 0x91	; 145
     16a:	1a 3a       	cpi	r17, 0xAA	; 170
     16c:	31 3a       	cpi	r19, 0xA1	; 161
     16e:	4e 3a       	cpi	r20, 0xAE	; 174
     170:	65 3a       	cpi	r22, 0xA5	; 165
     172:	4a 3b       	cpi	r20, 0xBA	; 186
     174:	61 3b       	cpi	r22, 0xB1	; 177
     176:	7c 3b       	cpi	r23, 0xBC	; 188
     178:	99 3b       	cpi	r25, 0xB9	; 185
     17a:	ae 3b       	cpi	r26, 0xBE	; 190
     17c:	cb 3b       	cpi	r28, 0xBB	; 187
     17e:	e0 3b       	cpi	r30, 0xB0	; 176
     180:	fd 3b       	cpi	r31, 0xBD	; 189
     182:	12 3c       	cpi	r17, 0xC2	; 194
     184:	2f 3c       	cpi	r18, 0xCF	; 207
     186:	43 3c       	cpi	r20, 0xC3	; 195
     188:	60 3c       	cpi	r22, 0xC0	; 192
     18a:	74 3c       	cpi	r23, 0xC4	; 196
     18c:	91 3c       	cpi	r25, 0xC1	; 193
     18e:	a5 3c       	cpi	r26, 0xC5	; 197
     190:	c2 3c       	cpi	r28, 0xC2	; 194
     192:	d6 3c       	cpi	r29, 0xC6	; 198
     194:	f3 3c       	cpi	r31, 0xC3	; 195
     196:	07 3d       	cpi	r16, 0xD7	; 215
     198:	24 3d       	cpi	r18, 0xD4	; 212
     19a:	38 3d       	cpi	r19, 0xD8	; 216
     19c:	55 3d       	cpi	r21, 0xD5	; 213
     19e:	69 3d       	cpi	r22, 0xD9	; 217
     1a0:	86 3d       	cpi	r24, 0xD6	; 214
     1a2:	9a 3d       	cpi	r25, 0xDA	; 218

000001a4 <__trampolines_end>:
     1a4:	6e 61       	ori	r22, 0x1E	; 30
     1a6:	6e 00       	.word	0x006e	; ????

000001a8 <__c.2332>:
     1a8:	69 6e 66 00 00 40 7a 10 f3 5a 00 a0 72 4e 18 09     inf..@z..Z..rN..
     1b8:	00 10 a5 d4 e8 00 00 e8 76 48 17 00 00 e4 0b 54     ........vH.....T
     1c8:	02 00 00 ca 9a 3b 00 00 00 e1 f5 05 00 00 80 96     .....;..........
     1d8:	98 00 00 00 40 42 0f 00 00 00 a0 86 01 00 00 00     ....@B..........
     1e8:	10 27 00 00 00 00 e8 03 00 00 00 00 64 00 00 00     .'..........d...
     1f8:	00 00 0a 00 00 00 00 00 01 00 00 00 00 00 2c 76     ..............,v
     208:	d8 88 dc 67 4f 08 23 df c1 df ae 59 e1 b1 b7 96     ...gO.#....Y....
     218:	e5 e3 e4 53 c6 3a e6 51 99 76 96 e8 e6 c2 84 26     ...S.:.Q.v.....&
     228:	eb 89 8c 9b 62 ed 40 7c 6f fc ef bc 9c 9f 40 f2     ....b.@|o.....@.
     238:	ba a5 6f a5 f4 90 05 5a 2a f7 5c 93 6b 6c f9 67     ..o....Z*.\.kl.g
     248:	6d c1 1b fc e0 e4 0d 47 fe f5 20 e6 b5 00 d0 ed     m......G.. .....
     258:	90 2e 03 00 94 35 77 05 00 80 84 1e 08 00 00 20     .....5w........ 
     268:	4e 0a 00 00 00 c8 0c 33 33 33 33 0f 98 6e 12 83     N......3333..n..
     278:	11 41 ef 8d 21 14 89 3b e6 55 16 cf fe e6 db 18     .A..!..;.U......
     288:	d1 84 4b 38 1b f7 7c 1d 90 1d a4 bb e4 24 20 32     ..K8..|......$ 2
     298:	84 72 5e 22 81 00 c9 f1 24 ec a1 e5 3d 27           .r^"....$...='

000002a6 <__c.2474>:
     2a6:	63 64 69 6e 6f 70 73 75 78 58 5b 00                 cdinopsuxX[.

000002b2 <pstr_nan>:
     2b2:	4e 41 4e                                            NAN

000002b5 <pstr_inity>:
     2b5:	49 4e 49 54 59                                      INITY

000002ba <pstr_inf>:
     2ba:	49 4e 46                                            INF

000002bd <pwr_m10>:
     2bd:	cd cc cc 3d 0a d7 23 3c 17 b7 d1 38 77 cc 2b 32     ...=..#<...8w.+2
     2cd:	95 95 e6 24 1f b1 4f 0a                             ...$..O.

000002d5 <pwr_p10>:
     2d5:	00 00 20 41 00 00 c8 42 00 40 1c 46 20 bc be 4c     .. A...B.@.F ..L
     2e5:	ca 1b 0e 5a ae c5 9d 74                             ...Z...t

000002ed <_ZL12error_string>:
     2ed:	3c 03 37 03 32 03 2d 03 28 03 23 03 1e 03 18 03     <.7.2.-.(.#.....
     2fd:	11 03 0a 03 03 03                                   ......

00000303 <_ZL11er_string10>:
     303:	20 42 41 54 20 20 00                                 BAT  .

0000030a <_ZL10er_string9>:
     30a:	20 2d 4e 4f 2d 20 00                                 -NO- .

00000311 <_ZL10er_string8>:
     311:	20 2d 59 45 53 2d 00                                 -YES-.

00000318 <_ZL10er_string7>:
     318:	45 52 52 33 36 00                                   ERR36.

0000031e <_ZL10er_string6>:
     31e:	45 52 52 36 00                                      ERR6.

00000323 <_ZL10er_string5>:
     323:	45 52 52 35 00                                      ERR5.

00000328 <_ZL10er_string4>:
     328:	45 52 52 34 00                                      ERR4.

0000032d <_ZL10er_string3>:
     32d:	45 52 52 33 00                                      ERR3.

00000332 <_ZL10er_string2>:
     332:	45 52 52 32 00                                      ERR2.

00000337 <_ZL10er_string1>:
     337:	45 52 52 31 00                                      ERR1.

0000033c <_ZL10er_string0>:
     33c:	45 52 52 30 00                                      ERR0.

00000341 <_ZL7er_sens>:
     341:	bb 03 b3 03 ab 03 a3 03 9b 03 93 03 8b 03 83 03     ................
     351:	7b 03 73 03 6b 03 63 03 5b 03                       {.s.k.c.[.

0000035b <_ZL9er_sens12>:
     35b:	20 56 50 2e 30 38 20 00                              VP.08 .

00000363 <_ZL9er_sens11>:
     363:	45 52 52 30 2e 31 32 00                             ERR0.12.

0000036b <_ZL9er_sens10>:
     36b:	45 52 52 30 2e 31 31 00                             ERR0.11.

00000373 <_ZL8er_sens9>:
     373:	45 52 52 30 2e 31 30 00                             ERR0.10.

0000037b <_ZL8er_sens8>:
     37b:	45 52 52 30 2e 30 39 00                             ERR0.09.

00000383 <_ZL8er_sens7>:
     383:	45 52 52 30 2e 30 38 00                             ERR0.08.

0000038b <_ZL8er_sens6>:
     38b:	45 52 52 30 2e 30 37 00                             ERR0.07.

00000393 <_ZL8er_sens5>:
     393:	45 52 52 30 2e 30 36 00                             ERR0.06.

0000039b <_ZL8er_sens4>:
     39b:	45 52 52 30 2e 30 35 00                             ERR0.05.

000003a3 <_ZL8er_sens3>:
     3a3:	45 52 52 30 2e 30 34 00                             ERR0.04.

000003ab <_ZL8er_sens2>:
     3ab:	45 52 52 30 2e 30 33 00                             ERR0.03.

000003b3 <_ZL8er_sens1>:
     3b3:	45 52 52 30 2e 30 32 00                             ERR0.02.

000003bb <_ZL8er_sens0>:
     3bb:	45 52 52 30 2e 30 31 00                             ERR0.01.

000003c3 <_ZL7tab_seg>:
     3c3:	00 40 20 10 08 04 02 00 00 00 00 00 00 01 00 00     .@ .............
     3d3:	7e 30 6d 79 33 5b 5f 70 7f 7b 00 00 00 00 00 00     ~0my3[_p.{......
     3e3:	00 77 1f 4e 3d 4f 47 00 37 10 00 00 0e 00 15 1d     .w.N=OG.7.......
     3f3:	67 00 05 5b 0f 1c 3e 00 00 3b 00 00                 g..[..>..;..

000003ff <_ZL9MenuItems>:
     3ff:	50 41 52 31 00 00 00 00 00 00 72 1e 00 01 00 04     PAR1......r.....
     40f:	20 01 50 41 52 31 2e 31 00 00 00 00 73 1e 01 00      .PAR1.1....s...
     41f:	00 02 03 02 50 41 52 31 2e 32 00 00 00 00 7d 1e     ....PAR1.2....}.
     42f:	02 00 00 03 01 02 50 41 52 31 2e 33 00 00 00 00     ......PAR1.3....
     43f:	0f 1f 03 00 00 01 02 02 50 41 52 32 00 00 00 00     ........PAR2....
     44f:	00 00 72 1e 04 05 04 16 00 01 50 41 52 32 2e 31     ..r.......PAR2.1
     45f:	00 00 00 00 9f 23 05 00 04 06 15 02 50 41 52 32     .....#......PAR2
     46f:	2e 32 00 00 00 00 a4 23 06 00 04 07 05 02 50 41     .2.....#......PA
     47f:	52 32 2e 33 00 00 00 00 a9 23 07 00 04 08 06 02     R2.3.....#......
     48f:	50 41 52 32 2e 34 00 00 00 00 39 28 08 00 04 09     PAR2.4....9(....
     49f:	07 02 50 41 52 32 2e 35 00 00 00 00 99 28 09 00     ..PAR2.5.....(..
     4af:	04 0a 08 02 50 41 52 32 2e 36 00 00 00 00 f9 28     ....PAR2.6.....(
     4bf:	0a 00 04 0b 09 02 50 41 52 32 2e 37 00 00 00 00     ......PAR2.7....
     4cf:	cc 1f 0b 00 04 0c 0a 02 50 41 52 32 2e 38 00 00     ........PAR2.8..
     4df:	00 00 a3 2e 0c 00 04 0d 0b 02 50 41 52 32 2e 39     ..........PAR2.9
     4ef:	00 00 00 00 b0 24 0d 00 04 0e 0c 02 50 41 52 32     .....$......PAR2
     4ff:	2e 31 30 00 00 00 b5 24 0e 00 04 0f 0d 02 50 41     .10....$......PA
     50f:	52 32 2e 31 31 00 00 00 ae 2e 0f 00 04 10 0e 02     R2.11...........
     51f:	50 41 52 32 2e 31 32 00 00 00 b9 2e 10 00 04 11     PAR2.12.........
     52f:	0f 02 50 41 52 32 2e 31 33 00 00 00 c4 2e 11 00     ..PAR2.13.......
     53f:	04 12 10 02 50 41 52 32 2e 31 34 00 00 00 2c 1f     ....PAR2.14...,.
     54f:	12 00 04 13 11 02 50 41 52 32 2e 31 35 00 00 00     ......PAR2.15...
     55f:	cf 2e 13 00 04 14 12 02 50 41 52 32 2e 31 36 00     ........PAR2.16.
     56f:	00 00 da 2e 14 00 04 15 13 02 50 41 52 32 2e 31     ..........PAR2.1
     57f:	37 00 00 00 e5 2e 15 00 04 05 14 02 50 41 52 33     7...........PAR3
     58f:	00 00 00 00 00 00 72 1e 16 17 16 19 04 01 50 41     ......r.......PA
     59f:	52 33 2e 31 00 00 00 00 64 26 17 00 16 18 18 02     R3.1....d&......
     5af:	50 41 52 33 2e 32 00 00 00 00 6d 26 18 00 16 17     PAR3.2....m&....
     5bf:	17 02 50 41 52 34 00 00 00 00 00 00 72 1e 19 1a     ..PAR4......r...
     5cf:	19 1e 16 01 50 41 52 34 2e 31 00 00 00 00 72 1e     ....PAR4.1....r.
     5df:	1a 1b 19 1d 1d 01 50 41 52 34 2e 31 2e 31 00 00     ......PAR4.1.1..
     5ef:	94 2d 1b 00 1a 1c 1c 02 50 41 52 34 2e 31 2e 32     .-......PAR4.1.2
     5ff:	00 00 1a 2a 1c 00 1a 1b 1b 02 50 41 52 34 2e 32     ...*......PAR4.2
     60f:	00 00 00 00 13 30 1d 00 19 1a 1a 02 50 41 52 35     .....0......PAR5
     61f:	00 00 00 00 00 00 76 26 1e 00 1e 1f 19 03 50 41     ......v&......PA
     62f:	52 36 00 00 00 00 00 00 61 29 1f 00 1f 20 1e 03     R6......a)... ..
     63f:	50 41 52 37 00 00 00 00 00 00 87 2b 20 00 20 00     PAR7.......+ . .
     64f:	1f 03 00 00 00 00 00 00 00 00 00 00 00 00 00 00     ................
	...

000006cf <_ZL12error_string>:
     6cf:	1e 07 19 07 14 07 0f 07 0a 07 05 07 00 07 fa 06     ................
     6df:	f3 06 ec 06 e5 06                                   ......

000006e5 <_ZL11er_string10>:
     6e5:	20 42 41 54 20 20 00                                 BAT  .

000006ec <_ZL10er_string9>:
     6ec:	20 2d 4e 4f 2d 20 00                                 -NO- .

000006f3 <_ZL10er_string8>:
     6f3:	20 2d 59 45 53 2d 00                                 -YES-.

000006fa <_ZL10er_string7>:
     6fa:	45 52 52 33 36 00                                   ERR36.

00000700 <_ZL10er_string6>:
     700:	45 52 52 36 00                                      ERR6.

00000705 <_ZL10er_string5>:
     705:	45 52 52 35 00                                      ERR5.

0000070a <_ZL10er_string4>:
     70a:	45 52 52 34 00                                      ERR4.

0000070f <_ZL10er_string3>:
     70f:	45 52 52 33 00                                      ERR3.

00000714 <_ZL10er_string2>:
     714:	45 52 52 32 00                                      ERR2.

00000719 <_ZL10er_string1>:
     719:	45 52 52 31 00                                      ERR1.

0000071e <_ZL10er_string0>:
     71e:	45 52 52 30 00                                      ERR0.

00000723 <_ZL11uart_string>:
     723:	d8 07 d2 07 cc 07 c6 07 c0 07 ba 07 b4 07 ae 07     ................
     733:	a8 07 a2 07 9c 07 96 07 90 07 84 07 7b 07 71 07     ............{.q.
     743:	68 07 5e 07 55 07 4b 07                             h.^.U.K.

0000074b <_ZL13uart_string20>:
     74b:	02 58 4e 4f 4b 31 32 03 24 00                       .XNOK12.$.

00000755 <_ZL13uart_string19>:
     755:	02 58 4f 4b 35 43 03 24 00                          .XOK5C.$.

0000075e <_ZL13uart_string18>:
     75e:	02 54 4e 4f 4b 31 45 03 24 00                       .TNOK1E.$.

00000768 <_ZL13uart_string17>:
     768:	02 54 4f 4b 35 30 03 24 00                          .TOK50.$.

00000771 <_ZL13uart_string16>:
     771:	02 41 4e 4f 4b 30 42 03 24 00                       .ANOK0B.$.

0000077b <_ZL13uart_string15>:
     77b:	02 41 4f 4b 34 35 03 24 00                          .AOK45.$.

00000784 <_ZL13uart_string14>:
     784:	3b 53 39 38 3b 54 44 44 31 3b 24 00                 ;S98;TDD1;$.

00000790 <_ZL13uart_string13>:
     790:	53 31 32 3b 24 00                                   S12;$.

00000796 <_ZL13uart_string12>:
     796:	53 31 31 3b 24 00                                   S11;$.

0000079c <_ZL13uart_string11>:
     79c:	53 31 30 3b 24 00                                   S10;$.

000007a2 <_ZL13uart_string10>:
     7a2:	53 30 39 3b 24 00                                   S09;$.

000007a8 <_ZL12uart_string9>:
     7a8:	53 30 38 3b 24 00                                   S08;$.

000007ae <_ZL12uart_string8>:
     7ae:	53 30 37 3b 24 00                                   S07;$.

000007b4 <_ZL12uart_string7>:
     7b4:	53 30 36 3b 24 00                                   S06;$.

000007ba <_ZL12uart_string6>:
     7ba:	53 30 35 3b 24 00                                   S05;$.

000007c0 <_ZL12uart_string5>:
     7c0:	53 30 34 3b 24 00                                   S04;$.

000007c6 <_ZL12uart_string4>:
     7c6:	53 30 33 3b 24 00                                   S03;$.

000007cc <_ZL12uart_string3>:
     7cc:	53 30 32 3b 24 00                                   S02;$.

000007d2 <_ZL12uart_string2>:
     7d2:	53 30 31 3b 24 00                                   S01;$.

000007d8 <_ZL12uart_string1>:
     7d8:	53 39 38 3b 4d 53 56 3f 31 3b 24 00                 S98;MSV?1;$.

000007e4 <__ctors_end>:
     7e4:	11 24       	eor	r1, r1
     7e6:	1f be       	out	0x3f, r1	; 63
     7e8:	cf ef       	ldi	r28, 0xFF	; 255
     7ea:	d1 e2       	ldi	r29, 0x21	; 33
     7ec:	de bf       	out	0x3e, r29	; 62
     7ee:	cd bf       	out	0x3d, r28	; 61
     7f0:	00 e0       	ldi	r16, 0x00	; 0
     7f2:	0c bf       	out	0x3c, r16	; 60

000007f4 <__do_copy_data>:
     7f4:	13 e0       	ldi	r17, 0x03	; 3
     7f6:	a0 e0       	ldi	r26, 0x00	; 0
     7f8:	b2 e0       	ldi	r27, 0x02	; 2
     7fa:	e6 e9       	ldi	r30, 0x96	; 150
     7fc:	f7 e9       	ldi	r31, 0x97	; 151
     7fe:	00 e0       	ldi	r16, 0x00	; 0
     800:	0b bf       	out	0x3b, r16	; 59
     802:	02 c0       	rjmp	.+4      	; 0x808 <__do_copy_data+0x14>
     804:	07 90       	elpm	r0, Z+
     806:	0d 92       	st	X+, r0
     808:	a2 32       	cpi	r26, 0x22	; 34
     80a:	b1 07       	cpc	r27, r17
     80c:	d9 f7       	brne	.-10     	; 0x804 <__do_copy_data+0x10>

0000080e <__do_clear_bss>:
     80e:	26 e0       	ldi	r18, 0x06	; 6
     810:	a2 e2       	ldi	r26, 0x22	; 34
     812:	b3 e0       	ldi	r27, 0x03	; 3
     814:	01 c0       	rjmp	.+2      	; 0x818 <.do_clear_bss_start>

00000816 <.do_clear_bss_loop>:
     816:	1d 92       	st	X+, r1

00000818 <.do_clear_bss_start>:
     818:	a4 39       	cpi	r26, 0x94	; 148
     81a:	b2 07       	cpc	r27, r18
     81c:	e1 f7       	brne	.-8      	; 0x816 <.do_clear_bss_loop>
     81e:	0e 94 7d 1a 	call	0x34fa	; 0x34fa <main>
     822:	0c 94 c9 4b 	jmp	0x9792	; 0x9792 <_exit>

00000826 <__bad_interrupt>:
     826:	ec cb       	rjmp	.-2088   	; 0x0 <__vectors>

00000828 <_Z12EEPROM_writejh>:

void EEPROM_write_16t (uint16_t uiAddress, uint16_t ucData)
{
	EEPROM_write (uiAddress,ucData);
	EEPROM_write (uiAddress + 0x01 ,ucData >> 8);
}
     828:	f8 94       	cli
     82a:	f9 99       	sbic	0x1f, 1	; 31
     82c:	fe cf       	rjmp	.-4      	; 0x82a <_Z12EEPROM_writejh+0x2>
     82e:	92 bd       	out	0x22, r25	; 34
     830:	81 bd       	out	0x21, r24	; 33
     832:	60 bd       	out	0x20, r22	; 32
     834:	fa 9a       	sbi	0x1f, 2	; 31
     836:	f9 9a       	sbi	0x1f, 1	; 31
     838:	78 94       	sei
     83a:	08 95       	ret

0000083c <_Z11EEPROM_readj>:
     83c:	f8 94       	cli
     83e:	f9 99       	sbic	0x1f, 1	; 31
     840:	fe cf       	rjmp	.-4      	; 0x83e <_Z11EEPROM_readj+0x2>
     842:	92 bd       	out	0x22, r25	; 34
     844:	81 bd       	out	0x21, r24	; 33
     846:	f8 9a       	sbi	0x1f, 0	; 31
     848:	78 94       	sei
     84a:	80 b5       	in	r24, 0x20	; 32
     84c:	08 95       	ret

0000084e <_Z15EEPROM_read_32tj>:
     84e:	ff 92       	push	r15
     850:	0f 93       	push	r16
     852:	1f 93       	push	r17
     854:	cf 93       	push	r28
     856:	df 93       	push	r29
     858:	8c 01       	movw	r16, r24
     85a:	03 96       	adiw	r24, 0x03	; 3
     85c:	ef df       	rcall	.-34     	; 0x83c <_Z11EEPROM_readj>
     85e:	f8 2e       	mov	r15, r24
     860:	c8 01       	movw	r24, r16
     862:	02 96       	adiw	r24, 0x02	; 2
     864:	eb df       	rcall	.-42     	; 0x83c <_Z11EEPROM_readj>
     866:	c8 2f       	mov	r28, r24
     868:	c8 01       	movw	r24, r16
     86a:	01 96       	adiw	r24, 0x01	; 1
     86c:	e7 df       	rcall	.-50     	; 0x83c <_Z11EEPROM_readj>
     86e:	d8 2f       	mov	r29, r24
     870:	c8 01       	movw	r24, r16
     872:	e4 df       	rcall	.-56     	; 0x83c <_Z11EEPROM_readj>
     874:	4c 2f       	mov	r20, r28
     876:	50 e0       	ldi	r21, 0x00	; 0
     878:	60 e0       	ldi	r22, 0x00	; 0
     87a:	70 e0       	ldi	r23, 0x00	; 0
     87c:	5f 29       	or	r21, r15
     87e:	76 2f       	mov	r23, r22
     880:	65 2f       	mov	r22, r21
     882:	54 2f       	mov	r21, r20
     884:	44 27       	eor	r20, r20
     886:	4d 2b       	or	r20, r29
     888:	76 2f       	mov	r23, r22
     88a:	65 2f       	mov	r22, r21
     88c:	54 2f       	mov	r21, r20
     88e:	44 27       	eor	r20, r20
     890:	8a 01       	movw	r16, r20
     892:	9b 01       	movw	r18, r22
     894:	08 2b       	or	r16, r24
     896:	c9 01       	movw	r24, r18
     898:	b8 01       	movw	r22, r16
     89a:	60 93 2a 03 	sts	0x032A, r22	; 0x80032a <_ZZ15EEPROM_read_32tjE12receive_data>
     89e:	70 93 2b 03 	sts	0x032B, r23	; 0x80032b <_ZZ15EEPROM_read_32tjE12receive_data+0x1>
     8a2:	80 93 2c 03 	sts	0x032C, r24	; 0x80032c <_ZZ15EEPROM_read_32tjE12receive_data+0x2>
     8a6:	90 93 2d 03 	sts	0x032D, r25	; 0x80032d <_ZZ15EEPROM_read_32tjE12receive_data+0x3>
     8aa:	df 91       	pop	r29
     8ac:	cf 91       	pop	r28
     8ae:	1f 91       	pop	r17
     8b0:	0f 91       	pop	r16
     8b2:	ff 90       	pop	r15
     8b4:	08 95       	ret

000008b6 <_Z16EEPROM_write_32tjm>:
     8b6:	cf 92       	push	r12
     8b8:	df 92       	push	r13
     8ba:	ef 92       	push	r14
     8bc:	ff 92       	push	r15
     8be:	cf 93       	push	r28
     8c0:	df 93       	push	r29
     8c2:	ec 01       	movw	r28, r24
     8c4:	6a 01       	movw	r12, r20
     8c6:	7b 01       	movw	r14, r22
     8c8:	64 2f       	mov	r22, r20
     8ca:	ae df       	rcall	.-164    	; 0x828 <_Z12EEPROM_writejh>
     8cc:	99 27       	eor	r25, r25
     8ce:	8f 2d       	mov	r24, r15
     8d0:	7e 2d       	mov	r23, r14
     8d2:	6d 2d       	mov	r22, r13
     8d4:	ce 01       	movw	r24, r28
     8d6:	01 96       	adiw	r24, 0x01	; 1
     8d8:	a7 df       	rcall	.-178    	; 0x828 <_Z12EEPROM_writejh>
     8da:	b7 01       	movw	r22, r14
     8dc:	88 27       	eor	r24, r24
     8de:	99 27       	eor	r25, r25
     8e0:	ce 01       	movw	r24, r28
     8e2:	02 96       	adiw	r24, 0x02	; 2
     8e4:	a1 df       	rcall	.-190    	; 0x828 <_Z12EEPROM_writejh>
     8e6:	6f 2d       	mov	r22, r15
     8e8:	77 27       	eor	r23, r23
     8ea:	88 27       	eor	r24, r24
     8ec:	99 27       	eor	r25, r25
     8ee:	ce 01       	movw	r24, r28
     8f0:	03 96       	adiw	r24, 0x03	; 3
     8f2:	9a df       	rcall	.-204    	; 0x828 <_Z12EEPROM_writejh>
     8f4:	df 91       	pop	r29
     8f6:	cf 91       	pop	r28
     8f8:	ff 90       	pop	r15
     8fa:	ef 90       	pop	r14
     8fc:	df 90       	pop	r13
     8fe:	cf 90       	pop	r12
     900:	08 95       	ret

00000902 <_Z18EEPROM_write_floatjd>:
     902:	cf 92       	push	r12
     904:	df 92       	push	r13
     906:	ef 92       	push	r14
     908:	ff 92       	push	r15
     90a:	cf 93       	push	r28
     90c:	df 93       	push	r29
     90e:	ec 01       	movw	r28, r24
     910:	6a 01       	movw	r12, r20
     912:	7b 01       	movw	r14, r22
     914:	40 93 26 03 	sts	0x0326, r20	; 0x800326 <_ZZ18EEPROM_write_floatjdE9floatchik>
     918:	50 93 27 03 	sts	0x0327, r21	; 0x800327 <_ZZ18EEPROM_write_floatjdE9floatchik+0x1>
     91c:	60 93 28 03 	sts	0x0328, r22	; 0x800328 <_ZZ18EEPROM_write_floatjdE9floatchik+0x2>
     920:	70 93 29 03 	sts	0x0329, r23	; 0x800329 <_ZZ18EEPROM_write_floatjdE9floatchik+0x3>
     924:	64 2f       	mov	r22, r20
     926:	80 df       	rcall	.-256    	; 0x828 <_Z12EEPROM_writejh>
     928:	99 27       	eor	r25, r25
     92a:	8f 2d       	mov	r24, r15
     92c:	7e 2d       	mov	r23, r14
     92e:	6d 2d       	mov	r22, r13
     930:	ce 01       	movw	r24, r28
     932:	01 96       	adiw	r24, 0x01	; 1
     934:	79 df       	rcall	.-270    	; 0x828 <_Z12EEPROM_writejh>
     936:	b7 01       	movw	r22, r14
     938:	88 27       	eor	r24, r24
     93a:	99 27       	eor	r25, r25
     93c:	ce 01       	movw	r24, r28
     93e:	02 96       	adiw	r24, 0x02	; 2
     940:	73 df       	rcall	.-282    	; 0x828 <_Z12EEPROM_writejh>
     942:	6f 2d       	mov	r22, r15
     944:	77 27       	eor	r23, r23
     946:	88 27       	eor	r24, r24
     948:	99 27       	eor	r25, r25
     94a:	ce 01       	movw	r24, r28
     94c:	03 96       	adiw	r24, 0x03	; 3
     94e:	6c df       	rcall	.-296    	; 0x828 <_Z12EEPROM_writejh>
     950:	df 91       	pop	r29
     952:	cf 91       	pop	r28
     954:	ff 90       	pop	r15
     956:	ef 90       	pop	r14
     958:	df 90       	pop	r13
     95a:	cf 90       	pop	r12
     95c:	08 95       	ret

0000095e <_Z17EEPROM_read_floatj>:
     95e:	ff 92       	push	r15
     960:	0f 93       	push	r16
     962:	1f 93       	push	r17
     964:	cf 93       	push	r28
     966:	df 93       	push	r29
     968:	8c 01       	movw	r16, r24
     96a:	03 96       	adiw	r24, 0x03	; 3
     96c:	67 df       	rcall	.-306    	; 0x83c <_Z11EEPROM_readj>
     96e:	f8 2e       	mov	r15, r24
     970:	c8 01       	movw	r24, r16
     972:	02 96       	adiw	r24, 0x02	; 2
     974:	63 df       	rcall	.-314    	; 0x83c <_Z11EEPROM_readj>
     976:	c8 2f       	mov	r28, r24
     978:	c8 01       	movw	r24, r16
     97a:	01 96       	adiw	r24, 0x01	; 1
     97c:	5f df       	rcall	.-322    	; 0x83c <_Z11EEPROM_readj>
     97e:	d8 2f       	mov	r29, r24
     980:	c8 01       	movw	r24, r16
     982:	5c df       	rcall	.-328    	; 0x83c <_Z11EEPROM_readj>
     984:	4c 2f       	mov	r20, r28
     986:	50 e0       	ldi	r21, 0x00	; 0
     988:	60 e0       	ldi	r22, 0x00	; 0
     98a:	70 e0       	ldi	r23, 0x00	; 0
     98c:	5f 29       	or	r21, r15
     98e:	76 2f       	mov	r23, r22
     990:	65 2f       	mov	r22, r21
     992:	54 2f       	mov	r21, r20
     994:	44 27       	eor	r20, r20
     996:	4d 2b       	or	r20, r29
     998:	76 2f       	mov	r23, r22
     99a:	65 2f       	mov	r22, r21
     99c:	54 2f       	mov	r21, r20
     99e:	44 27       	eor	r20, r20
     9a0:	8a 01       	movw	r16, r20
     9a2:	9b 01       	movw	r18, r22
     9a4:	08 2b       	or	r16, r24
     9a6:	c9 01       	movw	r24, r18
     9a8:	b8 01       	movw	r22, r16
     9aa:	60 93 22 03 	sts	0x0322, r22	; 0x800322 <__data_end>
     9ae:	70 93 23 03 	sts	0x0323, r23	; 0x800323 <__data_end+0x1>
     9b2:	80 93 24 03 	sts	0x0324, r24	; 0x800324 <__data_end+0x2>
     9b6:	90 93 25 03 	sts	0x0325, r25	; 0x800325 <__data_end+0x3>
     9ba:	df 91       	pop	r29
     9bc:	cf 91       	pop	r28
     9be:	1f 91       	pop	r17
     9c0:	0f 91       	pop	r16
     9c2:	ff 90       	pop	r15
     9c4:	08 95       	ret

000009c6 <_Z11init_EEpromv>:


void init_EEprom (void)                                       // инициализация еепром, забиваем стандартные значения
{
    EEPROM_write(EE_LIGHT,2);
     9c6:	62 e0       	ldi	r22, 0x02	; 2
     9c8:	80 e0       	ldi	r24, 0x00	; 0
     9ca:	90 e0       	ldi	r25, 0x00	; 0
     9cc:	2d df       	rcall	.-422    	; 0x828 <_Z12EEPROM_writejh>
    EEPROM_write(EE_DISCKRET1,2);
     9ce:	62 e0       	ldi	r22, 0x02	; 2
     9d0:	81 e0       	ldi	r24, 0x01	; 1
     9d2:	90 e0       	ldi	r25, 0x00	; 0
     9d4:	29 df       	rcall	.-430    	; 0x828 <_Z12EEPROM_writejh>
    EEPROM_write(EE_DISCKRET2,5);
     9d6:	65 e0       	ldi	r22, 0x05	; 5
     9d8:	82 e0       	ldi	r24, 0x02	; 2
     9da:	90 e0       	ldi	r25, 0x00	; 0
     9dc:	25 df       	rcall	.-438    	; 0x828 <_Z12EEPROM_writejh>
    EEPROM_write(EE_DISCKRET3,10);
     9de:	6a e0       	ldi	r22, 0x0A	; 10
     9e0:	83 e0       	ldi	r24, 0x03	; 3
     9e2:	90 e0       	ldi	r25, 0x00	; 0
     9e4:	21 df       	rcall	.-446    	; 0x828 <_Z12EEPROM_writejh>
    EEPROM_write_32t(EE_SILL1,10000);
     9e6:	40 e1       	ldi	r20, 0x10	; 16
     9e8:	57 e2       	ldi	r21, 0x27	; 39
     9ea:	60 e0       	ldi	r22, 0x00	; 0
     9ec:	70 e0       	ldi	r23, 0x00	; 0
     9ee:	84 e0       	ldi	r24, 0x04	; 4
     9f0:	90 e0       	ldi	r25, 0x00	; 0
     9f2:	61 df       	rcall	.-318    	; 0x8b6 <_Z16EEPROM_write_32tjm>
    EEPROM_write_32t(EE_SILL2,50000);
     9f4:	40 e5       	ldi	r20, 0x50	; 80
     9f6:	53 ec       	ldi	r21, 0xC3	; 195
     9f8:	60 e0       	ldi	r22, 0x00	; 0
     9fa:	70 e0       	ldi	r23, 0x00	; 0
     9fc:	88 e0       	ldi	r24, 0x08	; 8
     9fe:	90 e0       	ldi	r25, 0x00	; 0
    EEPROM_write(EE_SENNUMBER,8);
     a00:	5a df       	rcall	.-332    	; 0x8b6 <_Z16EEPROM_write_32tjm>
     a02:	68 e0       	ldi	r22, 0x08	; 8
     a04:	8c e0       	ldi	r24, 0x0C	; 12
     a06:	90 e0       	ldi	r25, 0x00	; 0
    EEPROM_write(EE_TIPCD,1);
     a08:	0f df       	rcall	.-482    	; 0x828 <_Z12EEPROM_writejh>
     a0a:	61 e0       	ldi	r22, 0x01	; 1
     a0c:	8d e0       	ldi	r24, 0x0D	; 13
     a0e:	90 e0       	ldi	r25, 0x00	; 0
    EEPROM_write(EE_BAUD1,2);
     a10:	0b df       	rcall	.-490    	; 0x828 <_Z12EEPROM_writejh>
     a12:	62 e0       	ldi	r22, 0x02	; 2
     a14:	8e e0       	ldi	r24, 0x0E	; 14
     a16:	90 e0       	ldi	r25, 0x00	; 0
    EEPROM_write(EE_BAUD2,2);
     a18:	07 df       	rcall	.-498    	; 0x828 <_Z12EEPROM_writejh>
     a1a:	62 e0       	ldi	r22, 0x02	; 2
     a1c:	8f e0       	ldi	r24, 0x0F	; 15
     a1e:	90 e0       	ldi	r25, 0x00	; 0
    EEPROM_write(EE_PROTOCOL1,1);
     a20:	03 df       	rcall	.-506    	; 0x828 <_Z12EEPROM_writejh>
     a22:	61 e0       	ldi	r22, 0x01	; 1
     a24:	80 e1       	ldi	r24, 0x10	; 16
     a26:	90 e0       	ldi	r25, 0x00	; 0
    EEPROM_write(EE_PROTOCOL2,1);
     a28:	ff de       	rcall	.-514    	; 0x828 <_Z12EEPROM_writejh>
     a2a:	61 e0       	ldi	r22, 0x01	; 1
     a2c:	81 e1       	ldi	r24, 0x11	; 17
     a2e:	90 e0       	ldi	r25, 0x00	; 0
    EEPROM_write(EE_FILTR,4);
     a30:	fb de       	rcall	.-522    	; 0x828 <_Z12EEPROM_writejh>
     a32:	64 e0       	ldi	r22, 0x04	; 4
     a34:	82 e1       	ldi	r24, 0x12	; 18
     a36:	90 e0       	ldi	r25, 0x00	; 0
    EEPROM_write(EE_ZEROSTART,1);
     a38:	f7 de       	rcall	.-530    	; 0x828 <_Z12EEPROM_writejh>
     a3a:	61 e0       	ldi	r22, 0x01	; 1
     a3c:	83 e1       	ldi	r24, 0x13	; 19
     a3e:	90 e0       	ldi	r25, 0x00	; 0
    EEPROM_write_32t(EE_NPV, 80000);
     a40:	f3 de       	rcall	.-538    	; 0x828 <_Z12EEPROM_writejh>
     a42:	40 e8       	ldi	r20, 0x80	; 128
     a44:	58 e3       	ldi	r21, 0x38	; 56
     a46:	61 e0       	ldi	r22, 0x01	; 1
     a48:	70 e0       	ldi	r23, 0x00	; 0
     a4a:	84 e1       	ldi	r24, 0x14	; 20
     a4c:	90 e0       	ldi	r25, 0x00	; 0
    EEPROM_write_32t(EE_CAUNTERVEIGHT,0);
     a4e:	33 df       	rcall	.-410    	; 0x8b6 <_Z16EEPROM_write_32tjm>
     a50:	40 e0       	ldi	r20, 0x00	; 0
     a52:	50 e0       	ldi	r21, 0x00	; 0
     a54:	ba 01       	movw	r22, r20
     a56:	80 e2       	ldi	r24, 0x20	; 32
    EEPROM_write_float(EE_KALIBKOEF,1.000);
     a58:	90 e0       	ldi	r25, 0x00	; 0
     a5a:	2d df       	rcall	.-422    	; 0x8b6 <_Z16EEPROM_write_32tjm>
     a5c:	40 e0       	ldi	r20, 0x00	; 0
     a5e:	50 e0       	ldi	r21, 0x00	; 0
     a60:	60 e8       	ldi	r22, 0x80	; 128
     a62:	7f e3       	ldi	r23, 0x3F	; 63
     a64:	88 e1       	ldi	r24, 0x18	; 24
    EEPROM_write(EE_TIM_STAB,10);
     a66:	90 e0       	ldi	r25, 0x00	; 0
     a68:	4c df       	rcall	.-360    	; 0x902 <_Z18EEPROM_write_floatjd>
     a6a:	6a e0       	ldi	r22, 0x0A	; 10
     a6c:	88 e8       	ldi	r24, 0x88	; 136
    EEPROM_write(EE_OF_ADC,0);
     a6e:	90 e0       	ldi	r25, 0x00	; 0
     a70:	db de       	rcall	.-586    	; 0x828 <_Z12EEPROM_writejh>
     a72:	60 e0       	ldi	r22, 0x00	; 0
     a74:	89 e8       	ldi	r24, 0x89	; 137
     a76:	90 e0       	ldi	r25, 0x00	; 0
    
 //----------metrology----------//
    EEPROM_write_float(EE_KALIBSENSOR1,1.000);
     a78:	d7 de       	rcall	.-594    	; 0x828 <_Z12EEPROM_writejh>
     a7a:	40 e0       	ldi	r20, 0x00	; 0
     a7c:	50 e0       	ldi	r21, 0x00	; 0
     a7e:	60 e8       	ldi	r22, 0x80	; 128
     a80:	7f e3       	ldi	r23, 0x3F	; 63
     a82:	88 e2       	ldi	r24, 0x28	; 40
     a84:	90 e0       	ldi	r25, 0x00	; 0
    EEPROM_write_float(EE_KALIBSENSOR2,1.000);
     a86:	3d df       	rcall	.-390    	; 0x902 <_Z18EEPROM_write_floatjd>
     a88:	40 e0       	ldi	r20, 0x00	; 0
     a8a:	50 e0       	ldi	r21, 0x00	; 0
     a8c:	60 e8       	ldi	r22, 0x80	; 128
     a8e:	7f e3       	ldi	r23, 0x3F	; 63
     a90:	8c e2       	ldi	r24, 0x2C	; 44
     a92:	90 e0       	ldi	r25, 0x00	; 0
    EEPROM_write_float(EE_KALIBSENSOR3,1.000);
     a94:	36 df       	rcall	.-404    	; 0x902 <_Z18EEPROM_write_floatjd>
     a96:	40 e0       	ldi	r20, 0x00	; 0
     a98:	50 e0       	ldi	r21, 0x00	; 0
     a9a:	60 e8       	ldi	r22, 0x80	; 128
     a9c:	7f e3       	ldi	r23, 0x3F	; 63
     a9e:	80 e3       	ldi	r24, 0x30	; 48
     aa0:	90 e0       	ldi	r25, 0x00	; 0
    EEPROM_write_float(EE_KALIBSENSOR4,1.000);
     aa2:	2f df       	rcall	.-418    	; 0x902 <_Z18EEPROM_write_floatjd>
     aa4:	40 e0       	ldi	r20, 0x00	; 0
     aa6:	50 e0       	ldi	r21, 0x00	; 0
     aa8:	60 e8       	ldi	r22, 0x80	; 128
     aaa:	7f e3       	ldi	r23, 0x3F	; 63
     aac:	84 e3       	ldi	r24, 0x34	; 52
     aae:	90 e0       	ldi	r25, 0x00	; 0
    EEPROM_write_float(EE_KALIBSENSOR5,1.000);
     ab0:	28 df       	rcall	.-432    	; 0x902 <_Z18EEPROM_write_floatjd>
     ab2:	40 e0       	ldi	r20, 0x00	; 0
     ab4:	50 e0       	ldi	r21, 0x00	; 0
     ab6:	60 e8       	ldi	r22, 0x80	; 128
     ab8:	7f e3       	ldi	r23, 0x3F	; 63
     aba:	88 e3       	ldi	r24, 0x38	; 56
     abc:	90 e0       	ldi	r25, 0x00	; 0
    EEPROM_write_float(EE_KALIBSENSOR6,1.000);
     abe:	21 df       	rcall	.-446    	; 0x902 <_Z18EEPROM_write_floatjd>
     ac0:	40 e0       	ldi	r20, 0x00	; 0
     ac2:	50 e0       	ldi	r21, 0x00	; 0
     ac4:	60 e8       	ldi	r22, 0x80	; 128
     ac6:	7f e3       	ldi	r23, 0x3F	; 63
     ac8:	8c e3       	ldi	r24, 0x3C	; 60
     aca:	90 e0       	ldi	r25, 0x00	; 0
    EEPROM_write_float(EE_KALIBSENSOR7,1.000);
     acc:	1a df       	rcall	.-460    	; 0x902 <_Z18EEPROM_write_floatjd>
     ace:	40 e0       	ldi	r20, 0x00	; 0
     ad0:	50 e0       	ldi	r21, 0x00	; 0
     ad2:	60 e8       	ldi	r22, 0x80	; 128
     ad4:	7f e3       	ldi	r23, 0x3F	; 63
     ad6:	80 e4       	ldi	r24, 0x40	; 64
     ad8:	90 e0       	ldi	r25, 0x00	; 0
    EEPROM_write_float(EE_KALIBSENSOR8,1.000);
     ada:	13 df       	rcall	.-474    	; 0x902 <_Z18EEPROM_write_floatjd>
     adc:	40 e0       	ldi	r20, 0x00	; 0
     ade:	50 e0       	ldi	r21, 0x00	; 0
     ae0:	60 e8       	ldi	r22, 0x80	; 128
     ae2:	7f e3       	ldi	r23, 0x3F	; 63
     ae4:	84 e4       	ldi	r24, 0x44	; 68
     ae6:	90 e0       	ldi	r25, 0x00	; 0
    EEPROM_write_float(EE_KALIBSENSOR9,1.000);
     ae8:	0c df       	rcall	.-488    	; 0x902 <_Z18EEPROM_write_floatjd>
     aea:	40 e0       	ldi	r20, 0x00	; 0
     aec:	50 e0       	ldi	r21, 0x00	; 0
     aee:	60 e8       	ldi	r22, 0x80	; 128
     af0:	7f e3       	ldi	r23, 0x3F	; 63
     af2:	88 e4       	ldi	r24, 0x48	; 72
     af4:	90 e0       	ldi	r25, 0x00	; 0
    EEPROM_write_float(EE_KALIBSENSOR10,1.000);
     af6:	05 df       	rcall	.-502    	; 0x902 <_Z18EEPROM_write_floatjd>
     af8:	40 e0       	ldi	r20, 0x00	; 0
     afa:	50 e0       	ldi	r21, 0x00	; 0
     afc:	60 e8       	ldi	r22, 0x80	; 128
     afe:	7f e3       	ldi	r23, 0x3F	; 63
     b00:	8c e4       	ldi	r24, 0x4C	; 76
     b02:	90 e0       	ldi	r25, 0x00	; 0
    EEPROM_write_float(EE_KALIBSENSOR11,1.000);
     b04:	fe de       	rcall	.-516    	; 0x902 <_Z18EEPROM_write_floatjd>
     b06:	40 e0       	ldi	r20, 0x00	; 0
     b08:	50 e0       	ldi	r21, 0x00	; 0
     b0a:	60 e8       	ldi	r22, 0x80	; 128
     b0c:	7f e3       	ldi	r23, 0x3F	; 63
     b0e:	80 e5       	ldi	r24, 0x50	; 80
     b10:	90 e0       	ldi	r25, 0x00	; 0
    EEPROM_write_float(EE_KALIBSENSOR12,1.000);
     b12:	f7 de       	rcall	.-530    	; 0x902 <_Z18EEPROM_write_floatjd>
     b14:	40 e0       	ldi	r20, 0x00	; 0
     b16:	50 e0       	ldi	r21, 0x00	; 0
     b18:	60 e8       	ldi	r22, 0x80	; 128
     b1a:	7f e3       	ldi	r23, 0x3F	; 63
     b1c:	84 e5       	ldi	r24, 0x54	; 84
     b1e:	90 e0       	ldi	r25, 0x00	; 0
    
    EEPROM_write_32t(EE_ZEROSENS1,8388608);
     b20:	f0 de       	rcall	.-544    	; 0x902 <_Z18EEPROM_write_floatjd>
     b22:	40 e0       	ldi	r20, 0x00	; 0
     b24:	50 e0       	ldi	r21, 0x00	; 0
     b26:	60 e8       	ldi	r22, 0x80	; 128
     b28:	70 e0       	ldi	r23, 0x00	; 0
     b2a:	88 e5       	ldi	r24, 0x58	; 88
     b2c:	90 e0       	ldi	r25, 0x00	; 0
    EEPROM_write_32t(EE_ZEROSENS2,8388608);
     b2e:	c3 de       	rcall	.-634    	; 0x8b6 <_Z16EEPROM_write_32tjm>
     b30:	40 e0       	ldi	r20, 0x00	; 0
     b32:	50 e0       	ldi	r21, 0x00	; 0
     b34:	60 e8       	ldi	r22, 0x80	; 128
     b36:	70 e0       	ldi	r23, 0x00	; 0
     b38:	8c e5       	ldi	r24, 0x5C	; 92
     b3a:	90 e0       	ldi	r25, 0x00	; 0
    EEPROM_write_32t(EE_ZEROSENS3,8388608);
     b3c:	bc de       	rcall	.-648    	; 0x8b6 <_Z16EEPROM_write_32tjm>
     b3e:	40 e0       	ldi	r20, 0x00	; 0
     b40:	50 e0       	ldi	r21, 0x00	; 0
     b42:	60 e8       	ldi	r22, 0x80	; 128
     b44:	70 e0       	ldi	r23, 0x00	; 0
     b46:	80 e6       	ldi	r24, 0x60	; 96
     b48:	90 e0       	ldi	r25, 0x00	; 0
    EEPROM_write_32t(EE_ZEROSENS4,8388608);
     b4a:	b5 de       	rcall	.-662    	; 0x8b6 <_Z16EEPROM_write_32tjm>
     b4c:	40 e0       	ldi	r20, 0x00	; 0
     b4e:	50 e0       	ldi	r21, 0x00	; 0
     b50:	60 e8       	ldi	r22, 0x80	; 128
     b52:	70 e0       	ldi	r23, 0x00	; 0
     b54:	84 e6       	ldi	r24, 0x64	; 100
     b56:	90 e0       	ldi	r25, 0x00	; 0
    EEPROM_write_32t(EE_ZEROSENS5,8388608);
     b58:	ae de       	rcall	.-676    	; 0x8b6 <_Z16EEPROM_write_32tjm>
     b5a:	40 e0       	ldi	r20, 0x00	; 0
     b5c:	50 e0       	ldi	r21, 0x00	; 0
     b5e:	60 e8       	ldi	r22, 0x80	; 128
     b60:	70 e0       	ldi	r23, 0x00	; 0
     b62:	88 e6       	ldi	r24, 0x68	; 104
     b64:	90 e0       	ldi	r25, 0x00	; 0
    EEPROM_write_32t(EE_ZEROSENS6,8388608);
     b66:	a7 de       	rcall	.-690    	; 0x8b6 <_Z16EEPROM_write_32tjm>
     b68:	40 e0       	ldi	r20, 0x00	; 0
     b6a:	50 e0       	ldi	r21, 0x00	; 0
     b6c:	60 e8       	ldi	r22, 0x80	; 128
     b6e:	70 e0       	ldi	r23, 0x00	; 0
     b70:	8c e6       	ldi	r24, 0x6C	; 108
     b72:	90 e0       	ldi	r25, 0x00	; 0
    EEPROM_write_32t(EE_ZEROSENS7,8388608);
     b74:	a0 de       	rcall	.-704    	; 0x8b6 <_Z16EEPROM_write_32tjm>
     b76:	40 e0       	ldi	r20, 0x00	; 0
     b78:	50 e0       	ldi	r21, 0x00	; 0
     b7a:	60 e8       	ldi	r22, 0x80	; 128
     b7c:	70 e0       	ldi	r23, 0x00	; 0
     b7e:	80 e7       	ldi	r24, 0x70	; 112
     b80:	90 e0       	ldi	r25, 0x00	; 0
    EEPROM_write_32t(EE_ZEROSENS8,8388608);
     b82:	99 de       	rcall	.-718    	; 0x8b6 <_Z16EEPROM_write_32tjm>
     b84:	40 e0       	ldi	r20, 0x00	; 0
     b86:	50 e0       	ldi	r21, 0x00	; 0
     b88:	60 e8       	ldi	r22, 0x80	; 128
     b8a:	70 e0       	ldi	r23, 0x00	; 0
     b8c:	84 e7       	ldi	r24, 0x74	; 116
     b8e:	90 e0       	ldi	r25, 0x00	; 0
     b90:	92 de       	rcall	.-732    	; 0x8b6 <_Z16EEPROM_write_32tjm>
    EEPROM_write_32t(EE_ZEROSENS9,8388608);
     b92:	40 e0       	ldi	r20, 0x00	; 0
     b94:	50 e0       	ldi	r21, 0x00	; 0
     b96:	60 e8       	ldi	r22, 0x80	; 128
     b98:	70 e0       	ldi	r23, 0x00	; 0
     b9a:	88 e7       	ldi	r24, 0x78	; 120
     b9c:	90 e0       	ldi	r25, 0x00	; 0
     b9e:	8b de       	rcall	.-746    	; 0x8b6 <_Z16EEPROM_write_32tjm>
     ba0:	40 e0       	ldi	r20, 0x00	; 0
    EEPROM_write_32t(EE_ZEROSENS10,8388608);
     ba2:	50 e0       	ldi	r21, 0x00	; 0
     ba4:	60 e8       	ldi	r22, 0x80	; 128
     ba6:	70 e0       	ldi	r23, 0x00	; 0
     ba8:	8c e7       	ldi	r24, 0x7C	; 124
     baa:	90 e0       	ldi	r25, 0x00	; 0
     bac:	84 de       	rcall	.-760    	; 0x8b6 <_Z16EEPROM_write_32tjm>
     bae:	40 e0       	ldi	r20, 0x00	; 0
     bb0:	50 e0       	ldi	r21, 0x00	; 0
    EEPROM_write_32t(EE_ZEROSENS11,8388608);
     bb2:	60 e8       	ldi	r22, 0x80	; 128
     bb4:	70 e0       	ldi	r23, 0x00	; 0
     bb6:	80 e8       	ldi	r24, 0x80	; 128
     bb8:	90 e0       	ldi	r25, 0x00	; 0
     bba:	7d de       	rcall	.-774    	; 0x8b6 <_Z16EEPROM_write_32tjm>
     bbc:	40 e0       	ldi	r20, 0x00	; 0
     bbe:	50 e0       	ldi	r21, 0x00	; 0
     bc0:	60 e8       	ldi	r22, 0x80	; 128
    EEPROM_write_32t(EE_ZEROSENS12,8388608);
     bc2:	70 e0       	ldi	r23, 0x00	; 0
     bc4:	84 e8       	ldi	r24, 0x84	; 132
     bc6:	90 e0       	ldi	r25, 0x00	; 0
     bc8:	76 ce       	rjmp	.-788    	; 0x8b6 <_Z16EEPROM_write_32tjm>
     bca:	08 95       	ret

00000bcc <_Z17eeprom_calib_sensv>:
     bcc:	cf 93       	push	r28
     bce:	df 93       	push	r29
     bd0:	c5 e0       	ldi	r28, 0x05	; 5
     bd2:	d5 e0       	ldi	r29, 0x05	; 5
     
}

void eeprom_calib_sens (void)
{
    EEPROM_write_float(EE_KALIBSENSOR1,metrology.koef_sensor1);
     bd4:	4c 81       	ldd	r20, Y+4	; 0x04
     bd6:	5d 81       	ldd	r21, Y+5	; 0x05
     bd8:	6e 81       	ldd	r22, Y+6	; 0x06
     bda:	7f 81       	ldd	r23, Y+7	; 0x07
     bdc:	88 e2       	ldi	r24, 0x28	; 40
     bde:	90 e0       	ldi	r25, 0x00	; 0
     be0:	90 de       	rcall	.-736    	; 0x902 <_Z18EEPROM_write_floatjd>
    EEPROM_write_float(EE_KALIBSENSOR2,metrology.koef_sensor2);
     be2:	48 89       	ldd	r20, Y+16	; 0x10
     be4:	59 89       	ldd	r21, Y+17	; 0x11
     be6:	6a 89       	ldd	r22, Y+18	; 0x12
     be8:	7b 89       	ldd	r23, Y+19	; 0x13
     bea:	8c e2       	ldi	r24, 0x2C	; 44
     bec:	90 e0       	ldi	r25, 0x00	; 0
     bee:	89 de       	rcall	.-750    	; 0x902 <_Z18EEPROM_write_floatjd>
    EEPROM_write_float(EE_KALIBSENSOR3,metrology.koef_sensor3);
     bf0:	4c 8d       	ldd	r20, Y+28	; 0x1c
     bf2:	5d 8d       	ldd	r21, Y+29	; 0x1d
     bf4:	6e 8d       	ldd	r22, Y+30	; 0x1e
     bf6:	7f 8d       	ldd	r23, Y+31	; 0x1f
     bf8:	80 e3       	ldi	r24, 0x30	; 48
     bfa:	90 e0       	ldi	r25, 0x00	; 0
     bfc:	82 de       	rcall	.-764    	; 0x902 <_Z18EEPROM_write_floatjd>
    EEPROM_write_float(EE_KALIBSENSOR4,metrology.koef_sensor4);
     bfe:	48 a5       	ldd	r20, Y+40	; 0x28
     c00:	59 a5       	ldd	r21, Y+41	; 0x29
     c02:	6a a5       	ldd	r22, Y+42	; 0x2a
     c04:	7b a5       	ldd	r23, Y+43	; 0x2b
     c06:	84 e3       	ldi	r24, 0x34	; 52
     c08:	90 e0       	ldi	r25, 0x00	; 0
     c0a:	7b de       	rcall	.-778    	; 0x902 <_Z18EEPROM_write_floatjd>
    EEPROM_write_float(EE_KALIBSENSOR5,metrology.koef_sensor5);
     c0c:	4c a9       	ldd	r20, Y+52	; 0x34
     c0e:	5d a9       	ldd	r21, Y+53	; 0x35
     c10:	6e a9       	ldd	r22, Y+54	; 0x36
     c12:	7f a9       	ldd	r23, Y+55	; 0x37
     c14:	88 e3       	ldi	r24, 0x38	; 56
     c16:	90 e0       	ldi	r25, 0x00	; 0
     c18:	74 de       	rcall	.-792    	; 0x902 <_Z18EEPROM_write_floatjd>
    EEPROM_write_float(EE_KALIBSENSOR6,metrology.koef_sensor6);
     c1a:	40 91 45 05 	lds	r20, 0x0545	; 0x800545 <metrology+0x40>
     c1e:	50 91 46 05 	lds	r21, 0x0546	; 0x800546 <metrology+0x41>
     c22:	60 91 47 05 	lds	r22, 0x0547	; 0x800547 <metrology+0x42>
     c26:	70 91 48 05 	lds	r23, 0x0548	; 0x800548 <metrology+0x43>
     c2a:	8c e3       	ldi	r24, 0x3C	; 60
     c2c:	90 e0       	ldi	r25, 0x00	; 0
     c2e:	69 de       	rcall	.-814    	; 0x902 <_Z18EEPROM_write_floatjd>
    EEPROM_write_float(EE_KALIBSENSOR7,metrology.koef_sensor7);
     c30:	40 91 51 05 	lds	r20, 0x0551	; 0x800551 <metrology+0x4c>
     c34:	50 91 52 05 	lds	r21, 0x0552	; 0x800552 <metrology+0x4d>
     c38:	60 91 53 05 	lds	r22, 0x0553	; 0x800553 <metrology+0x4e>
     c3c:	70 91 54 05 	lds	r23, 0x0554	; 0x800554 <metrology+0x4f>
     c40:	80 e4       	ldi	r24, 0x40	; 64
     c42:	90 e0       	ldi	r25, 0x00	; 0
     c44:	5e de       	rcall	.-836    	; 0x902 <_Z18EEPROM_write_floatjd>
    EEPROM_write_float(EE_KALIBSENSOR8,metrology.koef_sensor8);
     c46:	40 91 5d 05 	lds	r20, 0x055D	; 0x80055d <metrology+0x58>
     c4a:	50 91 5e 05 	lds	r21, 0x055E	; 0x80055e <metrology+0x59>
     c4e:	60 91 5f 05 	lds	r22, 0x055F	; 0x80055f <metrology+0x5a>
     c52:	70 91 60 05 	lds	r23, 0x0560	; 0x800560 <metrology+0x5b>
     c56:	84 e4       	ldi	r24, 0x44	; 68
     c58:	90 e0       	ldi	r25, 0x00	; 0
     c5a:	53 de       	rcall	.-858    	; 0x902 <_Z18EEPROM_write_floatjd>
    EEPROM_write_float(EE_KALIBSENSOR9,metrology.koef_sensor9);
     c5c:	40 91 69 05 	lds	r20, 0x0569	; 0x800569 <metrology+0x64>
     c60:	50 91 6a 05 	lds	r21, 0x056A	; 0x80056a <metrology+0x65>
     c64:	60 91 6b 05 	lds	r22, 0x056B	; 0x80056b <metrology+0x66>
     c68:	70 91 6c 05 	lds	r23, 0x056C	; 0x80056c <metrology+0x67>
     c6c:	88 e4       	ldi	r24, 0x48	; 72
     c6e:	90 e0       	ldi	r25, 0x00	; 0
     c70:	48 de       	rcall	.-880    	; 0x902 <_Z18EEPROM_write_floatjd>
    EEPROM_write_float(EE_KALIBSENSOR10,metrology.koef_sensor10);
     c72:	40 91 75 05 	lds	r20, 0x0575	; 0x800575 <metrology+0x70>
     c76:	50 91 76 05 	lds	r21, 0x0576	; 0x800576 <metrology+0x71>
     c7a:	60 91 77 05 	lds	r22, 0x0577	; 0x800577 <metrology+0x72>
     c7e:	70 91 78 05 	lds	r23, 0x0578	; 0x800578 <metrology+0x73>
     c82:	8c e4       	ldi	r24, 0x4C	; 76
     c84:	90 e0       	ldi	r25, 0x00	; 0
     c86:	3d de       	rcall	.-902    	; 0x902 <_Z18EEPROM_write_floatjd>
    EEPROM_write_float(EE_KALIBSENSOR11,metrology.koef_sensor11);
     c88:	40 91 81 05 	lds	r20, 0x0581	; 0x800581 <metrology+0x7c>
     c8c:	50 91 82 05 	lds	r21, 0x0582	; 0x800582 <metrology+0x7d>
     c90:	60 91 83 05 	lds	r22, 0x0583	; 0x800583 <metrology+0x7e>
     c94:	70 91 84 05 	lds	r23, 0x0584	; 0x800584 <metrology+0x7f>
     c98:	80 e5       	ldi	r24, 0x50	; 80
     c9a:	90 e0       	ldi	r25, 0x00	; 0
     c9c:	32 de       	rcall	.-924    	; 0x902 <_Z18EEPROM_write_floatjd>
    EEPROM_write_float(EE_KALIBSENSOR12,metrology.koef_sensor12);     
     c9e:	40 91 8d 05 	lds	r20, 0x058D	; 0x80058d <metrology+0x88>
     ca2:	50 91 8e 05 	lds	r21, 0x058E	; 0x80058e <metrology+0x89>
     ca6:	60 91 8f 05 	lds	r22, 0x058F	; 0x80058f <metrology+0x8a>
     caa:	70 91 90 05 	lds	r23, 0x0590	; 0x800590 <metrology+0x8b>
     cae:	84 e5       	ldi	r24, 0x54	; 84
     cb0:	90 e0       	ldi	r25, 0x00	; 0
     cb2:	27 de       	rcall	.-946    	; 0x902 <_Z18EEPROM_write_floatjd>
     cb4:	df 91       	pop	r29
}   
     cb6:	cf 91       	pop	r28
     cb8:	08 95       	ret

00000cba <_Z15read_ALL_EEpromv>:
     cba:	cf 93       	push	r28

void read_ALL_EEprom (void)                                   // считываем значение из еепром при старте для всех переменных 
{
     cbc:	df 93       	push	r29
    	param.discret1              = EEPROM_read(EE_DISCKRET1);
     cbe:	81 e0       	ldi	r24, 0x01	; 1
     cc0:	90 e0       	ldi	r25, 0x00	; 0
     cc2:	bc dd       	rcall	.-1160   	; 0x83c <_Z11EEPROM_readj>
     cc4:	c9 e9       	ldi	r28, 0x99	; 153
     cc6:	d5 e0       	ldi	r29, 0x05	; 5
     cc8:	8c 83       	std	Y+4, r24	; 0x04
    	param.discret2              = EEPROM_read(EE_DISCKRET2);;
     cca:	82 e0       	ldi	r24, 0x02	; 2
     ccc:	90 e0       	ldi	r25, 0x00	; 0
     cce:	b6 dd       	rcall	.-1172   	; 0x83c <_Z11EEPROM_readj>
     cd0:	8d 83       	std	Y+5, r24	; 0x05
    	param.discret3              = EEPROM_read(EE_DISCKRET3);;
     cd2:	83 e0       	ldi	r24, 0x03	; 3
     cd4:	90 e0       	ldi	r25, 0x00	; 0
     cd6:	b2 dd       	rcall	.-1180   	; 0x83c <_Z11EEPROM_readj>
     cd8:	8e 83       	std	Y+6, r24	; 0x06
    	param.sill1                 = EEPROM_read_32t(EE_SILL1);
     cda:	84 e0       	ldi	r24, 0x04	; 4
     cdc:	90 e0       	ldi	r25, 0x00	; 0
     cde:	b7 dd       	rcall	.-1170   	; 0x84e <_Z15EEPROM_read_32tj>
     ce0:	6f 83       	std	Y+7, r22	; 0x07
     ce2:	78 87       	std	Y+8, r23	; 0x08
     ce4:	89 87       	std	Y+9, r24	; 0x09
     ce6:	9a 87       	std	Y+10, r25	; 0x0a
    	param.sill2                 = EEPROM_read_32t(EE_SILL2);
     ce8:	88 e0       	ldi	r24, 0x08	; 8
     cea:	90 e0       	ldi	r25, 0x00	; 0
     cec:	b0 dd       	rcall	.-1184   	; 0x84e <_Z15EEPROM_read_32tj>
     cee:	6b 87       	std	Y+11, r22	; 0x0b
     cf0:	7c 87       	std	Y+12, r23	; 0x0c
     cf2:	8d 87       	std	Y+13, r24	; 0x0d
     cf4:	9e 87       	std	Y+14, r25	; 0x0e
    	param.NPV                   = EEPROM_read_32t(EE_NPV);
     cf6:	84 e1       	ldi	r24, 0x14	; 20
     cf8:	90 e0       	ldi	r25, 0x00	; 0
     cfa:	a9 dd       	rcall	.-1198   	; 0x84e <_Z15EEPROM_read_32tj>
     cfc:	69 8b       	std	Y+17, r22	; 0x11
     cfe:	7a 8b       	std	Y+18, r23	; 0x12
     d00:	8b 8b       	std	Y+19, r24	; 0x13
     d02:	9c 8b       	std	Y+20, r25	; 0x14
    	param.sensor_number         = EEPROM_read(EE_SENNUMBER);
     d04:	8c e0       	ldi	r24, 0x0C	; 12
     d06:	90 e0       	ldi	r25, 0x00	; 0
     d08:	99 dd       	rcall	.-1230   	; 0x83c <_Z11EEPROM_readj>
     d0a:	8f 87       	std	Y+15, r24	; 0x0f
    	param.tip_cd                = EEPROM_read(EE_TIPCD);
     d0c:	8d e0       	ldi	r24, 0x0D	; 13
     d0e:	90 e0       	ldi	r25, 0x00	; 0
     d10:	95 dd       	rcall	.-1238   	; 0x83c <_Z11EEPROM_readj>
     d12:	88 8b       	std	Y+16, r24	; 0x10
    	param.baud1                 = EEPROM_read(EE_BAUD1);
     d14:	8e e0       	ldi	r24, 0x0E	; 14
     d16:	90 e0       	ldi	r25, 0x00	; 0
     d18:	91 dd       	rcall	.-1246   	; 0x83c <_Z11EEPROM_readj>
     d1a:	8d 8b       	std	Y+21, r24	; 0x15
    	param.baud2                 = EEPROM_read(EE_BAUD2);
     d1c:	8f e0       	ldi	r24, 0x0F	; 15
     d1e:	90 e0       	ldi	r25, 0x00	; 0
     d20:	8d dd       	rcall	.-1254   	; 0x83c <_Z11EEPROM_readj>
     d22:	8e 8b       	std	Y+22, r24	; 0x16
    	param.protokol1             = EEPROM_read(EE_PROTOCOL1);
     d24:	80 e1       	ldi	r24, 0x10	; 16
     d26:	90 e0       	ldi	r25, 0x00	; 0
     d28:	89 dd       	rcall	.-1262   	; 0x83c <_Z11EEPROM_readj>
     d2a:	8f 8b       	std	Y+23, r24	; 0x17
    	param.protokol2             = EEPROM_read(EE_PROTOCOL2);
     d2c:	81 e1       	ldi	r24, 0x11	; 17
     d2e:	90 e0       	ldi	r25, 0x00	; 0
     d30:	85 dd       	rcall	.-1270   	; 0x83c <_Z11EEPROM_readj>
     d32:	88 8f       	std	Y+24, r24	; 0x18
    	param.lighte                = EEPROM_read(EE_LIGHT);
     d34:	80 e0       	ldi	r24, 0x00	; 0
     d36:	90 e0       	ldi	r25, 0x00	; 0
     d38:	81 dd       	rcall	.-1278   	; 0x83c <_Z11EEPROM_readj>
     d3a:	8a 8f       	std	Y+26, r24	; 0x1a
     d3c:	82 e1       	ldi	r24, 0x12	; 18
    	param.filtr                 = EEPROM_read(EE_FILTR);
     d3e:	90 e0       	ldi	r25, 0x00	; 0
     d40:	7d dd       	rcall	.-1286   	; 0x83c <_Z11EEPROM_readj>
     d42:	89 8f       	std	Y+25, r24	; 0x19
     d44:	88 e1       	ldi	r24, 0x18	; 24
    	param.calib_koef            = EEPROM_read_float(EE_KALIBKOEF);
     d46:	90 e0       	ldi	r25, 0x00	; 0
     d48:	0a de       	rcall	.-1004   	; 0x95e <_Z17EEPROM_read_floatj>
     d4a:	6f 8f       	std	Y+31, r22	; 0x1f
     d4c:	78 a3       	std	Y+32, r23	; 0x20
     d4e:	89 a3       	std	Y+33, r24	; 0x21
     d50:	9a a3       	std	Y+34, r25	; 0x22
     d52:	8c e1       	ldi	r24, 0x1C	; 28
        param.err36                 = EEPROM_read(EE_ERRPR36);
     d54:	90 e0       	ldi	r25, 0x00	; 0
     d56:	72 dd       	rcall	.-1308   	; 0x83c <_Z11EEPROM_readj>
     d58:	8c 8f       	std	Y+28, r24	; 0x1c
     d5a:	80 e2       	ldi	r24, 0x20	; 32
        param.caunter_weight        = EEPROM_read_32t(EE_CAUNTERVEIGHT);
     d5c:	90 e0       	ldi	r25, 0x00	; 0
     d5e:	77 dd       	rcall	.-1298   	; 0x84e <_Z15EEPROM_read_32tj>
     d60:	68 83       	st	Y, r22
     d62:	79 83       	std	Y+1, r23	; 0x01
     d64:	8a 83       	std	Y+2, r24	; 0x02
     d66:	9b 83       	std	Y+3, r25	; 0x03
        param.tim_stab              = EEPROM_read(EE_TIM_STAB);
     d68:	88 e8       	ldi	r24, 0x88	; 136
     d6a:	90 e0       	ldi	r25, 0x00	; 0
     d6c:	67 dd       	rcall	.-1330   	; 0x83c <_Z11EEPROM_readj>
     d6e:	8d 8f       	std	Y+29, r24	; 0x1d
        param.of_adc                = EEPROM_read(EE_OF_ADC);
     d70:	89 e8       	ldi	r24, 0x89	; 137
     d72:	90 e0       	ldi	r25, 0x00	; 0
     d74:	63 dd       	rcall	.-1338   	; 0x83c <_Z11EEPROM_readj>
     d76:	8e 8f       	std	Y+30, r24	; 0x1e
        param.data_err              = EEPROM_read_32t(EE_DATE1);
     d78:	80 e0       	ldi	r24, 0x00	; 0
     d7a:	91 e0       	ldi	r25, 0x01	; 1
     d7c:	68 dd       	rcall	.-1328   	; 0x84e <_Z15EEPROM_read_32tj>
     d7e:	78 a7       	std	Y+40, r23	; 0x28
     d80:	6f a3       	std	Y+39, r22	; 0x27
        param.mount_err             = EEPROM_read_32t(EE_MOUNT1);
     d82:	84 e0       	ldi	r24, 0x04	; 4
     d84:	91 e0       	ldi	r25, 0x01	; 1
     d86:	63 dd       	rcall	.-1338   	; 0x84e <_Z15EEPROM_read_32tj>
     d88:	7a a7       	std	Y+42, r23	; 0x2a
     d8a:	69 a7       	std	Y+41, r22	; 0x29
     d8c:	88 e0       	ldi	r24, 0x08	; 8
        param.year_err              = EEPROM_read_32t(EE_YEAR1);
     d8e:	91 e0       	ldi	r25, 0x01	; 1
     d90:	5e dd       	rcall	.-1348   	; 0x84e <_Z15EEPROM_read_32tj>
     d92:	7c a7       	std	Y+44, r23	; 0x2c
     d94:	6b a7       	std	Y+43, r22	; 0x2b
     d96:	8c e0       	ldi	r24, 0x0C	; 12
        param.pasw_err              = EEPROM_read_32t(EE_PSWRD1);
     d98:	91 e0       	ldi	r25, 0x01	; 1
     d9a:	59 dd       	rcall	.-1358   	; 0x84e <_Z15EEPROM_read_32tj>
     d9c:	6b a3       	std	Y+35, r22	; 0x23
     d9e:	7c a3       	std	Y+36, r23	; 0x24
     da0:	8d a3       	std	Y+37, r24	; 0x25
     da2:	9e a3       	std	Y+38, r25	; 0x26
     da4:	88 e2       	ldi	r24, 0x28	; 40
        
             //----------metrology----------//       
        metrology.koef_sensor1      = EEPROM_read_float(EE_KALIBSENSOR1);
     da6:	90 e0       	ldi	r25, 0x00	; 0
     da8:	da dd       	rcall	.-1100   	; 0x95e <_Z17EEPROM_read_floatj>
     daa:	c5 e0       	ldi	r28, 0x05	; 5
     dac:	d5 e0       	ldi	r29, 0x05	; 5
     dae:	6c 83       	std	Y+4, r22	; 0x04
     db0:	7d 83       	std	Y+5, r23	; 0x05
     db2:	8e 83       	std	Y+6, r24	; 0x06
     db4:	9f 83       	std	Y+7, r25	; 0x07
     db6:	8c e2       	ldi	r24, 0x2C	; 44
        metrology.koef_sensor2      = EEPROM_read_float(EE_KALIBSENSOR2);
     db8:	90 e0       	ldi	r25, 0x00	; 0
     dba:	d1 dd       	rcall	.-1118   	; 0x95e <_Z17EEPROM_read_floatj>
     dbc:	68 8b       	std	Y+16, r22	; 0x10
     dbe:	79 8b       	std	Y+17, r23	; 0x11
     dc0:	8a 8b       	std	Y+18, r24	; 0x12
     dc2:	9b 8b       	std	Y+19, r25	; 0x13
     dc4:	80 e3       	ldi	r24, 0x30	; 48
        metrology.koef_sensor3      = EEPROM_read_float(EE_KALIBSENSOR3);
     dc6:	90 e0       	ldi	r25, 0x00	; 0
     dc8:	ca dd       	rcall	.-1132   	; 0x95e <_Z17EEPROM_read_floatj>
     dca:	6c 8f       	std	Y+28, r22	; 0x1c
     dcc:	7d 8f       	std	Y+29, r23	; 0x1d
     dce:	8e 8f       	std	Y+30, r24	; 0x1e
     dd0:	9f 8f       	std	Y+31, r25	; 0x1f
     dd2:	84 e3       	ldi	r24, 0x34	; 52
     dd4:	90 e0       	ldi	r25, 0x00	; 0
        metrology.koef_sensor4      = EEPROM_read_float(EE_KALIBSENSOR4);
     dd6:	c3 dd       	rcall	.-1146   	; 0x95e <_Z17EEPROM_read_floatj>
     dd8:	68 a7       	std	Y+40, r22	; 0x28
     dda:	79 a7       	std	Y+41, r23	; 0x29
     ddc:	8a a7       	std	Y+42, r24	; 0x2a
     dde:	9b a7       	std	Y+43, r25	; 0x2b
     de0:	88 e3       	ldi	r24, 0x38	; 56
     de2:	90 e0       	ldi	r25, 0x00	; 0
        metrology.koef_sensor5      = EEPROM_read_float(EE_KALIBSENSOR5);
     de4:	bc dd       	rcall	.-1160   	; 0x95e <_Z17EEPROM_read_floatj>
     de6:	6c ab       	std	Y+52, r22	; 0x34
     de8:	7d ab       	std	Y+53, r23	; 0x35
     dea:	8e ab       	std	Y+54, r24	; 0x36
     dec:	9f ab       	std	Y+55, r25	; 0x37
     dee:	8c e3       	ldi	r24, 0x3C	; 60
     df0:	90 e0       	ldi	r25, 0x00	; 0
        metrology.koef_sensor6      = EEPROM_read_float(EE_KALIBSENSOR6);
     df2:	b5 dd       	rcall	.-1174   	; 0x95e <_Z17EEPROM_read_floatj>
     df4:	60 93 45 05 	sts	0x0545, r22	; 0x800545 <metrology+0x40>
     df8:	70 93 46 05 	sts	0x0546, r23	; 0x800546 <metrology+0x41>
     dfc:	80 93 47 05 	sts	0x0547, r24	; 0x800547 <metrology+0x42>
     e00:	90 93 48 05 	sts	0x0548, r25	; 0x800548 <metrology+0x43>
     e04:	80 e4       	ldi	r24, 0x40	; 64
     e06:	90 e0       	ldi	r25, 0x00	; 0
        metrology.koef_sensor7      = EEPROM_read_float(EE_KALIBSENSOR7);
     e08:	aa dd       	rcall	.-1196   	; 0x95e <_Z17EEPROM_read_floatj>
     e0a:	60 93 51 05 	sts	0x0551, r22	; 0x800551 <metrology+0x4c>
     e0e:	70 93 52 05 	sts	0x0552, r23	; 0x800552 <metrology+0x4d>
     e12:	80 93 53 05 	sts	0x0553, r24	; 0x800553 <metrology+0x4e>
     e16:	90 93 54 05 	sts	0x0554, r25	; 0x800554 <metrology+0x4f>
     e1a:	84 e4       	ldi	r24, 0x44	; 68
     e1c:	90 e0       	ldi	r25, 0x00	; 0
        metrology.koef_sensor8      = EEPROM_read_float(EE_KALIBSENSOR8);
     e1e:	9f dd       	rcall	.-1218   	; 0x95e <_Z17EEPROM_read_floatj>
     e20:	60 93 5d 05 	sts	0x055D, r22	; 0x80055d <metrology+0x58>
     e24:	70 93 5e 05 	sts	0x055E, r23	; 0x80055e <metrology+0x59>
     e28:	80 93 5f 05 	sts	0x055F, r24	; 0x80055f <metrology+0x5a>
     e2c:	90 93 60 05 	sts	0x0560, r25	; 0x800560 <metrology+0x5b>
     e30:	88 e4       	ldi	r24, 0x48	; 72
     e32:	90 e0       	ldi	r25, 0x00	; 0
        metrology.koef_sensor9      = EEPROM_read_float(EE_KALIBSENSOR9);
     e34:	94 dd       	rcall	.-1240   	; 0x95e <_Z17EEPROM_read_floatj>
     e36:	60 93 69 05 	sts	0x0569, r22	; 0x800569 <metrology+0x64>
     e3a:	70 93 6a 05 	sts	0x056A, r23	; 0x80056a <metrology+0x65>
     e3e:	80 93 6b 05 	sts	0x056B, r24	; 0x80056b <metrology+0x66>
     e42:	90 93 6c 05 	sts	0x056C, r25	; 0x80056c <metrology+0x67>
     e46:	8c e4       	ldi	r24, 0x4C	; 76
     e48:	90 e0       	ldi	r25, 0x00	; 0
        metrology.koef_sensor10     = EEPROM_read_float(EE_KALIBSENSOR10);
     e4a:	89 dd       	rcall	.-1262   	; 0x95e <_Z17EEPROM_read_floatj>
     e4c:	60 93 75 05 	sts	0x0575, r22	; 0x800575 <metrology+0x70>
     e50:	70 93 76 05 	sts	0x0576, r23	; 0x800576 <metrology+0x71>
     e54:	80 93 77 05 	sts	0x0577, r24	; 0x800577 <metrology+0x72>
     e58:	90 93 78 05 	sts	0x0578, r25	; 0x800578 <metrology+0x73>
     e5c:	80 e5       	ldi	r24, 0x50	; 80
        metrology.koef_sensor11     = EEPROM_read_float(EE_KALIBSENSOR11);
     e5e:	90 e0       	ldi	r25, 0x00	; 0
     e60:	7e dd       	rcall	.-1284   	; 0x95e <_Z17EEPROM_read_floatj>
     e62:	60 93 81 05 	sts	0x0581, r22	; 0x800581 <metrology+0x7c>
     e66:	70 93 82 05 	sts	0x0582, r23	; 0x800582 <metrology+0x7d>
     e6a:	80 93 83 05 	sts	0x0583, r24	; 0x800583 <metrology+0x7e>
     e6e:	90 93 84 05 	sts	0x0584, r25	; 0x800584 <metrology+0x7f>
     e72:	84 e5       	ldi	r24, 0x54	; 84
        metrology.koef_sensor12     = EEPROM_read_float(EE_KALIBSENSOR12);
     e74:	90 e0       	ldi	r25, 0x00	; 0
     e76:	73 dd       	rcall	.-1306   	; 0x95e <_Z17EEPROM_read_floatj>
     e78:	60 93 8d 05 	sts	0x058D, r22	; 0x80058d <metrology+0x88>
     e7c:	70 93 8e 05 	sts	0x058E, r23	; 0x80058e <metrology+0x89>
     e80:	80 93 8f 05 	sts	0x058F, r24	; 0x80058f <metrology+0x8a>
     e84:	90 93 90 05 	sts	0x0590, r25	; 0x800590 <metrology+0x8b>
        
        metrology.cod_zero_sensor1  = EEPROM_read_32t(EE_ZEROSENS1);
     e88:	88 e5       	ldi	r24, 0x58	; 88
     e8a:	90 e0       	ldi	r25, 0x00	; 0
     e8c:	e0 dc       	rcall	.-1600   	; 0x84e <_Z15EEPROM_read_32tj>
     e8e:	68 87       	std	Y+8, r22	; 0x08
     e90:	79 87       	std	Y+9, r23	; 0x09
     e92:	8a 87       	std	Y+10, r24	; 0x0a
     e94:	9b 87       	std	Y+11, r25	; 0x0b
        metrology.cod_zero_sensor2  = EEPROM_read_32t(EE_ZEROSENS2);
     e96:	8c e5       	ldi	r24, 0x5C	; 92
     e98:	90 e0       	ldi	r25, 0x00	; 0
     e9a:	d9 dc       	rcall	.-1614   	; 0x84e <_Z15EEPROM_read_32tj>
     e9c:	6c 8b       	std	Y+20, r22	; 0x14
     e9e:	7d 8b       	std	Y+21, r23	; 0x15
     ea0:	8e 8b       	std	Y+22, r24	; 0x16
     ea2:	9f 8b       	std	Y+23, r25	; 0x17
        metrology.cod_zero_sensor3  = EEPROM_read_32t(EE_ZEROSENS3);
     ea4:	80 e6       	ldi	r24, 0x60	; 96
     ea6:	90 e0       	ldi	r25, 0x00	; 0
     ea8:	d2 dc       	rcall	.-1628   	; 0x84e <_Z15EEPROM_read_32tj>
     eaa:	68 a3       	std	Y+32, r22	; 0x20
     eac:	79 a3       	std	Y+33, r23	; 0x21
     eae:	8a a3       	std	Y+34, r24	; 0x22
     eb0:	9b a3       	std	Y+35, r25	; 0x23
     eb2:	84 e6       	ldi	r24, 0x64	; 100
        metrology.cod_zero_sensor4  = EEPROM_read_32t(EE_ZEROSENS4);
     eb4:	90 e0       	ldi	r25, 0x00	; 0
     eb6:	cb dc       	rcall	.-1642   	; 0x84e <_Z15EEPROM_read_32tj>
     eb8:	6c a7       	std	Y+44, r22	; 0x2c
     eba:	7d a7       	std	Y+45, r23	; 0x2d
     ebc:	8e a7       	std	Y+46, r24	; 0x2e
     ebe:	9f a7       	std	Y+47, r25	; 0x2f
     ec0:	88 e6       	ldi	r24, 0x68	; 104
        metrology.cod_zero_sensor5  = EEPROM_read_32t(EE_ZEROSENS5);
     ec2:	90 e0       	ldi	r25, 0x00	; 0
     ec4:	c4 dc       	rcall	.-1656   	; 0x84e <_Z15EEPROM_read_32tj>
     ec6:	68 af       	std	Y+56, r22	; 0x38
     ec8:	79 af       	std	Y+57, r23	; 0x39
     eca:	8a af       	std	Y+58, r24	; 0x3a
     ecc:	9b af       	std	Y+59, r25	; 0x3b
     ece:	8c e6       	ldi	r24, 0x6C	; 108
        metrology.cod_zero_sensor6  = EEPROM_read_32t(EE_ZEROSENS6);
     ed0:	90 e0       	ldi	r25, 0x00	; 0
     ed2:	bd dc       	rcall	.-1670   	; 0x84e <_Z15EEPROM_read_32tj>
     ed4:	60 93 49 05 	sts	0x0549, r22	; 0x800549 <metrology+0x44>
     ed8:	70 93 4a 05 	sts	0x054A, r23	; 0x80054a <metrology+0x45>
     edc:	80 93 4b 05 	sts	0x054B, r24	; 0x80054b <metrology+0x46>
     ee0:	90 93 4c 05 	sts	0x054C, r25	; 0x80054c <metrology+0x47>
     ee4:	80 e7       	ldi	r24, 0x70	; 112
        metrology.cod_zero_sensor7  = EEPROM_read_32t(EE_ZEROSENS7);
     ee6:	90 e0       	ldi	r25, 0x00	; 0
     ee8:	b2 dc       	rcall	.-1692   	; 0x84e <_Z15EEPROM_read_32tj>
     eea:	60 93 55 05 	sts	0x0555, r22	; 0x800555 <metrology+0x50>
     eee:	70 93 56 05 	sts	0x0556, r23	; 0x800556 <metrology+0x51>
     ef2:	80 93 57 05 	sts	0x0557, r24	; 0x800557 <metrology+0x52>
     ef6:	90 93 58 05 	sts	0x0558, r25	; 0x800558 <metrology+0x53>
     efa:	84 e7       	ldi	r24, 0x74	; 116
        metrology.cod_zero_sensor8  = EEPROM_read_32t(EE_ZEROSENS8);
     efc:	90 e0       	ldi	r25, 0x00	; 0
     efe:	a7 dc       	rcall	.-1714   	; 0x84e <_Z15EEPROM_read_32tj>
     f00:	60 93 61 05 	sts	0x0561, r22	; 0x800561 <metrology+0x5c>
     f04:	70 93 62 05 	sts	0x0562, r23	; 0x800562 <metrology+0x5d>
     f08:	80 93 63 05 	sts	0x0563, r24	; 0x800563 <metrology+0x5e>
     f0c:	90 93 64 05 	sts	0x0564, r25	; 0x800564 <metrology+0x5f>
     f10:	88 e7       	ldi	r24, 0x78	; 120
        metrology.cod_zero_sensor9  = EEPROM_read_32t(EE_ZEROSENS9);
     f12:	90 e0       	ldi	r25, 0x00	; 0
     f14:	9c dc       	rcall	.-1736   	; 0x84e <_Z15EEPROM_read_32tj>
     f16:	60 93 6d 05 	sts	0x056D, r22	; 0x80056d <metrology+0x68>
     f1a:	70 93 6e 05 	sts	0x056E, r23	; 0x80056e <metrology+0x69>
     f1e:	80 93 6f 05 	sts	0x056F, r24	; 0x80056f <metrology+0x6a>
     f22:	90 93 70 05 	sts	0x0570, r25	; 0x800570 <metrology+0x6b>
     f26:	8c e7       	ldi	r24, 0x7C	; 124
     f28:	90 e0       	ldi	r25, 0x00	; 0
        metrology.cod_zero_sensor10 = EEPROM_read_32t(EE_ZEROSENS10);
     f2a:	91 dc       	rcall	.-1758   	; 0x84e <_Z15EEPROM_read_32tj>
     f2c:	60 93 79 05 	sts	0x0579, r22	; 0x800579 <metrology+0x74>
     f30:	70 93 7a 05 	sts	0x057A, r23	; 0x80057a <metrology+0x75>
     f34:	80 93 7b 05 	sts	0x057B, r24	; 0x80057b <metrology+0x76>
     f38:	90 93 7c 05 	sts	0x057C, r25	; 0x80057c <metrology+0x77>
     f3c:	80 e8       	ldi	r24, 0x80	; 128
     f3e:	90 e0       	ldi	r25, 0x00	; 0
     f40:	86 dc       	rcall	.-1780   	; 0x84e <_Z15EEPROM_read_32tj>
        metrology.cod_zero_sensor11 = EEPROM_read_32t(EE_ZEROSENS11);
     f42:	60 93 85 05 	sts	0x0585, r22	; 0x800585 <metrology+0x80>
     f46:	70 93 86 05 	sts	0x0586, r23	; 0x800586 <metrology+0x81>
     f4a:	80 93 87 05 	sts	0x0587, r24	; 0x800587 <metrology+0x82>
     f4e:	90 93 88 05 	sts	0x0588, r25	; 0x800588 <metrology+0x83>
     f52:	84 e8       	ldi	r24, 0x84	; 132
     f54:	90 e0       	ldi	r25, 0x00	; 0
     f56:	7b dc       	rcall	.-1802   	; 0x84e <_Z15EEPROM_read_32tj>
     f58:	60 93 91 05 	sts	0x0591, r22	; 0x800591 <metrology+0x8c>
        metrology.cod_zero_sensor12 = EEPROM_read_32t(EE_ZEROSENS12);
     f5c:	70 93 92 05 	sts	0x0592, r23	; 0x800592 <metrology+0x8d>
     f60:	80 93 93 05 	sts	0x0593, r24	; 0x800593 <metrology+0x8e>
     f64:	90 93 94 05 	sts	0x0594, r25	; 0x800594 <metrology+0x8f>
     f68:	df 91       	pop	r29
     f6a:	cf 91       	pop	r28
     f6c:	08 95       	ret

00000f6e <_Z10init_err36v>:
     f6e:	60 e0       	ldi	r22, 0x00	; 0
     f70:	8c e1       	ldi	r24, 0x1C	; 28
        
}
     f72:	90 e0       	ldi	r25, 0x00	; 0
     f74:	59 dc       	rcall	.-1870   	; 0x828 <_Z12EEPROM_writejh>
     f76:	41 e0       	ldi	r20, 0x01	; 1

void init_err36 (void)                                      // с помощью спец пароля можно сбросить ерр36 (для разработчиков) 
{
     EEPROM_write(EE_ERRPR36,0);
     EEPROM_write_32t(EE_DATE1, 01);
     f78:	50 e0       	ldi	r21, 0x00	; 0
     f7a:	60 e0       	ldi	r22, 0x00	; 0
     f7c:	70 e0       	ldi	r23, 0x00	; 0
     f7e:	80 e0       	ldi	r24, 0x00	; 0
     f80:	91 e0       	ldi	r25, 0x01	; 1
     f82:	99 dc       	rcall	.-1742   	; 0x8b6 <_Z16EEPROM_write_32tjm>
     EEPROM_write_32t(EE_MOUNT1, 01);
     f84:	41 e0       	ldi	r20, 0x01	; 1
     f86:	50 e0       	ldi	r21, 0x00	; 0
     f88:	60 e0       	ldi	r22, 0x00	; 0
     f8a:	70 e0       	ldi	r23, 0x00	; 0
     f8c:	84 e0       	ldi	r24, 0x04	; 4
     f8e:	91 e0       	ldi	r25, 0x01	; 1
     f90:	92 dc       	rcall	.-1756   	; 0x8b6 <_Z16EEPROM_write_32tjm>
     EEPROM_write_32t(EE_YEAR1, 99);
     f92:	43 e6       	ldi	r20, 0x63	; 99
     f94:	50 e0       	ldi	r21, 0x00	; 0
     f96:	60 e0       	ldi	r22, 0x00	; 0
     f98:	70 e0       	ldi	r23, 0x00	; 0
     f9a:	88 e0       	ldi	r24, 0x08	; 8
     f9c:	91 e0       	ldi	r25, 0x01	; 1
     f9e:	8b dc       	rcall	.-1770   	; 0x8b6 <_Z16EEPROM_write_32tjm>
     EEPROM_write_32t(EE_PSWRD1,888888);
     fa0:	48 e3       	ldi	r20, 0x38	; 56
     fa2:	50 e9       	ldi	r21, 0x90	; 144
     fa4:	6d e0       	ldi	r22, 0x0D	; 13
     fa6:	70 e0       	ldi	r23, 0x00	; 0
     fa8:	8c e0       	ldi	r24, 0x0C	; 12
     faa:	91 e0       	ldi	r25, 0x01	; 1
     fac:	84 cc       	rjmp	.-1784   	; 0x8b6 <_Z16EEPROM_write_32tjm>
     fae:	08 95       	ret

00000fb0 <_Z12write_no_payv>:
}

void write_no_pay (void)                                  // запись в еепром даты, месяца и года срабатывания блокировки                 
{
     fb0:	cf 93       	push	r28
     fb2:	df 93       	push	r29
   EEPROM_write_32t(EE_DATE1,param.data_err);
     fb4:	c9 e9       	ldi	r28, 0x99	; 153
     fb6:	d5 e0       	ldi	r29, 0x05	; 5
     fb8:	4f a1       	ldd	r20, Y+39	; 0x27
     fba:	58 a5       	ldd	r21, Y+40	; 0x28
     fbc:	60 e0       	ldi	r22, 0x00	; 0
     fbe:	70 e0       	ldi	r23, 0x00	; 0
     fc0:	80 e0       	ldi	r24, 0x00	; 0
     fc2:	91 e0       	ldi	r25, 0x01	; 1
     fc4:	78 dc       	rcall	.-1808   	; 0x8b6 <_Z16EEPROM_write_32tjm>
   EEPROM_write_32t(EE_MOUNT1,param.mount_err);
     fc6:	49 a5       	ldd	r20, Y+41	; 0x29
     fc8:	5a a5       	ldd	r21, Y+42	; 0x2a
     fca:	60 e0       	ldi	r22, 0x00	; 0
     fcc:	70 e0       	ldi	r23, 0x00	; 0
     fce:	84 e0       	ldi	r24, 0x04	; 4
     fd0:	91 e0       	ldi	r25, 0x01	; 1
     fd2:	71 dc       	rcall	.-1822   	; 0x8b6 <_Z16EEPROM_write_32tjm>
   EEPROM_write_32t(EE_YEAR1,param.year_err);  
     fd4:	4b a5       	ldd	r20, Y+43	; 0x2b
     fd6:	5c a5       	ldd	r21, Y+44	; 0x2c
     fd8:	60 e0       	ldi	r22, 0x00	; 0
     fda:	70 e0       	ldi	r23, 0x00	; 0
     fdc:	88 e0       	ldi	r24, 0x08	; 8
     fde:	91 e0       	ldi	r25, 0x01	; 1
     fe0:	6a dc       	rcall	.-1836   	; 0x8b6 <_Z16EEPROM_write_32tjm>
}
     fe2:	df 91       	pop	r29
     fe4:	cf 91       	pop	r28
     fe6:	08 95       	ret

00000fe8 <__vector_29>:
extern uint8_t tim_uart0, tim_uart2, tim_uart1, rx0_done,rx1_done, rx2_done;
extern uint8_t uart0_rx_caunter, uart1_rx_caunter, uart2_rx_caunter;
extern struct bool_date boolean;


ISR (ADC_vect){
     fe8:	1f 92       	push	r1
     fea:	0f 92       	push	r0
     fec:	0f b6       	in	r0, 0x3f	; 63
     fee:	0f 92       	push	r0
     ff0:	11 24       	eor	r1, r1
     ff2:	8f 93       	push	r24
     ff4:	9f 93       	push	r25
	adc = ADC;
     ff6:	80 91 78 00 	lds	r24, 0x0078	; 0x800078 <__TEXT_REGION_LENGTH__+0x7c0078>
     ffa:	90 91 79 00 	lds	r25, 0x0079	; 0x800079 <__TEXT_REGION_LENGTH__+0x7c0079>
     ffe:	90 93 3f 03 	sts	0x033F, r25	; 0x80033f <adc+0x1>
    1002:	80 93 3e 03 	sts	0x033E, r24	; 0x80033e <adc>
}
    1006:	9f 91       	pop	r25
    1008:	8f 91       	pop	r24
    100a:	0f 90       	pop	r0
    100c:	0f be       	out	0x3f, r0	; 63
    100e:	0f 90       	pop	r0
    1010:	1f 90       	pop	r1
    1012:	18 95       	reti

00001014 <__vector_23>:

ISR (TIMER0_OVF_vect){                  // 62 KГерц скорость срабатывания
    1014:	1f 92       	push	r1
    1016:	0f 92       	push	r0
    1018:	0f b6       	in	r0, 0x3f	; 63
    101a:	0f 92       	push	r0
    101c:	11 24       	eor	r1, r1
    101e:	0b b6       	in	r0, 0x3b	; 59
    1020:	0f 92       	push	r0
    1022:	2f 93       	push	r18
    1024:	8f 93       	push	r24
    1026:	9f 93       	push	r25
    1028:	ef 93       	push	r30
    102a:	ff 93       	push	r31
	if (buzer > 1) {buzer --; BZRON;}   
    102c:	80 91 3c 03 	lds	r24, 0x033C	; 0x80033c <_ZL5buzer>
    1030:	90 91 3d 03 	lds	r25, 0x033D	; 0x80033d <_ZL5buzer+0x1>
    1034:	02 97       	sbiw	r24, 0x02	; 2
    1036:	50 f0       	brcs	.+20     	; 0x104c <__vector_23+0x38>
    1038:	80 91 3c 03 	lds	r24, 0x033C	; 0x80033c <_ZL5buzer>
    103c:	90 91 3d 03 	lds	r25, 0x033D	; 0x80033d <_ZL5buzer+0x1>
    1040:	01 97       	sbiw	r24, 0x01	; 1
    1042:	90 93 3d 03 	sts	0x033D, r25	; 0x80033d <_ZL5buzer+0x1>
    1046:	80 93 3c 03 	sts	0x033C, r24	; 0x80033c <_ZL5buzer>
    104a:	5c 9a       	sbi	0x0b, 4	; 11
	if (buzer == 1) {buzer --; BZROFF;}
    104c:	80 91 3c 03 	lds	r24, 0x033C	; 0x80033c <_ZL5buzer>
    1050:	90 91 3d 03 	lds	r25, 0x033D	; 0x80033d <_ZL5buzer+0x1>
    1054:	01 97       	sbiw	r24, 0x01	; 1
    1056:	51 f4       	brne	.+20     	; 0x106c <__vector_23+0x58>
    1058:	80 91 3c 03 	lds	r24, 0x033C	; 0x80033c <_ZL5buzer>
    105c:	90 91 3d 03 	lds	r25, 0x033D	; 0x80033d <_ZL5buzer+0x1>
    1060:	01 97       	sbiw	r24, 0x01	; 1
    1062:	90 93 3d 03 	sts	0x033D, r25	; 0x80033d <_ZL5buzer+0x1>
    1066:	80 93 3c 03 	sts	0x033C, r24	; 0x80033c <_ZL5buzer>
    106a:	5c 98       	cbi	0x0b, 4	; 11
    
    if (err_buz && pic_buzer == 0) { pic_buzer = 14000; BZRON;}
    106c:	80 91 40 03 	lds	r24, 0x0340	; 0x800340 <err_buz>
    1070:	88 23       	and	r24, r24
    1072:	39 f0       	breq	.+14     	; 0x1082 <__vector_23+0x6e>
    1074:	80 91 3a 03 	lds	r24, 0x033A	; 0x80033a <_ZL9pic_buzer>
    1078:	90 91 3b 03 	lds	r25, 0x033B	; 0x80033b <_ZL9pic_buzer+0x1>
    107c:	89 2b       	or	r24, r25
    107e:	09 f4       	brne	.+2      	; 0x1082 <__vector_23+0x6e>
    1080:	ae c0       	rjmp	.+348    	; 0x11de <__vector_23+0x1ca>
    if (pic_buzer == 10000) {  BZROFF;} 
    1082:	80 91 3a 03 	lds	r24, 0x033A	; 0x80033a <_ZL9pic_buzer>
    1086:	90 91 3b 03 	lds	r25, 0x033B	; 0x80033b <_ZL9pic_buzer+0x1>
    108a:	80 31       	cpi	r24, 0x10	; 16
    108c:	97 42       	sbci	r25, 0x27	; 39
    108e:	09 f4       	brne	.+2      	; 0x1092 <__vector_23+0x7e>
    1090:	5c 98       	cbi	0x0b, 4	; 11
    if (pic_buzer == 7000) {  BZRON;}  
    1092:	80 91 3a 03 	lds	r24, 0x033A	; 0x80033a <_ZL9pic_buzer>
    1096:	90 91 3b 03 	lds	r25, 0x033B	; 0x80033b <_ZL9pic_buzer+0x1>
    109a:	88 35       	cpi	r24, 0x58	; 88
    109c:	9b 41       	sbci	r25, 0x1B	; 27
    109e:	09 f4       	brne	.+2      	; 0x10a2 <__vector_23+0x8e>
    10a0:	5c 9a       	sbi	0x0b, 4	; 11
    if (pic_buzer == 2000) {  BZROFF;}              
    10a2:	80 91 3a 03 	lds	r24, 0x033A	; 0x80033a <_ZL9pic_buzer>
    10a6:	90 91 3b 03 	lds	r25, 0x033B	; 0x80033b <_ZL9pic_buzer+0x1>
    10aa:	80 3d       	cpi	r24, 0xD0	; 208
    10ac:	97 40       	sbci	r25, 0x07	; 7
    10ae:	09 f4       	brne	.+2      	; 0x10b2 <__vector_23+0x9e>
    10b0:	5c 98       	cbi	0x0b, 4	; 11
    if (pic_buzer > 0) pic_buzer --;
    10b2:	80 91 3a 03 	lds	r24, 0x033A	; 0x80033a <_ZL9pic_buzer>
    10b6:	90 91 3b 03 	lds	r25, 0x033B	; 0x80033b <_ZL9pic_buzer+0x1>
    10ba:	89 2b       	or	r24, r25
    10bc:	49 f0       	breq	.+18     	; 0x10d0 <__vector_23+0xbc>
    10be:	80 91 3a 03 	lds	r24, 0x033A	; 0x80033a <_ZL9pic_buzer>
    10c2:	90 91 3b 03 	lds	r25, 0x033B	; 0x80033b <_ZL9pic_buzer+0x1>
    10c6:	01 97       	sbiw	r24, 0x01	; 1
    10c8:	90 93 3b 03 	sts	0x033B, r25	; 0x80033b <_ZL9pic_buzer+0x1>
    10cc:	80 93 3a 03 	sts	0x033A, r24	; 0x80033a <_ZL9pic_buzer>
    
	if (tim_3 > 0){ tim_3 --;}else {tim_3 = 15000;}  
    10d0:	80 91 32 03 	lds	r24, 0x0332	; 0x800332 <tim_3>
    10d4:	90 91 33 03 	lds	r25, 0x0333	; 0x800333 <tim_3+0x1>
    10d8:	89 2b       	or	r24, r25
    10da:	51 f0       	breq	.+20     	; 0x10f0 <__vector_23+0xdc>
    10dc:	80 91 32 03 	lds	r24, 0x0332	; 0x800332 <tim_3>
    10e0:	90 91 33 03 	lds	r25, 0x0333	; 0x800333 <tim_3+0x1>
    10e4:	01 97       	sbiw	r24, 0x01	; 1
    10e6:	90 93 33 03 	sts	0x0333, r25	; 0x800333 <tim_3+0x1>
    10ea:	80 93 32 03 	sts	0x0332, r24	; 0x800332 <tim_3>
    10ee:	06 c0       	rjmp	.+12     	; 0x10fc <__vector_23+0xe8>
    10f0:	88 e9       	ldi	r24, 0x98	; 152
    10f2:	9a e3       	ldi	r25, 0x3A	; 58
    10f4:	90 93 33 03 	sts	0x0333, r25	; 0x800333 <tim_3+0x1>
    10f8:	80 93 32 03 	sts	0x0332, r24	; 0x800332 <tim_3>
    if (tim_3 == 15000 ) {boolean.funck1 = true;}      
    10fc:	80 91 32 03 	lds	r24, 0x0332	; 0x800332 <tim_3>
    1100:	90 91 33 03 	lds	r25, 0x0333	; 0x800333 <tim_3+0x1>
    1104:	88 39       	cpi	r24, 0x98	; 152
    1106:	9a 43       	sbci	r25, 0x3A	; 58
    1108:	29 f4       	brne	.+10     	; 0x1114 <__vector_23+0x100>
    110a:	e9 e8       	ldi	r30, 0x89	; 137
    110c:	f6 e0       	ldi	r31, 0x06	; 6
    110e:	80 81       	ld	r24, Z
    1110:	80 61       	ori	r24, 0x10	; 16
    1112:	80 83       	st	Z, r24
    if (tim_3 == 10000 ) {boolean.funck2 = true;} 
    1114:	80 91 32 03 	lds	r24, 0x0332	; 0x800332 <tim_3>
    1118:	90 91 33 03 	lds	r25, 0x0333	; 0x800333 <tim_3+0x1>
    111c:	80 31       	cpi	r24, 0x10	; 16
    111e:	97 42       	sbci	r25, 0x27	; 39
    1120:	29 f4       	brne	.+10     	; 0x112c <__vector_23+0x118>
    1122:	e9 e8       	ldi	r30, 0x89	; 137
    1124:	f6 e0       	ldi	r31, 0x06	; 6
    1126:	80 81       	ld	r24, Z
    1128:	80 62       	ori	r24, 0x20	; 32
    112a:	80 83       	st	Z, r24
    if (tim_3 == 5000 )  {boolean.funck3 = true;}      
    112c:	80 91 32 03 	lds	r24, 0x0332	; 0x800332 <tim_3>
    1130:	90 91 33 03 	lds	r25, 0x0333	; 0x800333 <tim_3+0x1>
    1134:	88 38       	cpi	r24, 0x88	; 136
    1136:	93 41       	sbci	r25, 0x13	; 19
    1138:	29 f4       	brne	.+10     	; 0x1144 <__vector_23+0x130>
    113a:	e9 e8       	ldi	r30, 0x89	; 137
    113c:	f6 e0       	ldi	r31, 0x06	; 6
    113e:	80 81       	ld	r24, Z
    1140:	80 64       	ori	r24, 0x40	; 64
    1142:	80 83       	st	Z, r24
         
	if (tim_0 > 0) tim_0 --;
    1144:	80 91 38 03 	lds	r24, 0x0338	; 0x800338 <tim_0>
    1148:	90 91 39 03 	lds	r25, 0x0339	; 0x800339 <tim_0+0x1>
    114c:	89 2b       	or	r24, r25
    114e:	49 f0       	breq	.+18     	; 0x1162 <__vector_23+0x14e>
    1150:	80 91 38 03 	lds	r24, 0x0338	; 0x800338 <tim_0>
    1154:	90 91 39 03 	lds	r25, 0x0339	; 0x800339 <tim_0+0x1>
    1158:	01 97       	sbiw	r24, 0x01	; 1
    115a:	90 93 39 03 	sts	0x0339, r25	; 0x800339 <tim_0+0x1>
    115e:	80 93 38 03 	sts	0x0338, r24	; 0x800338 <tim_0>
	if (tim_1 > 0) tim_1 --;
    1162:	80 91 36 03 	lds	r24, 0x0336	; 0x800336 <tim_1>
    1166:	90 91 37 03 	lds	r25, 0x0337	; 0x800337 <tim_1+0x1>
    116a:	89 2b       	or	r24, r25
    116c:	49 f0       	breq	.+18     	; 0x1180 <__vector_23+0x16c>
    116e:	80 91 36 03 	lds	r24, 0x0336	; 0x800336 <tim_1>
    1172:	90 91 37 03 	lds	r25, 0x0337	; 0x800337 <tim_1+0x1>
    1176:	01 97       	sbiw	r24, 0x01	; 1
    1178:	90 93 37 03 	sts	0x0337, r25	; 0x800337 <tim_1+0x1>
    117c:	80 93 36 03 	sts	0x0336, r24	; 0x800336 <tim_1>
	if (tim_2 > 0) tim_2 --;
    1180:	80 91 34 03 	lds	r24, 0x0334	; 0x800334 <tim_2>
    1184:	90 91 35 03 	lds	r25, 0x0335	; 0x800335 <tim_2+0x1>
    1188:	89 2b       	or	r24, r25
    118a:	49 f0       	breq	.+18     	; 0x119e <__vector_23+0x18a>
    118c:	80 91 34 03 	lds	r24, 0x0334	; 0x800334 <tim_2>
    1190:	90 91 35 03 	lds	r25, 0x0335	; 0x800335 <tim_2+0x1>
    1194:	01 97       	sbiw	r24, 0x01	; 1
    1196:	90 93 35 03 	sts	0x0335, r25	; 0x800335 <tim_2+0x1>
    119a:	80 93 34 03 	sts	0x0334, r24	; 0x800334 <tim_2>
    //if (tim_4 > 0) tim_4 --;
    if (tim_5 > 0) tim_5 --;
    119e:	80 91 30 03 	lds	r24, 0x0330	; 0x800330 <tim_5>
    11a2:	90 91 31 03 	lds	r25, 0x0331	; 0x800331 <tim_5+0x1>
    11a6:	89 2b       	or	r24, r25
    11a8:	49 f0       	breq	.+18     	; 0x11bc <__vector_23+0x1a8>
    11aa:	80 91 30 03 	lds	r24, 0x0330	; 0x800330 <tim_5>
    11ae:	90 91 31 03 	lds	r25, 0x0331	; 0x800331 <tim_5+0x1>
    11b2:	01 97       	sbiw	r24, 0x01	; 1
    11b4:	90 93 31 03 	sts	0x0331, r25	; 0x800331 <tim_5+0x1>
    11b8:	80 93 30 03 	sts	0x0330, r24	; 0x800330 <tim_5>
    
	if (tim_uart2 < 150) {tim_uart2 ++;}
    11bc:	80 91 00 02 	lds	r24, 0x0200	; 0x800200 <__DATA_REGION_ORIGIN__>
    11c0:	86 39       	cpi	r24, 0x96	; 150
    11c2:	18 f4       	brcc	.+6      	; 0x11ca <__vector_23+0x1b6>
    11c4:	8f 5f       	subi	r24, 0xFF	; 255
    11c6:	80 93 00 02 	sts	0x0200, r24	; 0x800200 <__DATA_REGION_ORIGIN__>
    if (tim_uart2 == 90) { uart2_rx_caunter = 0; rx2_done = true; }  
    11ca:	80 91 00 02 	lds	r24, 0x0200	; 0x800200 <__DATA_REGION_ORIGIN__>
    11ce:	8a 35       	cpi	r24, 0x5A	; 90
    11d0:	71 f4       	brne	.+28     	; 0x11ee <__vector_23+0x1da>
    11d2:	10 92 ef 05 	sts	0x05EF, r1	; 0x8005ef <uart2_rx_caunter>
    11d6:	81 e0       	ldi	r24, 0x01	; 1
    11d8:	80 93 8f 06 	sts	0x068F, r24	; 0x80068f <rx2_done>
     
           
}
    11dc:	08 c0       	rjmp	.+16     	; 0x11ee <__vector_23+0x1da>

ISR (TIMER0_OVF_vect){                  // 62 KГерц скорость срабатывания
	if (buzer > 1) {buzer --; BZRON;}   
	if (buzer == 1) {buzer --; BZROFF;}
    
    if (err_buz && pic_buzer == 0) { pic_buzer = 14000; BZRON;}
    11de:	80 eb       	ldi	r24, 0xB0	; 176
    11e0:	96 e3       	ldi	r25, 0x36	; 54
    11e2:	90 93 3b 03 	sts	0x033B, r25	; 0x80033b <_ZL9pic_buzer+0x1>
    11e6:	80 93 3a 03 	sts	0x033A, r24	; 0x80033a <_ZL9pic_buzer>
    11ea:	5c 9a       	sbi	0x0b, 4	; 11
    11ec:	4a cf       	rjmp	.-364    	; 0x1082 <__vector_23+0x6e>
    
	if (tim_uart2 < 150) {tim_uart2 ++;}
    if (tim_uart2 == 90) { uart2_rx_caunter = 0; rx2_done = true; }  
     
           
}
    11ee:	ff 91       	pop	r31
    11f0:	ef 91       	pop	r30
    11f2:	9f 91       	pop	r25
    11f4:	8f 91       	pop	r24
    11f6:	2f 91       	pop	r18
    11f8:	0f 90       	pop	r0
    11fa:	0b be       	out	0x3b, r0	; 59
    11fc:	0f 90       	pop	r0
    11fe:	0f be       	out	0x3f, r0	; 63
    1200:	0f 90       	pop	r0
    1202:	1f 90       	pop	r1
    1204:	18 95       	reti

00001206 <__vector_20>:
     
     
}*/

ISR (TIMER1_OVF_vect)                 // 2,6 КГерц
{               
    1206:	1f 92       	push	r1
    1208:	0f 92       	push	r0
    120a:	0f b6       	in	r0, 0x3f	; 63
    120c:	0f 92       	push	r0
    120e:	11 24       	eor	r1, r1
    1210:	0b b6       	in	r0, 0x3b	; 59
    1212:	0f 92       	push	r0
    1214:	2f 93       	push	r18
    1216:	3f 93       	push	r19
    1218:	4f 93       	push	r20
    121a:	5f 93       	push	r21
    121c:	6f 93       	push	r22
    121e:	7f 93       	push	r23
    1220:	8f 93       	push	r24
    1222:	9f 93       	push	r25
    1224:	af 93       	push	r26
    1226:	bf 93       	push	r27
    1228:	ef 93       	push	r30
    122a:	ff 93       	push	r31
	TCNT1 = 0xE800;
    122c:	80 e0       	ldi	r24, 0x00	; 0
    122e:	98 ee       	ldi	r25, 0xE8	; 232
    1230:	90 93 85 00 	sts	0x0085, r25	; 0x800085 <__TEXT_REGION_LENGTH__+0x7c0085>
    1234:	80 93 84 00 	sts	0x0084, r24	; 0x800084 <__TEXT_REGION_LENGTH__+0x7c0084>
	skan_key ();
    1238:	54 d0       	rcall	.+168    	; 0x12e2 <_Z8skan_keyv>
	to_send_led();
    123a:	0e 94 38 1d 	call	0x3a70	; 0x3a70 <_Z11to_send_ledv>
	interupt_send ();
    123e:	0e 94 ee 1d 	call	0x3bdc	; 0x3bdc <_Z13interupt_sendv>
    if (tim_6 > 0) tim_6 --;
    1242:	80 91 2e 03 	lds	r24, 0x032E	; 0x80032e <tim_6>
    1246:	90 91 2f 03 	lds	r25, 0x032F	; 0x80032f <tim_6+0x1>
    124a:	89 2b       	or	r24, r25
    124c:	49 f0       	breq	.+18     	; 0x1260 <__vector_20+0x5a>
    124e:	80 91 2e 03 	lds	r24, 0x032E	; 0x80032e <tim_6>
    1252:	90 91 2f 03 	lds	r25, 0x032F	; 0x80032f <tim_6+0x1>
    1256:	01 97       	sbiw	r24, 0x01	; 1
    1258:	90 93 2f 03 	sts	0x032F, r25	; 0x80032f <tim_6+0x1>
    125c:	80 93 2e 03 	sts	0x032E, r24	; 0x80032e <tim_6>
    
	if (tim_uart0 < 100) {tim_uart0 ++;}
    1260:	80 91 02 02 	lds	r24, 0x0202	; 0x800202 <tim_uart0>
    1264:	84 36       	cpi	r24, 0x64	; 100
    1266:	18 f4       	brcc	.+6      	; 0x126e <__vector_20+0x68>
    1268:	8f 5f       	subi	r24, 0xFF	; 255
    126a:	80 93 02 02 	sts	0x0202, r24	; 0x800202 <tim_uart0>
	if (tim_uart0 == 99) { uart0_rx_caunter = 0; rx0_done = true; }    
    126e:	80 91 02 02 	lds	r24, 0x0202	; 0x800202 <tim_uart0>
    1272:	83 36       	cpi	r24, 0x63	; 99
    1274:	29 f4       	brne	.+10     	; 0x1280 <__vector_20+0x7a>
    1276:	10 92 f1 05 	sts	0x05F1, r1	; 0x8005f1 <uart0_rx_caunter>
    127a:	81 e0       	ldi	r24, 0x01	; 1
    127c:	80 93 91 06 	sts	0x0691, r24	; 0x800691 <rx0_done>
         
	if (tim_uart1 < 100) {tim_uart1 ++;}
    1280:	80 91 01 02 	lds	r24, 0x0201	; 0x800201 <tim_uart1>
    1284:	84 36       	cpi	r24, 0x64	; 100
    1286:	18 f4       	brcc	.+6      	; 0x128e <__vector_20+0x88>
    1288:	8f 5f       	subi	r24, 0xFF	; 255
    128a:	80 93 01 02 	sts	0x0201, r24	; 0x800201 <tim_uart1>
	if (tim_uart1 == 99) { uart1_rx_caunter = 0; rx1_done = true; }             
    128e:	80 91 01 02 	lds	r24, 0x0201	; 0x800201 <tim_uart1>
    1292:	83 36       	cpi	r24, 0x63	; 99
    1294:	29 f4       	brne	.+10     	; 0x12a0 <__vector_20+0x9a>
    1296:	10 92 f0 05 	sts	0x05F0, r1	; 0x8005f0 <uart1_rx_caunter>
    129a:	81 e0       	ldi	r24, 0x01	; 1
    129c:	80 93 90 06 	sts	0x0690, r24	; 0x800690 <rx1_done>
  
}
    12a0:	ff 91       	pop	r31
    12a2:	ef 91       	pop	r30
    12a4:	bf 91       	pop	r27
    12a6:	af 91       	pop	r26
    12a8:	9f 91       	pop	r25
    12aa:	8f 91       	pop	r24
    12ac:	7f 91       	pop	r23
    12ae:	6f 91       	pop	r22
    12b0:	5f 91       	pop	r21
    12b2:	4f 91       	pop	r20
    12b4:	3f 91       	pop	r19
    12b6:	2f 91       	pop	r18
    12b8:	0f 90       	pop	r0
    12ba:	0b be       	out	0x3b, r0	; 59
    12bc:	0f 90       	pop	r0
    12be:	0f be       	out	0x3f, r0	; 63
    12c0:	0f 90       	pop	r0
    12c2:	1f 90       	pop	r1
    12c4:	18 95       	reti

000012c6 <_Z6buzersj>:

void buzers (uint16_t tim)
{
    #ifndef DEBUG_MOD  
     if (pic_buzer == 0) {buzer = tim; } // если уже пищит то не пищать, чтоб звук не сбивался
    12c6:	20 91 3a 03 	lds	r18, 0x033A	; 0x80033a <_ZL9pic_buzer>
    12ca:	30 91 3b 03 	lds	r19, 0x033B	; 0x80033b <_ZL9pic_buzer+0x1>
    12ce:	23 2b       	or	r18, r19
    12d0:	21 f4       	brne	.+8      	; 0x12da <_Z6buzersj+0x14>
    12d2:	90 93 3d 03 	sts	0x033D, r25	; 0x80033d <_ZL5buzer+0x1>
    12d6:	80 93 3c 03 	sts	0x033C, r24	; 0x80033c <_ZL5buzer>
    12da:	08 95       	ret

000012dc <_Z12error_buzzerb>:
}

void error_buzzer (bool sig)
{
     #ifndef DEBUG_MOD 
     err_buz = sig;
    12dc:	80 93 40 03 	sts	0x0340, r24	; 0x800340 <err_buz>
    12e0:	08 95       	ret

000012e2 <_Z8skan_keyv>:

void skan_key (void)
{
	volatile static uint8_t last_key;
	volatile static uint16_t key_caunter;
	key = PINL;                                  // считываем в переменную порт кнопок  0x3F - везде плюсики
    12e2:	80 91 09 01 	lds	r24, 0x0109	; 0x800109 <__TEXT_REGION_LENGTH__+0x7c0109>
    12e6:	80 93 48 03 	sts	0x0348, r24	; 0x800348 <_ZL3key>
	if (key < 0x3F) {                            // если хоть какая то клавиша нажата то выполнится условие
    12ea:	80 91 48 03 	lds	r24, 0x0348	; 0x800348 <_ZL3key>
    12ee:	8f 33       	cpi	r24, 0x3F	; 63
    12f0:	50 f4       	brcc	.+20     	; 0x1306 <_Z8skan_keyv+0x24>
		key_caunter ++;                          // увеличиваем счетчик антидребезга
    12f2:	80 91 42 03 	lds	r24, 0x0342	; 0x800342 <_ZZ8skan_keyvE11key_caunter>
    12f6:	90 91 43 03 	lds	r25, 0x0343	; 0x800343 <_ZZ8skan_keyvE11key_caunter+0x1>
    12fa:	01 96       	adiw	r24, 0x01	; 1
    12fc:	90 93 43 03 	sts	0x0343, r25	; 0x800343 <_ZZ8skan_keyvE11key_caunter+0x1>
    1300:	80 93 42 03 	sts	0x0342, r24	; 0x800342 <_ZZ8skan_keyvE11key_caunter>
    1304:	0a c0       	rjmp	.+20     	; 0x131a <_Z8skan_keyv+0x38>
	}
	else{                                        // если ничего не нажато то сбрасываем все
		key_caunter = 0;
    1306:	10 92 43 03 	sts	0x0343, r1	; 0x800343 <_ZZ8skan_keyvE11key_caunter+0x1>
    130a:	10 92 42 03 	sts	0x0342, r1	; 0x800342 <_ZZ8skan_keyvE11key_caunter>
		push = false;
    130e:	10 92 46 03 	sts	0x0346, r1	; 0x800346 <_ZL4push>
		press_one = false;
    1312:	10 92 45 03 	sts	0x0345, r1	; 0x800345 <_ZL9press_one>
		speed_button = false;
    1316:	10 92 44 03 	sts	0x0344, r1	; 0x800344 <_ZL12speed_button>
	}
	if (last_key != key) {key_caunter = 0;push = false;super_speed = 0; press_one = false;speed_button = false;}   // если удерживали одну кнопку а затем нажали другую, то сбросить все счетчики и таймера, начать отсчет заново
    131a:	90 91 41 03 	lds	r25, 0x0341	; 0x800341 <_ZZ8skan_keyvE8last_key>
    131e:	80 91 48 03 	lds	r24, 0x0348	; 0x800348 <_ZL3key>
    1322:	98 17       	cp	r25, r24
    1324:	61 f0       	breq	.+24     	; 0x133e <_Z8skan_keyv+0x5c>
    1326:	10 92 43 03 	sts	0x0343, r1	; 0x800343 <_ZZ8skan_keyvE11key_caunter+0x1>
    132a:	10 92 42 03 	sts	0x0342, r1	; 0x800342 <_ZZ8skan_keyvE11key_caunter>
    132e:	10 92 46 03 	sts	0x0346, r1	; 0x800346 <_ZL4push>
    1332:	10 92 47 03 	sts	0x0347, r1	; 0x800347 <_ZL11super_speed>
    1336:	10 92 45 03 	sts	0x0345, r1	; 0x800345 <_ZL9press_one>
    133a:	10 92 44 03 	sts	0x0344, r1	; 0x800344 <_ZL12speed_button>
	last_key = key;                               // приравниваем новое значение к старому
    133e:	80 91 48 03 	lds	r24, 0x0348	; 0x800348 <_ZL3key>
    1342:	80 93 41 03 	sts	0x0341, r24	; 0x800341 <_ZZ8skan_keyvE8last_key>
	if (key_caunter == BOUNCE && !push) {push = true; buzers (1000); }       // если счетчик достиг значения антидребезга пикнуть, и сказать что произведено нажатие
    1346:	80 91 42 03 	lds	r24, 0x0342	; 0x800342 <_ZZ8skan_keyvE11key_caunter>
    134a:	90 91 43 03 	lds	r25, 0x0343	; 0x800343 <_ZZ8skan_keyvE11key_caunter+0x1>
    134e:	8c 3d       	cpi	r24, 0xDC	; 220
    1350:	91 05       	cpc	r25, r1
    1352:	21 f4       	brne	.+8      	; 0x135c <_Z8skan_keyv+0x7a>
    1354:	80 91 46 03 	lds	r24, 0x0346	; 0x800346 <_ZL4push>
    1358:	88 23       	and	r24, r24
    135a:	81 f0       	breq	.+32     	; 0x137c <_Z8skan_keyv+0x9a>
	if (long_state > 0) long_state --;            // отнимаем значение переменной ускоренного счета
    135c:	80 91 49 03 	lds	r24, 0x0349	; 0x800349 <_ZL10long_state>
    1360:	90 91 4a 03 	lds	r25, 0x034A	; 0x80034a <_ZL10long_state+0x1>
    1364:	89 2b       	or	r24, r25
    1366:	89 f0       	breq	.+34     	; 0x138a <_Z8skan_keyv+0xa8>
    1368:	80 91 49 03 	lds	r24, 0x0349	; 0x800349 <_ZL10long_state>
    136c:	90 91 4a 03 	lds	r25, 0x034A	; 0x80034a <_ZL10long_state+0x1>
    1370:	01 97       	sbiw	r24, 0x01	; 1
    1372:	90 93 4a 03 	sts	0x034A, r25	; 0x80034a <_ZL10long_state+0x1>
    1376:	80 93 49 03 	sts	0x0349, r24	; 0x800349 <_ZL10long_state>
	
}
    137a:	08 95       	ret
		press_one = false;
		speed_button = false;
	}
	if (last_key != key) {key_caunter = 0;push = false;super_speed = 0; press_one = false;speed_button = false;}   // если удерживали одну кнопку а затем нажали другую, то сбросить все счетчики и таймера, начать отсчет заново
	last_key = key;                               // приравниваем новое значение к старому
	if (key_caunter == BOUNCE && !push) {push = true; buzers (1000); }       // если счетчик достиг значения антидребезга пикнуть, и сказать что произведено нажатие
    137c:	81 e0       	ldi	r24, 0x01	; 1
    137e:	80 93 46 03 	sts	0x0346, r24	; 0x800346 <_ZL4push>
    1382:	88 ee       	ldi	r24, 0xE8	; 232
    1384:	93 e0       	ldi	r25, 0x03	; 3
    1386:	9f df       	rcall	.-194    	; 0x12c6 <_Z6buzersj>
    1388:	e9 cf       	rjmp	.-46     	; 0x135c <_Z8skan_keyv+0x7a>
    138a:	08 95       	ret

0000138c <_Z12button_pressh>:
}


uint8_t button_press (uint8_t button)            // функция проверки на нажатие 
{
	if 	(button == key && push && !press_one){   // если код кнопки совпадает с нажатой кнопкой и кнопка нажата и мы это еще не использовали
    138c:	90 91 48 03 	lds	r25, 0x0348	; 0x800348 <_ZL3key>
    1390:	98 13       	cpse	r25, r24
    1392:	0a c0       	rjmp	.+20     	; 0x13a8 <_Z12button_pressh+0x1c>
    1394:	80 91 46 03 	lds	r24, 0x0346	; 0x800346 <_ZL4push>
    1398:	88 23       	and	r24, r24
    139a:	41 f0       	breq	.+16     	; 0x13ac <_Z12button_pressh+0x20>
    139c:	80 91 45 03 	lds	r24, 0x0345	; 0x800345 <_ZL9press_one>
    13a0:	88 23       	and	r24, r24
    13a2:	31 f0       	breq	.+12     	; 0x13b0 <_Z12button_pressh+0x24>
		press_one = true;                         // поднимаем флаг чтоб больше сюда не заходить пока не отпустим кнопку
		long_state = 2500;                       // взводим таймер отсчета для удержания клавиш
		return 1;                                // возвращаем 1
	}
	else return 0;
    13a4:	80 e0       	ldi	r24, 0x00	; 0
    13a6:	08 95       	ret
    13a8:	80 e0       	ldi	r24, 0x00	; 0
    13aa:	08 95       	ret
    13ac:	80 e0       	ldi	r24, 0x00	; 0
    13ae:	08 95       	ret


uint8_t button_press (uint8_t button)            // функция проверки на нажатие 
{
	if 	(button == key && push && !press_one){   // если код кнопки совпадает с нажатой кнопкой и кнопка нажата и мы это еще не использовали
		press_one = true;                         // поднимаем флаг чтоб больше сюда не заходить пока не отпустим кнопку
    13b0:	81 e0       	ldi	r24, 0x01	; 1
    13b2:	80 93 45 03 	sts	0x0345, r24	; 0x800345 <_ZL9press_one>
		long_state = 2500;                       // взводим таймер отсчета для удержания клавиш
    13b6:	84 ec       	ldi	r24, 0xC4	; 196
    13b8:	99 e0       	ldi	r25, 0x09	; 9
    13ba:	90 93 4a 03 	sts	0x034A, r25	; 0x80034a <_ZL10long_state+0x1>
    13be:	80 93 49 03 	sts	0x0349, r24	; 0x800349 <_ZL10long_state>
		return 1;                                // возвращаем 1
    13c2:	81 e0       	ldi	r24, 0x01	; 1
	}
	else return 0;
	
}
    13c4:	08 95       	ret

000013c6 <_Z17button_long_pressh>:

uint8_t button_long_press (uint8_t button)                 // длительное нажатие
{
	if 	(button == key && push && long_state == 0 && !speed_button){       // если код кнопки совпадает с нажатой кнопкой и счетчик обратного отсчета = 0 и отключена скорость
    13c6:	90 91 48 03 	lds	r25, 0x0348	; 0x800348 <_ZL3key>
    13ca:	98 13       	cpse	r25, r24
    13cc:	37 c0       	rjmp	.+110    	; 0x143c <_Z17button_long_pressh+0x76>
    13ce:	90 91 46 03 	lds	r25, 0x0346	; 0x800346 <_ZL4push>
    13d2:	99 23       	and	r25, r25
    13d4:	99 f1       	breq	.+102    	; 0x143c <_Z17button_long_pressh+0x76>
    13d6:	20 91 49 03 	lds	r18, 0x0349	; 0x800349 <_ZL10long_state>
    13da:	30 91 4a 03 	lds	r19, 0x034A	; 0x80034a <_ZL10long_state+0x1>
    13de:	23 2b       	or	r18, r19
    13e0:	69 f5       	brne	.+90     	; 0x143c <_Z17button_long_pressh+0x76>
    13e2:	90 91 44 03 	lds	r25, 0x0344	; 0x800344 <_ZL12speed_button>
    13e6:	91 11       	cpse	r25, r1
    13e8:	29 c0       	rjmp	.+82     	; 0x143c <_Z17button_long_pressh+0x76>
    13ea:	1d c0       	rjmp	.+58     	; 0x1426 <_Z17button_long_pressh+0x60>
		long_state = LONG_BOUNCE;                                          // взводим таймер отсчета для удержания клавиш     
		if (super_speed == TIM_TO_SPEED) speed_button = true;              // если насчитали н-ное количество нажатий, поднимаем флаг что нужно ускорится
    13ec:	81 e0       	ldi	r24, 0x01	; 1
    13ee:	80 93 44 03 	sts	0x0344, r24	; 0x800344 <_ZL12speed_button>
		super_speed ++;                                                    // считаем количество нажатий
    13f2:	80 91 47 03 	lds	r24, 0x0347	; 0x800347 <_ZL11super_speed>
    13f6:	8f 5f       	subi	r24, 0xFF	; 255
    13f8:	80 93 47 03 	sts	0x0347, r24	; 0x800347 <_ZL11super_speed>
		return 1;
    13fc:	81 e0       	ldi	r24, 0x01	; 1
    13fe:	08 95       	ret
	}
	else if (button == key && push && long_state == 0 && speed_button){    // если все тоже самое и поднят флаг ускоренного перелистывания
    1400:	80 91 46 03 	lds	r24, 0x0346	; 0x800346 <_ZL4push>
    1404:	88 23       	and	r24, r24
    1406:	59 f0       	breq	.+22     	; 0x141e <_Z17button_long_pressh+0x58>
    1408:	80 91 49 03 	lds	r24, 0x0349	; 0x800349 <_ZL10long_state>
    140c:	90 91 4a 03 	lds	r25, 0x034A	; 0x80034a <_ZL10long_state+0x1>
    1410:	89 2b       	or	r24, r25
    1412:	39 f4       	brne	.+14     	; 0x1422 <_Z17button_long_pressh+0x5c>
    1414:	80 91 44 03 	lds	r24, 0x0344	; 0x800344 <_ZL12speed_button>
    1418:	81 11       	cpse	r24, r1
    141a:	16 c0       	rjmp	.+44     	; 0x1448 <_Z17button_long_pressh+0x82>
    141c:	08 95       	ret
		long_state = SPEED_BOUNCE;                                         // в таймер загружаем другое значение и начинаем быстрее перемещатся 
		return 1;
	}
	else return 0;
    141e:	80 e0       	ldi	r24, 0x00	; 0
    1420:	08 95       	ret
    1422:	80 e0       	ldi	r24, 0x00	; 0
    1424:	08 95       	ret
}

uint8_t button_long_press (uint8_t button)                 // длительное нажатие
{
	if 	(button == key && push && long_state == 0 && !speed_button){       // если код кнопки совпадает с нажатой кнопкой и счетчик обратного отсчета = 0 и отключена скорость
		long_state = LONG_BOUNCE;                                          // взводим таймер отсчета для удержания клавиш     
    1426:	88 ec       	ldi	r24, 0xC8	; 200
    1428:	90 e0       	ldi	r25, 0x00	; 0
    142a:	90 93 4a 03 	sts	0x034A, r25	; 0x80034a <_ZL10long_state+0x1>
    142e:	80 93 49 03 	sts	0x0349, r24	; 0x800349 <_ZL10long_state>
		if (super_speed == TIM_TO_SPEED) speed_button = true;              // если насчитали н-ное количество нажатий, поднимаем флаг что нужно ускорится
    1432:	80 91 47 03 	lds	r24, 0x0347	; 0x800347 <_ZL11super_speed>
    1436:	88 30       	cpi	r24, 0x08	; 8
    1438:	e1 f6       	brne	.-72     	; 0x13f2 <_Z17button_long_pressh+0x2c>
    143a:	d8 cf       	rjmp	.-80     	; 0x13ec <_Z17button_long_pressh+0x26>
		super_speed ++;                                                    // считаем количество нажатий
		return 1;
	}
	else if (button == key && push && long_state == 0 && speed_button){    // если все тоже самое и поднят флаг ускоренного перелистывания
    143c:	90 91 48 03 	lds	r25, 0x0348	; 0x800348 <_ZL3key>
    1440:	89 17       	cp	r24, r25
    1442:	f1 f2       	breq	.-68     	; 0x1400 <_Z17button_long_pressh+0x3a>
		long_state = SPEED_BOUNCE;                                         // в таймер загружаем другое значение и начинаем быстрее перемещатся 
		return 1;
	}
	else return 0;
    1444:	80 e0       	ldi	r24, 0x00	; 0
    1446:	08 95       	ret
		if (super_speed == TIM_TO_SPEED) speed_button = true;              // если насчитали н-ное количество нажатий, поднимаем флаг что нужно ускорится
		super_speed ++;                                                    // считаем количество нажатий
		return 1;
	}
	else if (button == key && push && long_state == 0 && speed_button){    // если все тоже самое и поднят флаг ускоренного перелистывания
		long_state = SPEED_BOUNCE;                                         // в таймер загружаем другое значение и начинаем быстрее перемещатся 
    1448:	8a e0       	ldi	r24, 0x0A	; 10
    144a:	90 e0       	ldi	r25, 0x00	; 0
    144c:	90 93 4a 03 	sts	0x034A, r25	; 0x80034a <_ZL10long_state+0x1>
    1450:	80 93 49 03 	sts	0x0349, r24	; 0x800349 <_ZL10long_state>
		return 1;
    1454:	81 e0       	ldi	r24, 0x01	; 1
	}
	else return 0;
	
    1456:	08 95       	ret

00001458 <_Z11adc_read_ofv>:
                                                                      
    }
}

void adc_read_of (void)
{
    1458:	cf 93       	push	r28
    145a:	df 93       	push	r29
    static uint8_t caunt_filtr;            // счетчик перемещения по кейсам
    static uint16_t adc_filtr;             // итоговая переменная
	static uint16_t filtr_adc [10];        // создали дабл переменную для хранения промежуточного вычисления
    if (adc > 800 ) {send_point (4);} else {send_non_point(4);}   // зажечь или погасить светик сети можно менять при каком коде 
    145c:	80 91 3e 03 	lds	r24, 0x033E	; 0x80033e <adc>
    1460:	90 91 3f 03 	lds	r25, 0x033F	; 0x80033f <adc+0x1>
    1464:	81 32       	cpi	r24, 0x21	; 33
    1466:	93 40       	sbci	r25, 0x03	; 3
    1468:	20 f0       	brcs	.+8      	; 0x1472 <_Z11adc_read_ofv+0x1a>
    146a:	84 e0       	ldi	r24, 0x04	; 4
    146c:	0e 94 ce 1d 	call	0x3b9c	; 0x3b9c <_Z10send_pointh>
    1470:	03 c0       	rjmp	.+6      	; 0x1478 <_Z11adc_read_ofv+0x20>
    1472:	84 e0       	ldi	r24, 0x04	; 4
    1474:	0e 94 dc 1d 	call	0x3bb8	; 0x3bb8 <_Z14send_non_pointh>
    if (param.of_adc){                                            // если вкл параметр отключения при разряде
    1478:	80 91 b7 05 	lds	r24, 0x05B7	; 0x8005b7 <param+0x1e>
    147c:	88 23       	and	r24, r24
    147e:	09 f4       	brne	.+2      	; 0x1482 <_Z11adc_read_ofv+0x2a>
    1480:	7b c0       	rjmp	.+246    	; 0x1578 <_Z11adc_read_ofv+0x120>
    filtr_adc [caunt_filtr] = adc;                                // бегущее среднее
    1482:	40 91 41 04 	lds	r20, 0x0441	; 0x800441 <_ZZ11adc_read_ofvE11caunt_filtr>
    1486:	e4 2f       	mov	r30, r20
    1488:	f0 e0       	ldi	r31, 0x00	; 0
    148a:	ee 0f       	add	r30, r30
    148c:	ff 1f       	adc	r31, r31
    148e:	e3 5d       	subi	r30, 0xD3	; 211
    1490:	fb 4f       	sbci	r31, 0xFB	; 251
    1492:	80 91 3e 03 	lds	r24, 0x033E	; 0x80033e <adc>
    1496:	90 91 3f 03 	lds	r25, 0x033F	; 0x80033f <adc+0x1>
    149a:	91 83       	std	Z+1, r25	; 0x01
    149c:	80 83       	st	Z, r24
    149e:	20 91 2b 04 	lds	r18, 0x042B	; 0x80042b <_ZZ11adc_read_ofvE9adc_filtr>
    14a2:	30 91 2c 04 	lds	r19, 0x042C	; 0x80042c <_ZZ11adc_read_ofvE9adc_filtr+0x1>
    14a6:	ed e2       	ldi	r30, 0x2D	; 45
    14a8:	f4 e0       	ldi	r31, 0x04	; 4
    14aa:	61 e4       	ldi	r22, 0x41	; 65
    14ac:	74 e0       	ldi	r23, 0x04	; 4
    for (int i = 0; i < 10; i ++) { adc_filtr += filtr_adc[i];} 
    14ae:	81 91       	ld	r24, Z+
    14b0:	91 91       	ld	r25, Z+
    14b2:	28 0f       	add	r18, r24
    14b4:	39 1f       	adc	r19, r25
    14b6:	e6 17       	cp	r30, r22
    14b8:	f7 07       	cpc	r31, r23
    14ba:	c9 f7       	brne	.-14     	; 0x14ae <_Z11adc_read_ofv+0x56>
	adc_filtr =  adc_filtr / 10;             
    14bc:	ad ec       	ldi	r26, 0xCD	; 205
    14be:	bc ec       	ldi	r27, 0xCC	; 204
    14c0:	0e 94 ea 44 	call	0x89d4	; 0x89d4 <__umulhisi3>
    14c4:	96 95       	lsr	r25
    14c6:	87 95       	ror	r24
    14c8:	96 95       	lsr	r25
    14ca:	87 95       	ror	r24
    14cc:	96 95       	lsr	r25
    14ce:	87 95       	ror	r24
    14d0:	90 93 2c 04 	sts	0x042C, r25	; 0x80042c <_ZZ11adc_read_ofvE9adc_filtr+0x1>
    14d4:	80 93 2b 04 	sts	0x042B, r24	; 0x80042b <_ZZ11adc_read_ofvE9adc_filtr>
    caunt_filtr ++;
    14d8:	4f 5f       	subi	r20, 0xFF	; 255
    if (caunt_filtr == 10 )  caunt_filtr = 0; 
    14da:	4a 30       	cpi	r20, 0x0A	; 10
    14dc:	19 f0       	breq	.+6      	; 0x14e4 <_Z11adc_read_ofv+0x8c>
    if (adc > 800 ) {send_point (4);} else {send_non_point(4);}   // зажечь или погасить светик сети можно менять при каком коде 
    if (param.of_adc){                                            // если вкл параметр отключения при разряде
    filtr_adc [caunt_filtr] = adc;                                // бегущее среднее
    for (int i = 0; i < 10; i ++) { adc_filtr += filtr_adc[i];} 
	adc_filtr =  adc_filtr / 10;             
    caunt_filtr ++;
    14de:	40 93 41 04 	sts	0x0441, r20	; 0x800441 <_ZZ11adc_read_ofvE11caunt_filtr>
    14e2:	02 c0       	rjmp	.+4      	; 0x14e8 <_Z11adc_read_ofv+0x90>
    if (caunt_filtr == 10 )  caunt_filtr = 0; 
    14e4:	10 92 41 04 	sts	0x0441, r1	; 0x800441 <_ZZ11adc_read_ofvE11caunt_filtr>
    if (adc_filtr > 640 && boolean.start_delay) { boolean.err_adc = false;}  // если больше 640 то все ок
    14e8:	81 38       	cpi	r24, 0x81	; 129
    14ea:	22 e0       	ldi	r18, 0x02	; 2
    14ec:	92 07       	cpc	r25, r18
    14ee:	40 f0       	brcs	.+16     	; 0x1500 <_Z11adc_read_ofv+0xa8>
    14f0:	20 91 88 06 	lds	r18, 0x0688	; 0x800688 <boolean+0x1>
    14f4:	22 23       	and	r18, r18
    14f6:	d4 f4       	brge	.+52     	; 0x152c <_Z11adc_read_ofv+0xd4>
    14f8:	e8 e8       	ldi	r30, 0x88	; 136
    14fa:	f6 e0       	ldi	r31, 0x06	; 6
    14fc:	2f 7b       	andi	r18, 0xBF	; 191
    14fe:	20 83       	st	Z, r18
    if (adc_filtr <= 630 && boolean.start_delay) { boolean.err_adc = !boolean.err_adc; error_buzzer(boolean.err_adc);  } // меньше 630 уже разряд
    1500:	87 37       	cpi	r24, 0x77	; 119
    1502:	92 40       	sbci	r25, 0x02	; 2
    1504:	98 f4       	brcc	.+38     	; 0x152c <_Z11adc_read_ofv+0xd4>
    1506:	80 91 88 06 	lds	r24, 0x0688	; 0x800688 <boolean+0x1>
    150a:	88 23       	and	r24, r24
    150c:	7c f4       	brge	.+30     	; 0x152c <_Z11adc_read_ofv+0xd4>
    150e:	86 fb       	bst	r24, 6
    1510:	88 27       	eor	r24, r24
    1512:	80 f9       	bld	r24, 0
    1514:	91 e0       	ldi	r25, 0x01	; 1
    1516:	89 27       	eor	r24, r25
    1518:	e8 e8       	ldi	r30, 0x88	; 136
    151a:	f6 e0       	ldi	r31, 0x06	; 6
    151c:	90 81       	ld	r25, Z
    151e:	80 fb       	bst	r24, 0
    1520:	96 f9       	bld	r25, 6
    1522:	90 83       	st	Z, r25
    1524:	96 fb       	bst	r25, 6
    1526:	88 27       	eor	r24, r24
    1528:	80 f9       	bld	r24, 0
    152a:	d8 de       	rcall	.-592    	; 0x12dc <_Z12error_buzzerb>
    #ifndef DEBUG_MOD                                                                                                    // в дебаге не выключать прибор
    if (adc_filtr < 580 && filtr_adc[9] !=0 ) { while(1) {sprintf(send_buf, " -OFF-" ); _delay_ms(500); LMOFF; TENZO_OFF;}}  // меньше 580 выключить нафиг
    152c:	80 91 2b 04 	lds	r24, 0x042B	; 0x80042b <_ZZ11adc_read_ofvE9adc_filtr>
    1530:	90 91 2c 04 	lds	r25, 0x042C	; 0x80042c <_ZZ11adc_read_ofvE9adc_filtr+0x1>
    1534:	84 34       	cpi	r24, 0x44	; 68
    1536:	92 40       	sbci	r25, 0x02	; 2
    1538:	f8 f4       	brcc	.+62     	; 0x1578 <_Z11adc_read_ofv+0x120>
    153a:	80 91 3f 04 	lds	r24, 0x043F	; 0x80043f <_ZZ11adc_read_ofvE9filtr_adc+0x12>
    153e:	90 91 40 04 	lds	r25, 0x0440	; 0x800440 <_ZZ11adc_read_ofvE9filtr_adc+0x13>
    1542:	89 2b       	or	r24, r25
    1544:	c9 f0       	breq	.+50     	; 0x1578 <_Z11adc_read_ofv+0x120>
    1546:	c5 e0       	ldi	r28, 0x05	; 5
    1548:	d1 e0       	ldi	r29, 0x01	; 1
    154a:	87 e0       	ldi	r24, 0x07	; 7
    154c:	e3 e0       	ldi	r30, 0x03	; 3
    154e:	f2 e0       	ldi	r31, 0x02	; 2
    1550:	ac e8       	ldi	r26, 0x8C	; 140
    1552:	b4 e0       	ldi	r27, 0x04	; 4
    1554:	01 90       	ld	r0, Z+
    1556:	0d 92       	st	X+, r0
    1558:	8a 95       	dec	r24
    155a:	e1 f7       	brne	.-8      	; 0x1554 <_Z11adc_read_ofv+0xfc>
	#else
		//round up by default
		__ticks_dc = (uint32_t)(ceil(fabs(__tmp)));
	#endif

	__builtin_avr_delay_cycles(__ticks_dc);
    155c:	8f ef       	ldi	r24, 0xFF	; 255
    155e:	99 e6       	ldi	r25, 0x69	; 105
    1560:	28 e1       	ldi	r18, 0x18	; 24
    1562:	81 50       	subi	r24, 0x01	; 1
    1564:	90 40       	sbci	r25, 0x00	; 0
    1566:	20 40       	sbci	r18, 0x00	; 0
    1568:	e1 f7       	brne	.-8      	; 0x1562 <_Z11adc_read_ofv+0x10a>
    156a:	00 c0       	rjmp	.+0      	; 0x156c <_Z11adc_read_ofv+0x114>
    156c:	00 00       	nop
    156e:	88 81       	ld	r24, Y
    1570:	8f 7d       	andi	r24, 0xDF	; 223
    1572:	88 83       	st	Y, r24
    1574:	a5 98       	cbi	0x14, 5	; 20
    1576:	e9 cf       	rjmp	.-46     	; 0x154a <_Z11adc_read_ofv+0xf2>
    #endif     
    }             
}
    1578:	df 91       	pop	r29
    157a:	cf 91       	pop	r28
    157c:	08 95       	ret

0000157e <_Z11err_and_ledv>:

void err_and_led (void)      // отслеживаем ошибки и если они есть гасим светики и бузер
{
     if (boolean.errors || boolean.npv || boolean.main_menu_bool || param.err36 || boolean.err_adc) {if(!boolean.led_in_menu ) {led_led();}} 
    157e:	80 91 87 06 	lds	r24, 0x0687	; 0x800687 <boolean>
    1582:	80 fd       	sbrc	r24, 0
    1584:	0f c0       	rjmp	.+30     	; 0x15a4 <_Z11err_and_ledv+0x26>
    1586:	80 91 89 06 	lds	r24, 0x0689	; 0x800689 <boolean+0x2>
    158a:	80 fd       	sbrc	r24, 0
    158c:	1e c0       	rjmp	.+60     	; 0x15ca <_Z11err_and_ledv+0x4c>
    158e:	90 91 88 06 	lds	r25, 0x0688	; 0x800688 <boolean+0x1>
    1592:	90 fd       	sbrc	r25, 0
    1594:	17 c0       	rjmp	.+46     	; 0x15c4 <_Z11err_and_ledv+0x46>
    1596:	20 91 b5 05 	lds	r18, 0x05B5	; 0x8005b5 <param+0x1c>
    159a:	21 11       	cpse	r18, r1
    159c:	13 c0       	rjmp	.+38     	; 0x15c4 <_Z11err_and_ledv+0x46>
    159e:	96 fd       	sbrc	r25, 6
    15a0:	17 c0       	rjmp	.+46     	; 0x15d0 <_Z11err_and_ledv+0x52>
    15a2:	0d c0       	rjmp	.+26     	; 0x15be <_Z11err_and_ledv+0x40>
    15a4:	80 91 89 06 	lds	r24, 0x0689	; 0x800689 <boolean+0x2>
    15a8:	81 ff       	sbrs	r24, 1
    15aa:	0e 94 eb 1d 	call	0x3bd6	; 0x3bd6 <_Z7led_ledv>
     if (!boolean.npv && !boolean.err_adc ) {error_buzzer(false);}    
    15ae:	80 91 89 06 	lds	r24, 0x0689	; 0x800689 <boolean+0x2>
    15b2:	80 fd       	sbrc	r24, 0
    15b4:	0f c0       	rjmp	.+30     	; 0x15d4 <_Z11err_and_ledv+0x56>
    15b6:	80 91 88 06 	lds	r24, 0x0688	; 0x800688 <boolean+0x1>
    15ba:	86 fd       	sbrc	r24, 6
    15bc:	0b c0       	rjmp	.+22     	; 0x15d4 <_Z11err_and_ledv+0x56>
    15be:	80 e0       	ldi	r24, 0x00	; 0
    15c0:	8d ce       	rjmp	.-742    	; 0x12dc <_Z12error_buzzerb>
}
    15c2:	08 95       	ret
    }             
}

void err_and_led (void)      // отслеживаем ошибки и если они есть гасим светики и бузер
{
     if (boolean.errors || boolean.npv || boolean.main_menu_bool || param.err36 || boolean.err_adc) {if(!boolean.led_in_menu ) {led_led();}} 
    15c4:	81 fd       	sbrc	r24, 1
    15c6:	f7 cf       	rjmp	.-18     	; 0x15b6 <_Z11err_and_ledv+0x38>
    15c8:	f0 cf       	rjmp	.-32     	; 0x15aa <_Z11err_and_ledv+0x2c>
    15ca:	81 fd       	sbrc	r24, 1
    15cc:	03 c0       	rjmp	.+6      	; 0x15d4 <_Z11err_and_ledv+0x56>
    15ce:	ed cf       	rjmp	.-38     	; 0x15aa <_Z11err_and_ledv+0x2c>
    15d0:	81 ff       	sbrs	r24, 1
    15d2:	eb cf       	rjmp	.-42     	; 0x15aa <_Z11err_and_ledv+0x2c>
    15d4:	08 95       	ret

000015d6 <_Z23converting_cod_to_massav>:
          if (!tim_6) {tim_6 = 5000; if (eror_sens_up < param.sensor_number) {eror_sens_up ++; } else {eror_sens_up = 1; } buzers (1000);}
     }
}

void converting_cod_to_massa (void)
{
    15d6:	3f 92       	push	r3
    15d8:	4f 92       	push	r4
    15da:	5f 92       	push	r5
    15dc:	6f 92       	push	r6
    15de:	7f 92       	push	r7
    15e0:	8f 92       	push	r8
    15e2:	9f 92       	push	r9
    15e4:	af 92       	push	r10
    15e6:	bf 92       	push	r11
    15e8:	cf 92       	push	r12
    15ea:	df 92       	push	r13
    15ec:	ef 92       	push	r14
    15ee:	ff 92       	push	r15
    15f0:	0f 93       	push	r16
    15f2:	1f 93       	push	r17
    15f4:	cf 93       	push	r28
    15f6:	df 93       	push	r29
    15f8:	cd b7       	in	r28, 0x3d	; 61
    15fa:	de b7       	in	r29, 0x3e	; 62
    15fc:	c9 56       	subi	r28, 0x69	; 105
    15fe:	d1 09       	sbc	r29, r1
    1600:	0f b6       	in	r0, 0x3f	; 63
    1602:	f8 94       	cli
    1604:	de bf       	out	0x3e, r29	; 62
    1606:	0f be       	out	0x3f, r0	; 63
    1608:	cd bf       	out	0x3d, r28	; 61
     while (1)  //логика следующая, попадаем в вайл, и летим по нему пока не встретим бряк, а он зависит от того сколько выбрано датчиков
     {
          filtr.sens1 = (((metrology.cod_sensor1 - metrology.cod_zero_sensor1) * metrology.koef_sensor1) + 0.5);
    160a:	05 e0       	ldi	r16, 0x05	; 5
    160c:	15 e0       	ldi	r17, 0x05	; 5
    160e:	f8 01       	movw	r30, r16
    1610:	84 85       	ldd	r24, Z+12	; 0x0c
    1612:	95 85       	ldd	r25, Z+13	; 0x0d
    1614:	a6 85       	ldd	r26, Z+14	; 0x0e
    1616:	b7 85       	ldd	r27, Z+15	; 0x0f
    1618:	c0 84       	ldd	r12, Z+8	; 0x08
    161a:	d1 84       	ldd	r13, Z+9	; 0x09
    161c:	e2 84       	ldd	r14, Z+10	; 0x0a
    161e:	f3 84       	ldd	r15, Z+11	; 0x0b
    1620:	bc 01       	movw	r22, r24
    1622:	cd 01       	movw	r24, r26
    1624:	6c 19       	sub	r22, r12
    1626:	7d 09       	sbc	r23, r13
    1628:	8e 09       	sbc	r24, r14
    162a:	9f 09       	sbc	r25, r15
    162c:	0e 94 7e 43 	call	0x86fc	; 0x86fc <__floatsisf>
    1630:	d8 01       	movw	r26, r16
    1632:	14 96       	adiw	r26, 0x04	; 4
    1634:	2d 91       	ld	r18, X+
    1636:	3d 91       	ld	r19, X+
    1638:	4d 91       	ld	r20, X+
    163a:	5c 91       	ld	r21, X
    163c:	17 97       	sbiw	r26, 0x07	; 7
    163e:	0e 94 32 44 	call	0x8864	; 0x8864 <__mulsf3>
    1642:	20 e0       	ldi	r18, 0x00	; 0
    1644:	30 e0       	ldi	r19, 0x00	; 0
    1646:	40 e0       	ldi	r20, 0x00	; 0
    1648:	5f e3       	ldi	r21, 0x3F	; 63
    164a:	0e 94 7b 42 	call	0x84f6	; 0x84f6 <__addsf3>
    164e:	0e 94 4b 43 	call	0x8696	; 0x8696 <__fixsfsi>
    1652:	a5 96       	adiw	r28, 0x25	; 37
    1654:	6c af       	std	Y+60, r22	; 0x3c
    1656:	7d af       	std	Y+61, r23	; 0x3d
    1658:	8e af       	std	Y+62, r24	; 0x3e
    165a:	9f af       	std	Y+63, r25	; 0x3f
    165c:	a5 97       	sbiw	r28, 0x25	; 37
          filtr.sens2 = (((metrology.cod_sensor2 - metrology.cod_zero_sensor2) * metrology.koef_sensor2) + 0.5);
    165e:	f8 01       	movw	r30, r16
    1660:	80 8d       	ldd	r24, Z+24	; 0x18
    1662:	91 8d       	ldd	r25, Z+25	; 0x19
    1664:	a2 8d       	ldd	r26, Z+26	; 0x1a
    1666:	b3 8d       	ldd	r27, Z+27	; 0x1b
    1668:	c4 88       	ldd	r12, Z+20	; 0x14
    166a:	d5 88       	ldd	r13, Z+21	; 0x15
    166c:	e6 88       	ldd	r14, Z+22	; 0x16
    166e:	f7 88       	ldd	r15, Z+23	; 0x17
    1670:	bc 01       	movw	r22, r24
    1672:	cd 01       	movw	r24, r26
    1674:	6c 19       	sub	r22, r12
    1676:	7d 09       	sbc	r23, r13
    1678:	8e 09       	sbc	r24, r14
    167a:	9f 09       	sbc	r25, r15
    167c:	0e 94 7e 43 	call	0x86fc	; 0x86fc <__floatsisf>
    1680:	d8 01       	movw	r26, r16
    1682:	50 96       	adiw	r26, 0x10	; 16
    1684:	2d 91       	ld	r18, X+
    1686:	3d 91       	ld	r19, X+
    1688:	4d 91       	ld	r20, X+
    168a:	5c 91       	ld	r21, X
    168c:	53 97       	sbiw	r26, 0x13	; 19
    168e:	0e 94 32 44 	call	0x8864	; 0x8864 <__mulsf3>
    1692:	20 e0       	ldi	r18, 0x00	; 0
    1694:	30 e0       	ldi	r19, 0x00	; 0
    1696:	40 e0       	ldi	r20, 0x00	; 0
    1698:	5f e3       	ldi	r21, 0x3F	; 63
    169a:	0e 94 7b 42 	call	0x84f6	; 0x84f6 <__addsf3>
    169e:	0e 94 4b 43 	call	0x8696	; 0x8696 <__fixsfsi>
    16a2:	a9 96       	adiw	r28, 0x29	; 41
    16a4:	6c af       	std	Y+60, r22	; 0x3c
    16a6:	7d af       	std	Y+61, r23	; 0x3d
    16a8:	8e af       	std	Y+62, r24	; 0x3e
    16aa:	9f af       	std	Y+63, r25	; 0x3f
    16ac:	a9 97       	sbiw	r28, 0x29	; 41
          if(param.sensor_number == 2){ massa = filtr.sens1 + filtr.sens2;  break;}
    16ae:	30 90 a8 05 	lds	r3, 0x05A8	; 0x8005a8 <param+0xf>

          filtr.sens3 = (((metrology.cod_sensor3 - metrology.cod_zero_sensor3) * metrology.koef_sensor3) + 0.5);
    16b2:	f8 01       	movw	r30, r16
    16b4:	c0 a0       	ldd	r12, Z+32	; 0x20
    16b6:	d1 a0       	ldd	r13, Z+33	; 0x21
    16b8:	e2 a0       	ldd	r14, Z+34	; 0x22
    16ba:	f3 a0       	ldd	r15, Z+35	; 0x23
    16bc:	84 a1       	ldd	r24, Z+36	; 0x24
    16be:	95 a1       	ldd	r25, Z+37	; 0x25
    16c0:	a6 a1       	ldd	r26, Z+38	; 0x26
    16c2:	b7 a1       	ldd	r27, Z+39	; 0x27
    16c4:	2c 01       	movw	r4, r24
    16c6:	3d 01       	movw	r6, r26
    16c8:	4c 18       	sub	r4, r12
    16ca:	5d 08       	sbc	r5, r13
    16cc:	6e 08       	sbc	r6, r14
    16ce:	7f 08       	sbc	r7, r15
    16d0:	49 a6       	std	Y+41, r4	; 0x29
    16d2:	5a a6       	std	Y+42, r5	; 0x2a
    16d4:	6b a6       	std	Y+43, r6	; 0x2b
    16d6:	7c a6       	std	Y+44, r7	; 0x2c
    16d8:	d8 01       	movw	r26, r16
    16da:	44 8c       	ldd	r4, Z+28	; 0x1c
    16dc:	55 8c       	ldd	r5, Z+29	; 0x1d
    16de:	66 8c       	ldd	r6, Z+30	; 0x1e
    16e0:	77 8c       	ldd	r7, Z+31	; 0x1f
    16e2:	49 82       	std	Y+1, r4	; 0x01
    16e4:	5a 82       	std	Y+2, r5	; 0x02
    16e6:	6b 82       	std	Y+3, r6	; 0x03
    16e8:	7c 82       	std	Y+4, r7	; 0x04
    16ea:	e2 e4       	ldi	r30, 0x42	; 66
    16ec:	f4 e0       	ldi	r31, 0x04	; 4
    16ee:	40 84       	ldd	r4, Z+8	; 0x08
    16f0:	51 84       	ldd	r5, Z+9	; 0x09
    16f2:	62 84       	ldd	r6, Z+10	; 0x0a
    16f4:	73 84       	ldd	r7, Z+11	; 0x0b
    16f6:	49 8a       	std	Y+17, r4	; 0x11
    16f8:	5a 8a       	std	Y+18, r5	; 0x12
    16fa:	6b 8a       	std	Y+19, r6	; 0x13
    16fc:	7c 8a       	std	Y+20, r7	; 0x14
          filtr.sens4 = (((metrology.cod_sensor4 - metrology.cod_zero_sensor4) * metrology.koef_sensor4) + 0.5);
    16fe:	9c 96       	adiw	r26, 0x2c	; 44
    1700:	4d 91       	ld	r20, X+
    1702:	5d 91       	ld	r21, X+
    1704:	6d 91       	ld	r22, X+
    1706:	7c 91       	ld	r23, X
    1708:	9f 97       	sbiw	r26, 0x2f	; 47
    170a:	d0 96       	adiw	r26, 0x30	; 48
    170c:	8d 90       	ld	r8, X+
    170e:	9d 90       	ld	r9, X+
    1710:	ad 90       	ld	r10, X+
    1712:	bc 90       	ld	r11, X
    1714:	d3 97       	sbiw	r26, 0x33	; 51
    1716:	24 01       	movw	r4, r8
    1718:	35 01       	movw	r6, r10
    171a:	44 1a       	sub	r4, r20
    171c:	55 0a       	sbc	r5, r21
    171e:	66 0a       	sbc	r6, r22
    1720:	77 0a       	sbc	r7, r23
    1722:	4d a6       	std	Y+45, r4	; 0x2d
    1724:	5e a6       	std	Y+46, r5	; 0x2e
    1726:	6f a6       	std	Y+47, r6	; 0x2f
    1728:	78 aa       	std	Y+48, r7	; 0x30
    172a:	98 96       	adiw	r26, 0x28	; 40
    172c:	4d 90       	ld	r4, X+
    172e:	5d 90       	ld	r5, X+
    1730:	6d 90       	ld	r6, X+
    1732:	7c 90       	ld	r7, X
    1734:	9b 97       	sbiw	r26, 0x2b	; 43
    1736:	4d 82       	std	Y+5, r4	; 0x05
    1738:	5e 82       	std	Y+6, r5	; 0x06
    173a:	6f 82       	std	Y+7, r6	; 0x07
    173c:	78 86       	std	Y+8, r7	; 0x08
    173e:	44 84       	ldd	r4, Z+12	; 0x0c
    1740:	55 84       	ldd	r5, Z+13	; 0x0d
    1742:	66 84       	ldd	r6, Z+14	; 0x0e
    1744:	77 84       	ldd	r7, Z+15	; 0x0f
    1746:	4d 86       	std	Y+13, r4	; 0x0d
    1748:	5e 86       	std	Y+14, r5	; 0x0e
    174a:	6f 86       	std	Y+15, r6	; 0x0f
    174c:	78 8a       	std	Y+16, r7	; 0x10
          if(param.sensor_number == 4){massa = filtr.sens1 + filtr.sens2 + filtr.sens3 + filtr.sens4; break;}
          
          filtr.sens5 = (((metrology.cod_sensor5 - metrology.cod_zero_sensor5) * metrology.koef_sensor5) + 0.5);
    174e:	d8 96       	adiw	r26, 0x38	; 56
    1750:	8d 91       	ld	r24, X+
    1752:	9d 91       	ld	r25, X+
    1754:	0d 90       	ld	r0, X+
    1756:	bc 91       	ld	r27, X
    1758:	a0 2d       	mov	r26, r0
    175a:	89 a3       	std	Y+33, r24	; 0x21
    175c:	9a a3       	std	Y+34, r25	; 0x22
    175e:	ab a3       	std	Y+35, r26	; 0x23
    1760:	bc a3       	std	Y+36, r27	; 0x24
    1762:	d8 01       	movw	r26, r16
    1764:	dc 96       	adiw	r26, 0x3c	; 60
    1766:	8d 90       	ld	r8, X+
    1768:	9d 90       	ld	r9, X+
    176a:	ad 90       	ld	r10, X+
    176c:	bc 90       	ld	r11, X
    176e:	df 97       	sbiw	r26, 0x3f	; 63
    1770:	24 01       	movw	r4, r8
    1772:	35 01       	movw	r6, r10
    1774:	89 a1       	ldd	r24, Y+33	; 0x21
    1776:	9a a1       	ldd	r25, Y+34	; 0x22
    1778:	ab a1       	ldd	r26, Y+35	; 0x23
    177a:	bc a1       	ldd	r27, Y+36	; 0x24
    177c:	48 1a       	sub	r4, r24
    177e:	59 0a       	sbc	r5, r25
    1780:	6a 0a       	sbc	r6, r26
    1782:	7b 0a       	sbc	r7, r27
    1784:	49 aa       	std	Y+49, r4	; 0x31
    1786:	5a aa       	std	Y+50, r5	; 0x32
    1788:	6b aa       	std	Y+51, r6	; 0x33
    178a:	7c aa       	std	Y+52, r7	; 0x34
    178c:	d8 01       	movw	r26, r16
    178e:	d4 96       	adiw	r26, 0x34	; 52
    1790:	4d 90       	ld	r4, X+
    1792:	5d 90       	ld	r5, X+
    1794:	6d 90       	ld	r6, X+
    1796:	7c 90       	ld	r7, X
    1798:	d7 97       	sbiw	r26, 0x37	; 55
    179a:	49 86       	std	Y+9, r4	; 0x09
    179c:	5a 86       	std	Y+10, r5	; 0x0a
    179e:	6b 86       	std	Y+11, r6	; 0x0b
    17a0:	7c 86       	std	Y+12, r7	; 0x0c
    17a2:	40 88       	ldd	r4, Z+16	; 0x10
    17a4:	51 88       	ldd	r5, Z+17	; 0x11
    17a6:	62 88       	ldd	r6, Z+18	; 0x12
    17a8:	73 88       	ldd	r7, Z+19	; 0x13
    17aa:	49 8e       	std	Y+25, r4	; 0x19
    17ac:	5a 8e       	std	Y+26, r5	; 0x1a
    17ae:	6b 8e       	std	Y+27, r6	; 0x1b
    17b0:	7c 8e       	std	Y+28, r7	; 0x1c
          filtr.sens6 = (((metrology.cod_sensor6 - metrology.cod_zero_sensor6) * metrology.koef_sensor6) + 0.5);
    17b2:	80 90 4d 05 	lds	r8, 0x054D	; 0x80054d <metrology+0x48>
    17b6:	90 90 4e 05 	lds	r9, 0x054E	; 0x80054e <metrology+0x49>
    17ba:	a0 90 4f 05 	lds	r10, 0x054F	; 0x80054f <metrology+0x4a>
    17be:	b0 90 50 05 	lds	r11, 0x0550	; 0x800550 <metrology+0x4b>
    17c2:	00 91 49 05 	lds	r16, 0x0549	; 0x800549 <metrology+0x44>
    17c6:	10 91 4a 05 	lds	r17, 0x054A	; 0x80054a <metrology+0x45>
    17ca:	20 91 4b 05 	lds	r18, 0x054B	; 0x80054b <metrology+0x46>
    17ce:	30 91 4c 05 	lds	r19, 0x054C	; 0x80054c <metrology+0x47>
    17d2:	24 01       	movw	r4, r8
    17d4:	35 01       	movw	r6, r10
    17d6:	40 1a       	sub	r4, r16
    17d8:	51 0a       	sbc	r5, r17
    17da:	62 0a       	sbc	r6, r18
    17dc:	73 0a       	sbc	r7, r19
    17de:	4d aa       	std	Y+53, r4	; 0x35
    17e0:	5e aa       	std	Y+54, r5	; 0x36
    17e2:	6f aa       	std	Y+55, r6	; 0x37
    17e4:	78 ae       	std	Y+56, r7	; 0x38
    17e6:	40 90 45 05 	lds	r4, 0x0545	; 0x800545 <metrology+0x40>
    17ea:	50 90 46 05 	lds	r5, 0x0546	; 0x800546 <metrology+0x41>
    17ee:	60 90 47 05 	lds	r6, 0x0547	; 0x800547 <metrology+0x42>
    17f2:	70 90 48 05 	lds	r7, 0x0548	; 0x800548 <metrology+0x43>
    17f6:	49 ae       	std	Y+57, r4	; 0x39
    17f8:	5a ae       	std	Y+58, r5	; 0x3a
    17fa:	6b ae       	std	Y+59, r6	; 0x3b
    17fc:	7c ae       	std	Y+60, r7	; 0x3c
    17fe:	44 88       	ldd	r4, Z+20	; 0x14
    1800:	55 88       	ldd	r5, Z+21	; 0x15
    1802:	66 88       	ldd	r6, Z+22	; 0x16
    1804:	77 88       	ldd	r7, Z+23	; 0x17
    1806:	4d 8a       	std	Y+21, r4	; 0x15
    1808:	5e 8a       	std	Y+22, r5	; 0x16
    180a:	6f 8a       	std	Y+23, r6	; 0x17
    180c:	78 8e       	std	Y+24, r7	; 0x18
          if(param.sensor_number == 6){massa = filtr.sens1 + filtr.sens2 + filtr.sens3 + filtr.sens4 + filtr.sens5 + filtr.sens6 ; break;}
          
          filtr.sens7 = (((metrology.cod_sensor7 - metrology.cod_zero_sensor7) * metrology.koef_sensor7) + 0.5);
    180e:	80 90 59 05 	lds	r8, 0x0559	; 0x800559 <metrology+0x54>
    1812:	90 90 5a 05 	lds	r9, 0x055A	; 0x80055a <metrology+0x55>
    1816:	a0 90 5b 05 	lds	r10, 0x055B	; 0x80055b <metrology+0x56>
    181a:	b0 90 5c 05 	lds	r11, 0x055C	; 0x80055c <metrology+0x57>
    181e:	00 91 55 05 	lds	r16, 0x0555	; 0x800555 <metrology+0x50>
    1822:	10 91 56 05 	lds	r17, 0x0556	; 0x800556 <metrology+0x51>
    1826:	20 91 57 05 	lds	r18, 0x0557	; 0x800557 <metrology+0x52>
    182a:	30 91 58 05 	lds	r19, 0x0558	; 0x800558 <metrology+0x53>
    182e:	24 01       	movw	r4, r8
    1830:	35 01       	movw	r6, r10
    1832:	40 1a       	sub	r4, r16
    1834:	51 0a       	sbc	r5, r17
    1836:	62 0a       	sbc	r6, r18
    1838:	73 0a       	sbc	r7, r19
    183a:	21 96       	adiw	r28, 0x01	; 1
    183c:	4c ae       	std	Y+60, r4	; 0x3c
    183e:	5d ae       	std	Y+61, r5	; 0x3d
    1840:	6e ae       	std	Y+62, r6	; 0x3e
    1842:	7f ae       	std	Y+63, r7	; 0x3f
    1844:	21 97       	sbiw	r28, 0x01	; 1
    1846:	40 90 51 05 	lds	r4, 0x0551	; 0x800551 <metrology+0x4c>
    184a:	50 90 52 05 	lds	r5, 0x0552	; 0x800552 <metrology+0x4d>
    184e:	60 90 53 05 	lds	r6, 0x0553	; 0x800553 <metrology+0x4e>
    1852:	70 90 54 05 	lds	r7, 0x0554	; 0x800554 <metrology+0x4f>
    1856:	25 96       	adiw	r28, 0x05	; 5
    1858:	4c ae       	std	Y+60, r4	; 0x3c
    185a:	5d ae       	std	Y+61, r5	; 0x3d
    185c:	6e ae       	std	Y+62, r6	; 0x3e
    185e:	7f ae       	std	Y+63, r7	; 0x3f
    1860:	25 97       	sbiw	r28, 0x05	; 5
    1862:	40 8c       	ldd	r4, Z+24	; 0x18
    1864:	51 8c       	ldd	r5, Z+25	; 0x19
    1866:	62 8c       	ldd	r6, Z+26	; 0x1a
    1868:	73 8c       	ldd	r7, Z+27	; 0x1b
          filtr.sens8 = (((metrology.cod_sensor8 - metrology.cod_zero_sensor8) * metrology.koef_sensor8) + 0.5);
    186a:	80 90 65 05 	lds	r8, 0x0565	; 0x800565 <metrology+0x60>
    186e:	90 90 66 05 	lds	r9, 0x0566	; 0x800566 <metrology+0x61>
    1872:	a0 90 67 05 	lds	r10, 0x0567	; 0x800567 <metrology+0x62>
    1876:	b0 90 68 05 	lds	r11, 0x0568	; 0x800568 <metrology+0x63>
    187a:	00 91 61 05 	lds	r16, 0x0561	; 0x800561 <metrology+0x5c>
    187e:	10 91 62 05 	lds	r17, 0x0562	; 0x800562 <metrology+0x5d>
    1882:	20 91 63 05 	lds	r18, 0x0563	; 0x800563 <metrology+0x5e>
    1886:	30 91 64 05 	lds	r19, 0x0564	; 0x800564 <metrology+0x5f>
    188a:	d5 01       	movw	r26, r10
    188c:	c4 01       	movw	r24, r8
    188e:	80 1b       	sub	r24, r16
    1890:	91 0b       	sbc	r25, r17
    1892:	a2 0b       	sbc	r26, r18
    1894:	b3 0b       	sbc	r27, r19
    1896:	29 96       	adiw	r28, 0x09	; 9
    1898:	8c af       	std	Y+60, r24	; 0x3c
    189a:	9d af       	std	Y+61, r25	; 0x3d
    189c:	ae af       	std	Y+62, r26	; 0x3e
    189e:	bf af       	std	Y+63, r27	; 0x3f
    18a0:	29 97       	sbiw	r28, 0x09	; 9
    18a2:	00 91 5d 05 	lds	r16, 0x055D	; 0x80055d <metrology+0x58>
    18a6:	10 91 5e 05 	lds	r17, 0x055E	; 0x80055e <metrology+0x59>
    18aa:	20 91 5f 05 	lds	r18, 0x055F	; 0x80055f <metrology+0x5a>
    18ae:	30 91 60 05 	lds	r19, 0x0560	; 0x800560 <metrology+0x5b>
    18b2:	2d 96       	adiw	r28, 0x0d	; 13
    18b4:	0c af       	std	Y+60, r16	; 0x3c
    18b6:	1d af       	std	Y+61, r17	; 0x3d
    18b8:	2e af       	std	Y+62, r18	; 0x3e
    18ba:	3f af       	std	Y+63, r19	; 0x3f
    18bc:	2d 97       	sbiw	r28, 0x0d	; 13
    18be:	84 8d       	ldd	r24, Z+28	; 0x1c
    18c0:	95 8d       	ldd	r25, Z+29	; 0x1d
    18c2:	a6 8d       	ldd	r26, Z+30	; 0x1e
    18c4:	b7 8d       	ldd	r27, Z+31	; 0x1f
    18c6:	8d 8f       	std	Y+29, r24	; 0x1d
    18c8:	9e 8f       	std	Y+30, r25	; 0x1e
    18ca:	af 8f       	std	Y+31, r26	; 0x1f
    18cc:	b8 a3       	std	Y+32, r27	; 0x20
          if(param.sensor_number == 8){massa = filtr.sens1 + filtr.sens2 + filtr.sens3 + filtr.sens4 + filtr.sens5 + filtr.sens6 + filtr.sens7 + filtr.sens8 ; break;}
          
          filtr.sens9 = (((metrology.cod_sensor9 - metrology.cod_zero_sensor9) * metrology.koef_sensor9) + 0.5);
    18ce:	80 90 71 05 	lds	r8, 0x0571	; 0x800571 <metrology+0x6c>
    18d2:	90 90 72 05 	lds	r9, 0x0572	; 0x800572 <metrology+0x6d>
    18d6:	a0 90 73 05 	lds	r10, 0x0573	; 0x800573 <metrology+0x6e>
    18da:	b0 90 74 05 	lds	r11, 0x0574	; 0x800574 <metrology+0x6f>
    18de:	00 91 6d 05 	lds	r16, 0x056D	; 0x80056d <metrology+0x68>
    18e2:	10 91 6e 05 	lds	r17, 0x056E	; 0x80056e <metrology+0x69>
    18e6:	20 91 6f 05 	lds	r18, 0x056F	; 0x80056f <metrology+0x6a>
    18ea:	30 91 70 05 	lds	r19, 0x0570	; 0x800570 <metrology+0x6b>
    18ee:	d5 01       	movw	r26, r10
    18f0:	c4 01       	movw	r24, r8
    18f2:	80 1b       	sub	r24, r16
    18f4:	91 0b       	sbc	r25, r17
    18f6:	a2 0b       	sbc	r26, r18
    18f8:	b3 0b       	sbc	r27, r19
    18fa:	61 96       	adiw	r28, 0x11	; 17
    18fc:	8c af       	std	Y+60, r24	; 0x3c
    18fe:	9d af       	std	Y+61, r25	; 0x3d
    1900:	ae af       	std	Y+62, r26	; 0x3e
    1902:	bf af       	std	Y+63, r27	; 0x3f
    1904:	61 97       	sbiw	r28, 0x11	; 17
    1906:	00 91 69 05 	lds	r16, 0x0569	; 0x800569 <metrology+0x64>
    190a:	10 91 6a 05 	lds	r17, 0x056A	; 0x80056a <metrology+0x65>
    190e:	20 91 6b 05 	lds	r18, 0x056B	; 0x80056b <metrology+0x66>
    1912:	30 91 6c 05 	lds	r19, 0x056C	; 0x80056c <metrology+0x67>
    1916:	65 96       	adiw	r28, 0x15	; 21
    1918:	0c af       	std	Y+60, r16	; 0x3c
    191a:	1d af       	std	Y+61, r17	; 0x3d
    191c:	2e af       	std	Y+62, r18	; 0x3e
    191e:	3f af       	std	Y+63, r19	; 0x3f
    1920:	65 97       	sbiw	r28, 0x15	; 21
    1922:	80 a0       	ldd	r8, Z+32	; 0x20
    1924:	91 a0       	ldd	r9, Z+33	; 0x21
    1926:	a2 a0       	ldd	r10, Z+34	; 0x22
    1928:	b3 a0       	ldd	r11, Z+35	; 0x23
          filtr.sens10 = (((metrology.cod_sensor10 - metrology.cod_zero_sensor3) * metrology.koef_sensor3) + 0.5);
    192a:	00 91 7d 05 	lds	r16, 0x057D	; 0x80057d <metrology+0x78>
    192e:	10 91 7e 05 	lds	r17, 0x057E	; 0x80057e <metrology+0x79>
    1932:	20 91 7f 05 	lds	r18, 0x057F	; 0x80057f <metrology+0x7a>
    1936:	30 91 80 05 	lds	r19, 0x0580	; 0x800580 <metrology+0x7b>
    193a:	d9 01       	movw	r26, r18
    193c:	c8 01       	movw	r24, r16
    193e:	8c 19       	sub	r24, r12
    1940:	9d 09       	sbc	r25, r13
    1942:	ae 09       	sbc	r26, r14
    1944:	bf 09       	sbc	r27, r15
    1946:	69 96       	adiw	r28, 0x19	; 25
    1948:	8c af       	std	Y+60, r24	; 0x3c
    194a:	9d af       	std	Y+61, r25	; 0x3d
    194c:	ae af       	std	Y+62, r26	; 0x3e
    194e:	bf af       	std	Y+63, r27	; 0x3f
    1950:	69 97       	sbiw	r28, 0x19	; 25
    1952:	c4 a0       	ldd	r12, Z+36	; 0x24
    1954:	d5 a0       	ldd	r13, Z+37	; 0x25
    1956:	e6 a0       	ldd	r14, Z+38	; 0x26
    1958:	f7 a0       	ldd	r15, Z+39	; 0x27
          if(param.sensor_number == 10){massa = filtr.sens1 + filtr.sens2 + filtr.sens3 + filtr.sens4 + filtr.sens5 + filtr.sens6 + filtr.sens7 + filtr.sens8 + filtr.sens9 + filtr.sens10 ; break;}
          
          filtr.sens11 = (((metrology.cod_sensor11 - metrology.cod_zero_sensor4) * metrology.koef_sensor4) + 0.5);
    195a:	00 91 89 05 	lds	r16, 0x0589	; 0x800589 <metrology+0x84>
    195e:	10 91 8a 05 	lds	r17, 0x058A	; 0x80058a <metrology+0x85>
    1962:	20 91 8b 05 	lds	r18, 0x058B	; 0x80058b <metrology+0x86>
    1966:	30 91 8c 05 	lds	r19, 0x058C	; 0x80058c <metrology+0x87>
    196a:	d9 01       	movw	r26, r18
    196c:	c8 01       	movw	r24, r16
    196e:	84 1b       	sub	r24, r20
    1970:	95 0b       	sbc	r25, r21
    1972:	a6 0b       	sbc	r26, r22
    1974:	b7 0b       	sbc	r27, r23
    1976:	6d 96       	adiw	r28, 0x1d	; 29
    1978:	8c af       	std	Y+60, r24	; 0x3c
    197a:	9d af       	std	Y+61, r25	; 0x3d
    197c:	ae af       	std	Y+62, r26	; 0x3e
    197e:	bf af       	std	Y+63, r27	; 0x3f
    1980:	6d 97       	sbiw	r28, 0x1d	; 29
    1982:	00 a5       	ldd	r16, Z+40	; 0x28
    1984:	11 a5       	ldd	r17, Z+41	; 0x29
    1986:	22 a5       	ldd	r18, Z+42	; 0x2a
    1988:	33 a5       	ldd	r19, Z+43	; 0x2b
    198a:	0d a3       	std	Y+37, r16	; 0x25
    198c:	1e a3       	std	Y+38, r17	; 0x26
    198e:	2f a3       	std	Y+39, r18	; 0x27
    1990:	38 a7       	std	Y+40, r19	; 0x28
          filtr.sens12 = (((metrology.cod_sensor12 - metrology.cod_zero_sensor5) * metrology.koef_sensor5) + 0.5);
    1992:	40 91 95 05 	lds	r20, 0x0595	; 0x800595 <metrology+0x90>
    1996:	50 91 96 05 	lds	r21, 0x0596	; 0x800596 <metrology+0x91>
    199a:	60 91 97 05 	lds	r22, 0x0597	; 0x800597 <metrology+0x92>
    199e:	70 91 98 05 	lds	r23, 0x0598	; 0x800598 <metrology+0x93>
    19a2:	db 01       	movw	r26, r22
    19a4:	ca 01       	movw	r24, r20
    19a6:	09 a1       	ldd	r16, Y+33	; 0x21
    19a8:	1a a1       	ldd	r17, Y+34	; 0x22
    19aa:	2b a1       	ldd	r18, Y+35	; 0x23
    19ac:	3c a1       	ldd	r19, Y+36	; 0x24
    19ae:	80 1b       	sub	r24, r16
    19b0:	91 0b       	sbc	r25, r17
    19b2:	a2 0b       	sbc	r26, r18
    19b4:	b3 0b       	sbc	r27, r19
    19b6:	a1 96       	adiw	r28, 0x21	; 33
    19b8:	8c af       	std	Y+60, r24	; 0x3c
    19ba:	9d af       	std	Y+61, r25	; 0x3d
    19bc:	ae af       	std	Y+62, r26	; 0x3e
    19be:	bf af       	std	Y+63, r27	; 0x3f
    19c0:	a1 97       	sbiw	r28, 0x21	; 33
    19c2:	24 a5       	ldd	r18, Z+44	; 0x2c
    19c4:	35 a5       	ldd	r19, Z+45	; 0x2d
    19c6:	46 a5       	ldd	r20, Z+46	; 0x2e
    19c8:	57 a5       	ldd	r21, Z+47	; 0x2f
    19ca:	29 a3       	std	Y+33, r18	; 0x21
    19cc:	3a a3       	std	Y+34, r19	; 0x22
    19ce:	4b a3       	std	Y+35, r20	; 0x23
    19d0:	5c a3       	std	Y+36, r21	; 0x24
    19d2:	aa 96       	adiw	r28, 0x2a	; 42
    19d4:	3f ae       	std	Y+63, r3	; 0x3f
    19d6:	aa 97       	sbiw	r28, 0x2a	; 42
{
     while (1)  //логика следующая, попадаем в вайл, и летим по нему пока не встретим бряк, а он зависит от того сколько выбрано датчиков
     {
          filtr.sens1 = (((metrology.cod_sensor1 - metrology.cod_zero_sensor1) * metrology.koef_sensor1) + 0.5);
          filtr.sens2 = (((metrology.cod_sensor2 - metrology.cod_zero_sensor2) * metrology.koef_sensor2) + 0.5);
          if(param.sensor_number == 2){ massa = filtr.sens1 + filtr.sens2;  break;}
    19d8:	aa 96       	adiw	r28, 0x2a	; 42
    19da:	0f ad       	ldd	r16, Y+63	; 0x3f
    19dc:	aa 97       	sbiw	r28, 0x2a	; 42
    19de:	02 30       	cpi	r16, 0x02	; 2
    19e0:	09 f0       	breq	.+2      	; 0x19e4 <_Z23converting_cod_to_massav+0x40e>
    19e2:	73 c0       	rjmp	.+230    	; 0x1aca <_Z23converting_cod_to_massav+0x4f4>
    19e4:	e2 e4       	ldi	r30, 0x42	; 66
    19e6:	f4 e0       	ldi	r31, 0x04	; 4
    19e8:	29 89       	ldd	r18, Y+17	; 0x11
    19ea:	3a 89       	ldd	r19, Y+18	; 0x12
    19ec:	4b 89       	ldd	r20, Y+19	; 0x13
    19ee:	5c 89       	ldd	r21, Y+20	; 0x14
    19f0:	20 87       	std	Z+8, r18	; 0x08
    19f2:	31 87       	std	Z+9, r19	; 0x09
    19f4:	42 87       	std	Z+10, r20	; 0x0a
    19f6:	53 87       	std	Z+11, r21	; 0x0b
    19f8:	8d 85       	ldd	r24, Y+13	; 0x0d
    19fa:	9e 85       	ldd	r25, Y+14	; 0x0e
    19fc:	af 85       	ldd	r26, Y+15	; 0x0f
    19fe:	b8 89       	ldd	r27, Y+16	; 0x10
    1a00:	84 87       	std	Z+12, r24	; 0x0c
    1a02:	95 87       	std	Z+13, r25	; 0x0d
    1a04:	a6 87       	std	Z+14, r26	; 0x0e
    1a06:	b7 87       	std	Z+15, r27	; 0x0f
    1a08:	09 8d       	ldd	r16, Y+25	; 0x19
    1a0a:	1a 8d       	ldd	r17, Y+26	; 0x1a
    1a0c:	2b 8d       	ldd	r18, Y+27	; 0x1b
    1a0e:	3c 8d       	ldd	r19, Y+28	; 0x1c
    1a10:	00 8b       	std	Z+16, r16	; 0x10
    1a12:	11 8b       	std	Z+17, r17	; 0x11
    1a14:	22 8b       	std	Z+18, r18	; 0x12
    1a16:	33 8b       	std	Z+19, r19	; 0x13
    1a18:	2d 89       	ldd	r18, Y+21	; 0x15
    1a1a:	3e 89       	ldd	r19, Y+22	; 0x16
    1a1c:	4f 89       	ldd	r20, Y+23	; 0x17
    1a1e:	58 8d       	ldd	r21, Y+24	; 0x18
    1a20:	24 8b       	std	Z+20, r18	; 0x14
    1a22:	35 8b       	std	Z+21, r19	; 0x15
    1a24:	46 8b       	std	Z+22, r20	; 0x16
    1a26:	57 8b       	std	Z+23, r21	; 0x17
    1a28:	40 8e       	std	Z+24, r4	; 0x18
    1a2a:	51 8e       	std	Z+25, r5	; 0x19
    1a2c:	62 8e       	std	Z+26, r6	; 0x1a
    1a2e:	73 8e       	std	Z+27, r7	; 0x1b
    1a30:	4d 8c       	ldd	r4, Y+29	; 0x1d
    1a32:	5e 8c       	ldd	r5, Y+30	; 0x1e
    1a34:	6f 8c       	ldd	r6, Y+31	; 0x1f
    1a36:	78 a0       	ldd	r7, Y+32	; 0x20
    1a38:	44 8e       	std	Z+28, r4	; 0x1c
    1a3a:	55 8e       	std	Z+29, r5	; 0x1d
    1a3c:	66 8e       	std	Z+30, r6	; 0x1e
    1a3e:	77 8e       	std	Z+31, r7	; 0x1f
    1a40:	80 a2       	std	Z+32, r8	; 0x20
    1a42:	91 a2       	std	Z+33, r9	; 0x21
    1a44:	a2 a2       	std	Z+34, r10	; 0x22
    1a46:	b3 a2       	std	Z+35, r11	; 0x23
    1a48:	c4 a2       	std	Z+36, r12	; 0x24
    1a4a:	d5 a2       	std	Z+37, r13	; 0x25
    1a4c:	e6 a2       	std	Z+38, r14	; 0x26
    1a4e:	f7 a2       	std	Z+39, r15	; 0x27
    1a50:	4d a0       	ldd	r4, Y+37	; 0x25
    1a52:	5e a0       	ldd	r5, Y+38	; 0x26
    1a54:	6f a0       	ldd	r6, Y+39	; 0x27
    1a56:	78 a4       	ldd	r7, Y+40	; 0x28
    1a58:	40 a6       	std	Z+40, r4	; 0x28
    1a5a:	51 a6       	std	Z+41, r5	; 0x29
    1a5c:	62 a6       	std	Z+42, r6	; 0x2a
    1a5e:	73 a6       	std	Z+43, r7	; 0x2b
    1a60:	49 a0       	ldd	r4, Y+33	; 0x21
    1a62:	5a a0       	ldd	r5, Y+34	; 0x22
    1a64:	6b a0       	ldd	r6, Y+35	; 0x23
    1a66:	7c a0       	ldd	r7, Y+36	; 0x24
    1a68:	44 a6       	std	Z+44, r4	; 0x2c
    1a6a:	55 a6       	std	Z+45, r5	; 0x2d
    1a6c:	66 a6       	std	Z+46, r6	; 0x2e
    1a6e:	77 a6       	std	Z+47, r7	; 0x2f
    1a70:	a5 96       	adiw	r28, 0x25	; 37
    1a72:	4c ac       	ldd	r4, Y+60	; 0x3c
    1a74:	5d ac       	ldd	r5, Y+61	; 0x3d
    1a76:	6e ac       	ldd	r6, Y+62	; 0x3e
    1a78:	7f ac       	ldd	r7, Y+63	; 0x3f
    1a7a:	a5 97       	sbiw	r28, 0x25	; 37
    1a7c:	40 82       	st	Z, r4
    1a7e:	51 82       	std	Z+1, r5	; 0x01
    1a80:	62 82       	std	Z+2, r6	; 0x02
    1a82:	73 82       	std	Z+3, r7	; 0x03
    1a84:	a9 96       	adiw	r28, 0x29	; 41
    1a86:	4c ac       	ldd	r4, Y+60	; 0x3c
    1a88:	5d ac       	ldd	r5, Y+61	; 0x3d
    1a8a:	6e ac       	ldd	r6, Y+62	; 0x3e
    1a8c:	7f ac       	ldd	r7, Y+63	; 0x3f
    1a8e:	a9 97       	sbiw	r28, 0x29	; 41
    1a90:	44 82       	std	Z+4, r4	; 0x04
    1a92:	55 82       	std	Z+5, r5	; 0x05
    1a94:	66 82       	std	Z+6, r6	; 0x06
    1a96:	77 82       	std	Z+7, r7	; 0x07
    1a98:	a5 96       	adiw	r28, 0x25	; 37
    1a9a:	4c ac       	ldd	r4, Y+60	; 0x3c
    1a9c:	5d ac       	ldd	r5, Y+61	; 0x3d
    1a9e:	6e ac       	ldd	r6, Y+62	; 0x3e
    1aa0:	7f ac       	ldd	r7, Y+63	; 0x3f
    1aa2:	a5 97       	sbiw	r28, 0x25	; 37
    1aa4:	a9 96       	adiw	r28, 0x29	; 41
    1aa6:	0c ad       	ldd	r16, Y+60	; 0x3c
    1aa8:	1d ad       	ldd	r17, Y+61	; 0x3d
    1aaa:	2e ad       	ldd	r18, Y+62	; 0x3e
    1aac:	3f ad       	ldd	r19, Y+63	; 0x3f
    1aae:	a9 97       	sbiw	r28, 0x29	; 41
    1ab0:	40 0e       	add	r4, r16
    1ab2:	51 1e       	adc	r5, r17
    1ab4:	62 1e       	adc	r6, r18
    1ab6:	73 1e       	adc	r7, r19
    1ab8:	40 92 7a 04 	sts	0x047A, r4	; 0x80047a <massa>
    1abc:	50 92 7b 04 	sts	0x047B, r5	; 0x80047b <massa+0x1>
    1ac0:	60 92 7c 04 	sts	0x047C, r6	; 0x80047c <massa+0x2>
    1ac4:	70 92 7d 04 	sts	0x047D, r7	; 0x80047d <massa+0x3>
    1ac8:	fe c3       	rjmp	.+2044   	; 0x22c6 <__stack+0xc7>

          filtr.sens3 = (((metrology.cod_sensor3 - metrology.cod_zero_sensor3) * metrology.koef_sensor3) + 0.5);
    1aca:	69 a5       	ldd	r22, Y+41	; 0x29
    1acc:	7a a5       	ldd	r23, Y+42	; 0x2a
    1ace:	8b a5       	ldd	r24, Y+43	; 0x2b
    1ad0:	9c a5       	ldd	r25, Y+44	; 0x2c
    1ad2:	0e 94 7e 43 	call	0x86fc	; 0x86fc <__floatsisf>
    1ad6:	29 81       	ldd	r18, Y+1	; 0x01
    1ad8:	3a 81       	ldd	r19, Y+2	; 0x02
    1ada:	4b 81       	ldd	r20, Y+3	; 0x03
    1adc:	5c 81       	ldd	r21, Y+4	; 0x04
    1ade:	0e 94 32 44 	call	0x8864	; 0x8864 <__mulsf3>
    1ae2:	20 e0       	ldi	r18, 0x00	; 0
    1ae4:	30 e0       	ldi	r19, 0x00	; 0
    1ae6:	40 e0       	ldi	r20, 0x00	; 0
    1ae8:	5f e3       	ldi	r21, 0x3F	; 63
    1aea:	0e 94 7b 42 	call	0x84f6	; 0x84f6 <__addsf3>
    1aee:	0e 94 4b 43 	call	0x8696	; 0x8696 <__fixsfsi>
    1af2:	69 8b       	std	Y+17, r22	; 0x11
    1af4:	7a 8b       	std	Y+18, r23	; 0x12
    1af6:	8b 8b       	std	Y+19, r24	; 0x13
    1af8:	9c 8b       	std	Y+20, r25	; 0x14
          filtr.sens4 = (((metrology.cod_sensor4 - metrology.cod_zero_sensor4) * metrology.koef_sensor4) + 0.5);
    1afa:	6d a5       	ldd	r22, Y+45	; 0x2d
    1afc:	7e a5       	ldd	r23, Y+46	; 0x2e
    1afe:	8f a5       	ldd	r24, Y+47	; 0x2f
    1b00:	98 a9       	ldd	r25, Y+48	; 0x30
    1b02:	0e 94 7e 43 	call	0x86fc	; 0x86fc <__floatsisf>
    1b06:	2d 81       	ldd	r18, Y+5	; 0x05
    1b08:	3e 81       	ldd	r19, Y+6	; 0x06
    1b0a:	4f 81       	ldd	r20, Y+7	; 0x07
    1b0c:	58 85       	ldd	r21, Y+8	; 0x08
    1b0e:	0e 94 32 44 	call	0x8864	; 0x8864 <__mulsf3>
    1b12:	20 e0       	ldi	r18, 0x00	; 0
    1b14:	30 e0       	ldi	r19, 0x00	; 0
    1b16:	40 e0       	ldi	r20, 0x00	; 0
    1b18:	5f e3       	ldi	r21, 0x3F	; 63
    1b1a:	0e 94 7b 42 	call	0x84f6	; 0x84f6 <__addsf3>
    1b1e:	0e 94 4b 43 	call	0x8696	; 0x8696 <__fixsfsi>
    1b22:	6d 87       	std	Y+13, r22	; 0x0d
    1b24:	7e 87       	std	Y+14, r23	; 0x0e
    1b26:	8f 87       	std	Y+15, r24	; 0x0f
    1b28:	98 8b       	std	Y+16, r25	; 0x10
          if(param.sensor_number == 4){massa = filtr.sens1 + filtr.sens2 + filtr.sens3 + filtr.sens4; break;}
    1b2a:	aa 96       	adiw	r28, 0x2a	; 42
    1b2c:	1f ad       	ldd	r17, Y+63	; 0x3f
    1b2e:	aa 97       	sbiw	r28, 0x2a	; 42
    1b30:	14 30       	cpi	r17, 0x04	; 4
    1b32:	09 f0       	breq	.+2      	; 0x1b36 <_Z23converting_cod_to_massav+0x560>
    1b34:	7d c0       	rjmp	.+250    	; 0x1c30 <_Z23converting_cod_to_massav+0x65a>
    1b36:	e2 e4       	ldi	r30, 0x42	; 66
    1b38:	f4 e0       	ldi	r31, 0x04	; 4
    1b3a:	29 89       	ldd	r18, Y+17	; 0x11
    1b3c:	3a 89       	ldd	r19, Y+18	; 0x12
    1b3e:	4b 89       	ldd	r20, Y+19	; 0x13
    1b40:	5c 89       	ldd	r21, Y+20	; 0x14
    1b42:	20 87       	std	Z+8, r18	; 0x08
    1b44:	31 87       	std	Z+9, r19	; 0x09
    1b46:	42 87       	std	Z+10, r20	; 0x0a
    1b48:	53 87       	std	Z+11, r21	; 0x0b
    1b4a:	dc 01       	movw	r26, r24
    1b4c:	cb 01       	movw	r24, r22
    1b4e:	84 87       	std	Z+12, r24	; 0x0c
    1b50:	95 87       	std	Z+13, r25	; 0x0d
    1b52:	a6 87       	std	Z+14, r26	; 0x0e
    1b54:	b7 87       	std	Z+15, r27	; 0x0f
    1b56:	09 8d       	ldd	r16, Y+25	; 0x19
    1b58:	1a 8d       	ldd	r17, Y+26	; 0x1a
    1b5a:	2b 8d       	ldd	r18, Y+27	; 0x1b
    1b5c:	3c 8d       	ldd	r19, Y+28	; 0x1c
    1b5e:	00 8b       	std	Z+16, r16	; 0x10
    1b60:	11 8b       	std	Z+17, r17	; 0x11
    1b62:	22 8b       	std	Z+18, r18	; 0x12
    1b64:	33 8b       	std	Z+19, r19	; 0x13
    1b66:	2d 89       	ldd	r18, Y+21	; 0x15
    1b68:	3e 89       	ldd	r19, Y+22	; 0x16
    1b6a:	4f 89       	ldd	r20, Y+23	; 0x17
    1b6c:	58 8d       	ldd	r21, Y+24	; 0x18
    1b6e:	24 8b       	std	Z+20, r18	; 0x14
    1b70:	35 8b       	std	Z+21, r19	; 0x15
    1b72:	46 8b       	std	Z+22, r20	; 0x16
    1b74:	57 8b       	std	Z+23, r21	; 0x17
    1b76:	40 8e       	std	Z+24, r4	; 0x18
    1b78:	51 8e       	std	Z+25, r5	; 0x19
    1b7a:	62 8e       	std	Z+26, r6	; 0x1a
    1b7c:	73 8e       	std	Z+27, r7	; 0x1b
    1b7e:	4d 8c       	ldd	r4, Y+29	; 0x1d
    1b80:	5e 8c       	ldd	r5, Y+30	; 0x1e
    1b82:	6f 8c       	ldd	r6, Y+31	; 0x1f
    1b84:	78 a0       	ldd	r7, Y+32	; 0x20
    1b86:	44 8e       	std	Z+28, r4	; 0x1c
    1b88:	55 8e       	std	Z+29, r5	; 0x1d
    1b8a:	66 8e       	std	Z+30, r6	; 0x1e
    1b8c:	77 8e       	std	Z+31, r7	; 0x1f
    1b8e:	80 a2       	std	Z+32, r8	; 0x20
    1b90:	91 a2       	std	Z+33, r9	; 0x21
    1b92:	a2 a2       	std	Z+34, r10	; 0x22
    1b94:	b3 a2       	std	Z+35, r11	; 0x23
    1b96:	c4 a2       	std	Z+36, r12	; 0x24
    1b98:	d5 a2       	std	Z+37, r13	; 0x25
    1b9a:	e6 a2       	std	Z+38, r14	; 0x26
    1b9c:	f7 a2       	std	Z+39, r15	; 0x27
    1b9e:	4d a0       	ldd	r4, Y+37	; 0x25
    1ba0:	5e a0       	ldd	r5, Y+38	; 0x26
    1ba2:	6f a0       	ldd	r6, Y+39	; 0x27
    1ba4:	78 a4       	ldd	r7, Y+40	; 0x28
    1ba6:	40 a6       	std	Z+40, r4	; 0x28
    1ba8:	51 a6       	std	Z+41, r5	; 0x29
    1baa:	62 a6       	std	Z+42, r6	; 0x2a
    1bac:	73 a6       	std	Z+43, r7	; 0x2b
    1bae:	49 a0       	ldd	r4, Y+33	; 0x21
    1bb0:	5a a0       	ldd	r5, Y+34	; 0x22
    1bb2:	6b a0       	ldd	r6, Y+35	; 0x23
    1bb4:	7c a0       	ldd	r7, Y+36	; 0x24
    1bb6:	44 a6       	std	Z+44, r4	; 0x2c
    1bb8:	55 a6       	std	Z+45, r5	; 0x2d
    1bba:	66 a6       	std	Z+46, r6	; 0x2e
    1bbc:	77 a6       	std	Z+47, r7	; 0x2f
    1bbe:	a5 96       	adiw	r28, 0x25	; 37
    1bc0:	4c ac       	ldd	r4, Y+60	; 0x3c
    1bc2:	5d ac       	ldd	r5, Y+61	; 0x3d
    1bc4:	6e ac       	ldd	r6, Y+62	; 0x3e
    1bc6:	7f ac       	ldd	r7, Y+63	; 0x3f
    1bc8:	a5 97       	sbiw	r28, 0x25	; 37
    1bca:	40 82       	st	Z, r4
    1bcc:	51 82       	std	Z+1, r5	; 0x01
    1bce:	62 82       	std	Z+2, r6	; 0x02
    1bd0:	73 82       	std	Z+3, r7	; 0x03
    1bd2:	a9 96       	adiw	r28, 0x29	; 41
    1bd4:	4c ac       	ldd	r4, Y+60	; 0x3c
    1bd6:	5d ac       	ldd	r5, Y+61	; 0x3d
    1bd8:	6e ac       	ldd	r6, Y+62	; 0x3e
    1bda:	7f ac       	ldd	r7, Y+63	; 0x3f
    1bdc:	a9 97       	sbiw	r28, 0x29	; 41
    1bde:	44 82       	std	Z+4, r4	; 0x04
    1be0:	55 82       	std	Z+5, r5	; 0x05
    1be2:	66 82       	std	Z+6, r6	; 0x06
    1be4:	77 82       	std	Z+7, r7	; 0x07
    1be6:	a5 96       	adiw	r28, 0x25	; 37
    1be8:	4c ac       	ldd	r4, Y+60	; 0x3c
    1bea:	5d ac       	ldd	r5, Y+61	; 0x3d
    1bec:	6e ac       	ldd	r6, Y+62	; 0x3e
    1bee:	7f ac       	ldd	r7, Y+63	; 0x3f
    1bf0:	a5 97       	sbiw	r28, 0x25	; 37
    1bf2:	a9 96       	adiw	r28, 0x29	; 41
    1bf4:	0c ad       	ldd	r16, Y+60	; 0x3c
    1bf6:	1d ad       	ldd	r17, Y+61	; 0x3d
    1bf8:	2e ad       	ldd	r18, Y+62	; 0x3e
    1bfa:	3f ad       	ldd	r19, Y+63	; 0x3f
    1bfc:	a9 97       	sbiw	r28, 0x29	; 41
    1bfe:	40 0e       	add	r4, r16
    1c00:	51 1e       	adc	r5, r17
    1c02:	62 1e       	adc	r6, r18
    1c04:	73 1e       	adc	r7, r19
    1c06:	29 89       	ldd	r18, Y+17	; 0x11
    1c08:	3a 89       	ldd	r19, Y+18	; 0x12
    1c0a:	4b 89       	ldd	r20, Y+19	; 0x13
    1c0c:	5c 89       	ldd	r21, Y+20	; 0x14
    1c0e:	42 0e       	add	r4, r18
    1c10:	53 1e       	adc	r5, r19
    1c12:	64 1e       	adc	r6, r20
    1c14:	75 1e       	adc	r7, r21
    1c16:	48 0e       	add	r4, r24
    1c18:	59 1e       	adc	r5, r25
    1c1a:	6a 1e       	adc	r6, r26
    1c1c:	7b 1e       	adc	r7, r27
    1c1e:	40 92 7a 04 	sts	0x047A, r4	; 0x80047a <massa>
    1c22:	50 92 7b 04 	sts	0x047B, r5	; 0x80047b <massa+0x1>
    1c26:	60 92 7c 04 	sts	0x047C, r6	; 0x80047c <massa+0x2>
    1c2a:	70 92 7d 04 	sts	0x047D, r7	; 0x80047d <massa+0x3>
    1c2e:	4b c3       	rjmp	.+1686   	; 0x22c6 <__stack+0xc7>
          
          filtr.sens5 = (((metrology.cod_sensor5 - metrology.cod_zero_sensor5) * metrology.koef_sensor5) + 0.5);
    1c30:	69 a9       	ldd	r22, Y+49	; 0x31
    1c32:	7a a9       	ldd	r23, Y+50	; 0x32
    1c34:	8b a9       	ldd	r24, Y+51	; 0x33
    1c36:	9c a9       	ldd	r25, Y+52	; 0x34
    1c38:	0e 94 7e 43 	call	0x86fc	; 0x86fc <__floatsisf>
    1c3c:	29 85       	ldd	r18, Y+9	; 0x09
    1c3e:	3a 85       	ldd	r19, Y+10	; 0x0a
    1c40:	4b 85       	ldd	r20, Y+11	; 0x0b
    1c42:	5c 85       	ldd	r21, Y+12	; 0x0c
    1c44:	0e 94 32 44 	call	0x8864	; 0x8864 <__mulsf3>
    1c48:	20 e0       	ldi	r18, 0x00	; 0
    1c4a:	30 e0       	ldi	r19, 0x00	; 0
    1c4c:	40 e0       	ldi	r20, 0x00	; 0
    1c4e:	5f e3       	ldi	r21, 0x3F	; 63
    1c50:	0e 94 7b 42 	call	0x84f6	; 0x84f6 <__addsf3>
    1c54:	0e 94 4b 43 	call	0x8696	; 0x8696 <__fixsfsi>
    1c58:	69 8f       	std	Y+25, r22	; 0x19
    1c5a:	7a 8f       	std	Y+26, r23	; 0x1a
    1c5c:	8b 8f       	std	Y+27, r24	; 0x1b
    1c5e:	9c 8f       	std	Y+28, r25	; 0x1c
          filtr.sens6 = (((metrology.cod_sensor6 - metrology.cod_zero_sensor6) * metrology.koef_sensor6) + 0.5);
    1c60:	6d a9       	ldd	r22, Y+53	; 0x35
    1c62:	7e a9       	ldd	r23, Y+54	; 0x36
    1c64:	8f a9       	ldd	r24, Y+55	; 0x37
    1c66:	98 ad       	ldd	r25, Y+56	; 0x38
    1c68:	0e 94 7e 43 	call	0x86fc	; 0x86fc <__floatsisf>
    1c6c:	29 ad       	ldd	r18, Y+57	; 0x39
    1c6e:	3a ad       	ldd	r19, Y+58	; 0x3a
    1c70:	4b ad       	ldd	r20, Y+59	; 0x3b
    1c72:	5c ad       	ldd	r21, Y+60	; 0x3c
    1c74:	0e 94 32 44 	call	0x8864	; 0x8864 <__mulsf3>
    1c78:	20 e0       	ldi	r18, 0x00	; 0
    1c7a:	30 e0       	ldi	r19, 0x00	; 0
    1c7c:	40 e0       	ldi	r20, 0x00	; 0
    1c7e:	5f e3       	ldi	r21, 0x3F	; 63
    1c80:	0e 94 7b 42 	call	0x84f6	; 0x84f6 <__addsf3>
    1c84:	0e 94 4b 43 	call	0x8696	; 0x8696 <__fixsfsi>
    1c88:	6d 8b       	std	Y+21, r22	; 0x15
    1c8a:	7e 8b       	std	Y+22, r23	; 0x16
    1c8c:	8f 8b       	std	Y+23, r24	; 0x17
    1c8e:	98 8f       	std	Y+24, r25	; 0x18
          if(param.sensor_number == 6){massa = filtr.sens1 + filtr.sens2 + filtr.sens3 + filtr.sens4 + filtr.sens5 + filtr.sens6 ; break;}
    1c90:	aa 96       	adiw	r28, 0x2a	; 42
    1c92:	0f ad       	ldd	r16, Y+63	; 0x3f
    1c94:	aa 97       	sbiw	r28, 0x2a	; 42
    1c96:	06 30       	cpi	r16, 0x06	; 6
    1c98:	09 f0       	breq	.+2      	; 0x1c9c <_Z23converting_cod_to_massav+0x6c6>
    1c9a:	8f c0       	rjmp	.+286    	; 0x1dba <_Z23converting_cod_to_massav+0x7e4>
    1c9c:	e2 e4       	ldi	r30, 0x42	; 66
    1c9e:	f4 e0       	ldi	r31, 0x04	; 4
    1ca0:	29 89       	ldd	r18, Y+17	; 0x11
    1ca2:	3a 89       	ldd	r19, Y+18	; 0x12
    1ca4:	4b 89       	ldd	r20, Y+19	; 0x13
    1ca6:	5c 89       	ldd	r21, Y+20	; 0x14
    1ca8:	20 87       	std	Z+8, r18	; 0x08
    1caa:	31 87       	std	Z+9, r19	; 0x09
    1cac:	42 87       	std	Z+10, r20	; 0x0a
    1cae:	53 87       	std	Z+11, r21	; 0x0b
    1cb0:	8d 85       	ldd	r24, Y+13	; 0x0d
    1cb2:	9e 85       	ldd	r25, Y+14	; 0x0e
    1cb4:	af 85       	ldd	r26, Y+15	; 0x0f
    1cb6:	b8 89       	ldd	r27, Y+16	; 0x10
    1cb8:	84 87       	std	Z+12, r24	; 0x0c
    1cba:	95 87       	std	Z+13, r25	; 0x0d
    1cbc:	a6 87       	std	Z+14, r26	; 0x0e
    1cbe:	b7 87       	std	Z+15, r27	; 0x0f
    1cc0:	09 8d       	ldd	r16, Y+25	; 0x19
    1cc2:	1a 8d       	ldd	r17, Y+26	; 0x1a
    1cc4:	2b 8d       	ldd	r18, Y+27	; 0x1b
    1cc6:	3c 8d       	ldd	r19, Y+28	; 0x1c
    1cc8:	00 8b       	std	Z+16, r16	; 0x10
    1cca:	11 8b       	std	Z+17, r17	; 0x11
    1ccc:	22 8b       	std	Z+18, r18	; 0x12
    1cce:	33 8b       	std	Z+19, r19	; 0x13
    1cd0:	2d 89       	ldd	r18, Y+21	; 0x15
    1cd2:	3e 89       	ldd	r19, Y+22	; 0x16
    1cd4:	4f 89       	ldd	r20, Y+23	; 0x17
    1cd6:	58 8d       	ldd	r21, Y+24	; 0x18
    1cd8:	24 8b       	std	Z+20, r18	; 0x14
    1cda:	35 8b       	std	Z+21, r19	; 0x15
    1cdc:	46 8b       	std	Z+22, r20	; 0x16
    1cde:	57 8b       	std	Z+23, r21	; 0x17
    1ce0:	40 8e       	std	Z+24, r4	; 0x18
    1ce2:	51 8e       	std	Z+25, r5	; 0x19
    1ce4:	62 8e       	std	Z+26, r6	; 0x1a
    1ce6:	73 8e       	std	Z+27, r7	; 0x1b
    1ce8:	4d 8c       	ldd	r4, Y+29	; 0x1d
    1cea:	5e 8c       	ldd	r5, Y+30	; 0x1e
    1cec:	6f 8c       	ldd	r6, Y+31	; 0x1f
    1cee:	78 a0       	ldd	r7, Y+32	; 0x20
    1cf0:	44 8e       	std	Z+28, r4	; 0x1c
    1cf2:	55 8e       	std	Z+29, r5	; 0x1d
    1cf4:	66 8e       	std	Z+30, r6	; 0x1e
    1cf6:	77 8e       	std	Z+31, r7	; 0x1f
    1cf8:	80 a2       	std	Z+32, r8	; 0x20
    1cfa:	91 a2       	std	Z+33, r9	; 0x21
    1cfc:	a2 a2       	std	Z+34, r10	; 0x22
    1cfe:	b3 a2       	std	Z+35, r11	; 0x23
    1d00:	c4 a2       	std	Z+36, r12	; 0x24
    1d02:	d5 a2       	std	Z+37, r13	; 0x25
    1d04:	e6 a2       	std	Z+38, r14	; 0x26
    1d06:	f7 a2       	std	Z+39, r15	; 0x27
    1d08:	4d a0       	ldd	r4, Y+37	; 0x25
    1d0a:	5e a0       	ldd	r5, Y+38	; 0x26
    1d0c:	6f a0       	ldd	r6, Y+39	; 0x27
    1d0e:	78 a4       	ldd	r7, Y+40	; 0x28
    1d10:	40 a6       	std	Z+40, r4	; 0x28
    1d12:	51 a6       	std	Z+41, r5	; 0x29
    1d14:	62 a6       	std	Z+42, r6	; 0x2a
    1d16:	73 a6       	std	Z+43, r7	; 0x2b
    1d18:	49 a0       	ldd	r4, Y+33	; 0x21
    1d1a:	5a a0       	ldd	r5, Y+34	; 0x22
    1d1c:	6b a0       	ldd	r6, Y+35	; 0x23
    1d1e:	7c a0       	ldd	r7, Y+36	; 0x24
    1d20:	44 a6       	std	Z+44, r4	; 0x2c
    1d22:	55 a6       	std	Z+45, r5	; 0x2d
    1d24:	66 a6       	std	Z+46, r6	; 0x2e
    1d26:	77 a6       	std	Z+47, r7	; 0x2f
    1d28:	a5 96       	adiw	r28, 0x25	; 37
    1d2a:	4c ac       	ldd	r4, Y+60	; 0x3c
    1d2c:	5d ac       	ldd	r5, Y+61	; 0x3d
    1d2e:	6e ac       	ldd	r6, Y+62	; 0x3e
    1d30:	7f ac       	ldd	r7, Y+63	; 0x3f
    1d32:	a5 97       	sbiw	r28, 0x25	; 37
    1d34:	40 82       	st	Z, r4
    1d36:	51 82       	std	Z+1, r5	; 0x01
    1d38:	62 82       	std	Z+2, r6	; 0x02
    1d3a:	73 82       	std	Z+3, r7	; 0x03
    1d3c:	a9 96       	adiw	r28, 0x29	; 41
    1d3e:	4c ac       	ldd	r4, Y+60	; 0x3c
    1d40:	5d ac       	ldd	r5, Y+61	; 0x3d
    1d42:	6e ac       	ldd	r6, Y+62	; 0x3e
    1d44:	7f ac       	ldd	r7, Y+63	; 0x3f
    1d46:	a9 97       	sbiw	r28, 0x29	; 41
    1d48:	44 82       	std	Z+4, r4	; 0x04
    1d4a:	55 82       	std	Z+5, r5	; 0x05
    1d4c:	66 82       	std	Z+6, r6	; 0x06
    1d4e:	77 82       	std	Z+7, r7	; 0x07
    1d50:	a5 96       	adiw	r28, 0x25	; 37
    1d52:	4c ac       	ldd	r4, Y+60	; 0x3c
    1d54:	5d ac       	ldd	r5, Y+61	; 0x3d
    1d56:	6e ac       	ldd	r6, Y+62	; 0x3e
    1d58:	7f ac       	ldd	r7, Y+63	; 0x3f
    1d5a:	a5 97       	sbiw	r28, 0x25	; 37
    1d5c:	a9 96       	adiw	r28, 0x29	; 41
    1d5e:	0c ad       	ldd	r16, Y+60	; 0x3c
    1d60:	1d ad       	ldd	r17, Y+61	; 0x3d
    1d62:	2e ad       	ldd	r18, Y+62	; 0x3e
    1d64:	3f ad       	ldd	r19, Y+63	; 0x3f
    1d66:	a9 97       	sbiw	r28, 0x29	; 41
    1d68:	40 0e       	add	r4, r16
    1d6a:	51 1e       	adc	r5, r17
    1d6c:	62 1e       	adc	r6, r18
    1d6e:	73 1e       	adc	r7, r19
    1d70:	29 89       	ldd	r18, Y+17	; 0x11
    1d72:	3a 89       	ldd	r19, Y+18	; 0x12
    1d74:	4b 89       	ldd	r20, Y+19	; 0x13
    1d76:	5c 89       	ldd	r21, Y+20	; 0x14
    1d78:	42 0e       	add	r4, r18
    1d7a:	53 1e       	adc	r5, r19
    1d7c:	64 1e       	adc	r6, r20
    1d7e:	75 1e       	adc	r7, r21
    1d80:	48 0e       	add	r4, r24
    1d82:	59 1e       	adc	r5, r25
    1d84:	6a 1e       	adc	r6, r26
    1d86:	7b 1e       	adc	r7, r27
    1d88:	89 8d       	ldd	r24, Y+25	; 0x19
    1d8a:	9a 8d       	ldd	r25, Y+26	; 0x1a
    1d8c:	ab 8d       	ldd	r26, Y+27	; 0x1b
    1d8e:	bc 8d       	ldd	r27, Y+28	; 0x1c
    1d90:	48 0e       	add	r4, r24
    1d92:	59 1e       	adc	r5, r25
    1d94:	6a 1e       	adc	r6, r26
    1d96:	7b 1e       	adc	r7, r27
    1d98:	0d 89       	ldd	r16, Y+21	; 0x15
    1d9a:	1e 89       	ldd	r17, Y+22	; 0x16
    1d9c:	2f 89       	ldd	r18, Y+23	; 0x17
    1d9e:	38 8d       	ldd	r19, Y+24	; 0x18
    1da0:	40 0e       	add	r4, r16
    1da2:	51 1e       	adc	r5, r17
    1da4:	62 1e       	adc	r6, r18
    1da6:	73 1e       	adc	r7, r19
    1da8:	40 92 7a 04 	sts	0x047A, r4	; 0x80047a <massa>
    1dac:	50 92 7b 04 	sts	0x047B, r5	; 0x80047b <massa+0x1>
    1db0:	60 92 7c 04 	sts	0x047C, r6	; 0x80047c <massa+0x2>
    1db4:	70 92 7d 04 	sts	0x047D, r7	; 0x80047d <massa+0x3>
    1db8:	86 c2       	rjmp	.+1292   	; 0x22c6 <__stack+0xc7>
          
          filtr.sens7 = (((metrology.cod_sensor7 - metrology.cod_zero_sensor7) * metrology.koef_sensor7) + 0.5);
    1dba:	21 96       	adiw	r28, 0x01	; 1
    1dbc:	6c ad       	ldd	r22, Y+60	; 0x3c
    1dbe:	7d ad       	ldd	r23, Y+61	; 0x3d
    1dc0:	8e ad       	ldd	r24, Y+62	; 0x3e
    1dc2:	9f ad       	ldd	r25, Y+63	; 0x3f
    1dc4:	21 97       	sbiw	r28, 0x01	; 1
    1dc6:	0e 94 7e 43 	call	0x86fc	; 0x86fc <__floatsisf>
    1dca:	25 96       	adiw	r28, 0x05	; 5
    1dcc:	2c ad       	ldd	r18, Y+60	; 0x3c
    1dce:	3d ad       	ldd	r19, Y+61	; 0x3d
    1dd0:	4e ad       	ldd	r20, Y+62	; 0x3e
    1dd2:	5f ad       	ldd	r21, Y+63	; 0x3f
    1dd4:	25 97       	sbiw	r28, 0x05	; 5
    1dd6:	0e 94 32 44 	call	0x8864	; 0x8864 <__mulsf3>
    1dda:	20 e0       	ldi	r18, 0x00	; 0
    1ddc:	30 e0       	ldi	r19, 0x00	; 0
    1dde:	40 e0       	ldi	r20, 0x00	; 0
    1de0:	5f e3       	ldi	r21, 0x3F	; 63
    1de2:	0e 94 7b 42 	call	0x84f6	; 0x84f6 <__addsf3>
    1de6:	0e 94 4b 43 	call	0x8696	; 0x8696 <__fixsfsi>
    1dea:	2b 01       	movw	r4, r22
    1dec:	3c 01       	movw	r6, r24
          filtr.sens8 = (((metrology.cod_sensor8 - metrology.cod_zero_sensor8) * metrology.koef_sensor8) + 0.5);
    1dee:	29 96       	adiw	r28, 0x09	; 9
    1df0:	6c ad       	ldd	r22, Y+60	; 0x3c
    1df2:	7d ad       	ldd	r23, Y+61	; 0x3d
    1df4:	8e ad       	ldd	r24, Y+62	; 0x3e
    1df6:	9f ad       	ldd	r25, Y+63	; 0x3f
    1df8:	29 97       	sbiw	r28, 0x09	; 9
    1dfa:	0e 94 7e 43 	call	0x86fc	; 0x86fc <__floatsisf>
    1dfe:	2d 96       	adiw	r28, 0x0d	; 13
    1e00:	2c ad       	ldd	r18, Y+60	; 0x3c
    1e02:	3d ad       	ldd	r19, Y+61	; 0x3d
    1e04:	4e ad       	ldd	r20, Y+62	; 0x3e
    1e06:	5f ad       	ldd	r21, Y+63	; 0x3f
    1e08:	2d 97       	sbiw	r28, 0x0d	; 13
    1e0a:	0e 94 32 44 	call	0x8864	; 0x8864 <__mulsf3>
    1e0e:	20 e0       	ldi	r18, 0x00	; 0
    1e10:	30 e0       	ldi	r19, 0x00	; 0
    1e12:	40 e0       	ldi	r20, 0x00	; 0
    1e14:	5f e3       	ldi	r21, 0x3F	; 63
    1e16:	0e 94 7b 42 	call	0x84f6	; 0x84f6 <__addsf3>
    1e1a:	0e 94 4b 43 	call	0x8696	; 0x8696 <__fixsfsi>
    1e1e:	6d 8f       	std	Y+29, r22	; 0x1d
    1e20:	7e 8f       	std	Y+30, r23	; 0x1e
    1e22:	8f 8f       	std	Y+31, r24	; 0x1f
    1e24:	98 a3       	std	Y+32, r25	; 0x20
          if(param.sensor_number == 8){massa = filtr.sens1 + filtr.sens2 + filtr.sens3 + filtr.sens4 + filtr.sens5 + filtr.sens6 + filtr.sens7 + filtr.sens8 ; break;}
    1e26:	aa 96       	adiw	r28, 0x2a	; 42
    1e28:	1f ad       	ldd	r17, Y+63	; 0x3f
    1e2a:	aa 97       	sbiw	r28, 0x2a	; 42
    1e2c:	18 30       	cpi	r17, 0x08	; 8
    1e2e:	09 f0       	breq	.+2      	; 0x1e32 <_Z23converting_cod_to_massav+0x85c>
    1e30:	93 c0       	rjmp	.+294    	; 0x1f58 <_Z23converting_cod_to_massav+0x982>
    1e32:	e2 e4       	ldi	r30, 0x42	; 66
    1e34:	f4 e0       	ldi	r31, 0x04	; 4
    1e36:	29 89       	ldd	r18, Y+17	; 0x11
    1e38:	3a 89       	ldd	r19, Y+18	; 0x12
    1e3a:	4b 89       	ldd	r20, Y+19	; 0x13
    1e3c:	5c 89       	ldd	r21, Y+20	; 0x14
    1e3e:	20 87       	std	Z+8, r18	; 0x08
    1e40:	31 87       	std	Z+9, r19	; 0x09
    1e42:	42 87       	std	Z+10, r20	; 0x0a
    1e44:	53 87       	std	Z+11, r21	; 0x0b
    1e46:	8d 85       	ldd	r24, Y+13	; 0x0d
    1e48:	9e 85       	ldd	r25, Y+14	; 0x0e
    1e4a:	af 85       	ldd	r26, Y+15	; 0x0f
    1e4c:	b8 89       	ldd	r27, Y+16	; 0x10
    1e4e:	84 87       	std	Z+12, r24	; 0x0c
    1e50:	95 87       	std	Z+13, r25	; 0x0d
    1e52:	a6 87       	std	Z+14, r26	; 0x0e
    1e54:	b7 87       	std	Z+15, r27	; 0x0f
    1e56:	09 8d       	ldd	r16, Y+25	; 0x19
    1e58:	1a 8d       	ldd	r17, Y+26	; 0x1a
    1e5a:	2b 8d       	ldd	r18, Y+27	; 0x1b
    1e5c:	3c 8d       	ldd	r19, Y+28	; 0x1c
    1e5e:	00 8b       	std	Z+16, r16	; 0x10
    1e60:	11 8b       	std	Z+17, r17	; 0x11
    1e62:	22 8b       	std	Z+18, r18	; 0x12
    1e64:	33 8b       	std	Z+19, r19	; 0x13
    1e66:	2d 89       	ldd	r18, Y+21	; 0x15
    1e68:	3e 89       	ldd	r19, Y+22	; 0x16
    1e6a:	4f 89       	ldd	r20, Y+23	; 0x17
    1e6c:	58 8d       	ldd	r21, Y+24	; 0x18
    1e6e:	24 8b       	std	Z+20, r18	; 0x14
    1e70:	35 8b       	std	Z+21, r19	; 0x15
    1e72:	46 8b       	std	Z+22, r20	; 0x16
    1e74:	57 8b       	std	Z+23, r21	; 0x17
    1e76:	40 8e       	std	Z+24, r4	; 0x18
    1e78:	51 8e       	std	Z+25, r5	; 0x19
    1e7a:	62 8e       	std	Z+26, r6	; 0x1a
    1e7c:	73 8e       	std	Z+27, r7	; 0x1b
    1e7e:	8d 8d       	ldd	r24, Y+29	; 0x1d
    1e80:	9e 8d       	ldd	r25, Y+30	; 0x1e
    1e82:	af 8d       	ldd	r26, Y+31	; 0x1f
    1e84:	b8 a1       	ldd	r27, Y+32	; 0x20
    1e86:	84 8f       	std	Z+28, r24	; 0x1c
    1e88:	95 8f       	std	Z+29, r25	; 0x1d
    1e8a:	a6 8f       	std	Z+30, r26	; 0x1e
    1e8c:	b7 8f       	std	Z+31, r27	; 0x1f
    1e8e:	80 a2       	std	Z+32, r8	; 0x20
    1e90:	91 a2       	std	Z+33, r9	; 0x21
    1e92:	a2 a2       	std	Z+34, r10	; 0x22
    1e94:	b3 a2       	std	Z+35, r11	; 0x23
    1e96:	c4 a2       	std	Z+36, r12	; 0x24
    1e98:	d5 a2       	std	Z+37, r13	; 0x25
    1e9a:	e6 a2       	std	Z+38, r14	; 0x26
    1e9c:	f7 a2       	std	Z+39, r15	; 0x27
    1e9e:	0d a1       	ldd	r16, Y+37	; 0x25
    1ea0:	1e a1       	ldd	r17, Y+38	; 0x26
    1ea2:	2f a1       	ldd	r18, Y+39	; 0x27
    1ea4:	38 a5       	ldd	r19, Y+40	; 0x28
    1ea6:	00 a7       	std	Z+40, r16	; 0x28
    1ea8:	11 a7       	std	Z+41, r17	; 0x29
    1eaa:	22 a7       	std	Z+42, r18	; 0x2a
    1eac:	33 a7       	std	Z+43, r19	; 0x2b
    1eae:	29 a1       	ldd	r18, Y+33	; 0x21
    1eb0:	3a a1       	ldd	r19, Y+34	; 0x22
    1eb2:	4b a1       	ldd	r20, Y+35	; 0x23
    1eb4:	5c a1       	ldd	r21, Y+36	; 0x24
    1eb6:	24 a7       	std	Z+44, r18	; 0x2c
    1eb8:	35 a7       	std	Z+45, r19	; 0x2d
    1eba:	46 a7       	std	Z+46, r20	; 0x2e
    1ebc:	57 a7       	std	Z+47, r21	; 0x2f
    1ebe:	a5 96       	adiw	r28, 0x25	; 37
    1ec0:	8c ad       	ldd	r24, Y+60	; 0x3c
    1ec2:	9d ad       	ldd	r25, Y+61	; 0x3d
    1ec4:	ae ad       	ldd	r26, Y+62	; 0x3e
    1ec6:	bf ad       	ldd	r27, Y+63	; 0x3f
    1ec8:	a5 97       	sbiw	r28, 0x25	; 37
    1eca:	80 83       	st	Z, r24
    1ecc:	91 83       	std	Z+1, r25	; 0x01
    1ece:	a2 83       	std	Z+2, r26	; 0x02
    1ed0:	b3 83       	std	Z+3, r27	; 0x03
    1ed2:	a9 96       	adiw	r28, 0x29	; 41
    1ed4:	0c ad       	ldd	r16, Y+60	; 0x3c
    1ed6:	1d ad       	ldd	r17, Y+61	; 0x3d
    1ed8:	2e ad       	ldd	r18, Y+62	; 0x3e
    1eda:	3f ad       	ldd	r19, Y+63	; 0x3f
    1edc:	a9 97       	sbiw	r28, 0x29	; 41
    1ede:	04 83       	std	Z+4, r16	; 0x04
    1ee0:	15 83       	std	Z+5, r17	; 0x05
    1ee2:	26 83       	std	Z+6, r18	; 0x06
    1ee4:	37 83       	std	Z+7, r19	; 0x07
    1ee6:	80 0f       	add	r24, r16
    1ee8:	91 1f       	adc	r25, r17
    1eea:	a2 1f       	adc	r26, r18
    1eec:	b3 1f       	adc	r27, r19
    1eee:	29 89       	ldd	r18, Y+17	; 0x11
    1ef0:	3a 89       	ldd	r19, Y+18	; 0x12
    1ef2:	4b 89       	ldd	r20, Y+19	; 0x13
    1ef4:	5c 89       	ldd	r21, Y+20	; 0x14
    1ef6:	82 0f       	add	r24, r18
    1ef8:	93 1f       	adc	r25, r19
    1efa:	a4 1f       	adc	r26, r20
    1efc:	b5 1f       	adc	r27, r21
    1efe:	0d 85       	ldd	r16, Y+13	; 0x0d
    1f00:	1e 85       	ldd	r17, Y+14	; 0x0e
    1f02:	2f 85       	ldd	r18, Y+15	; 0x0f
    1f04:	38 89       	ldd	r19, Y+16	; 0x10
    1f06:	80 0f       	add	r24, r16
    1f08:	91 1f       	adc	r25, r17
    1f0a:	a2 1f       	adc	r26, r18
    1f0c:	b3 1f       	adc	r27, r19
    1f0e:	29 8d       	ldd	r18, Y+25	; 0x19
    1f10:	3a 8d       	ldd	r19, Y+26	; 0x1a
    1f12:	4b 8d       	ldd	r20, Y+27	; 0x1b
    1f14:	5c 8d       	ldd	r21, Y+28	; 0x1c
    1f16:	82 0f       	add	r24, r18
    1f18:	93 1f       	adc	r25, r19
    1f1a:	a4 1f       	adc	r26, r20
    1f1c:	b5 1f       	adc	r27, r21
    1f1e:	0d 89       	ldd	r16, Y+21	; 0x15
    1f20:	1e 89       	ldd	r17, Y+22	; 0x16
    1f22:	2f 89       	ldd	r18, Y+23	; 0x17
    1f24:	38 8d       	ldd	r19, Y+24	; 0x18
    1f26:	80 0f       	add	r24, r16
    1f28:	91 1f       	adc	r25, r17
    1f2a:	a2 1f       	adc	r26, r18
    1f2c:	b3 1f       	adc	r27, r19
    1f2e:	84 0d       	add	r24, r4
    1f30:	95 1d       	adc	r25, r5
    1f32:	a6 1d       	adc	r26, r6
    1f34:	b7 1d       	adc	r27, r7
    1f36:	4d 8c       	ldd	r4, Y+29	; 0x1d
    1f38:	5e 8c       	ldd	r5, Y+30	; 0x1e
    1f3a:	6f 8c       	ldd	r6, Y+31	; 0x1f
    1f3c:	78 a0       	ldd	r7, Y+32	; 0x20
    1f3e:	84 0d       	add	r24, r4
    1f40:	95 1d       	adc	r25, r5
    1f42:	a6 1d       	adc	r26, r6
    1f44:	b7 1d       	adc	r27, r7
    1f46:	80 93 7a 04 	sts	0x047A, r24	; 0x80047a <massa>
    1f4a:	90 93 7b 04 	sts	0x047B, r25	; 0x80047b <massa+0x1>
    1f4e:	a0 93 7c 04 	sts	0x047C, r26	; 0x80047c <massa+0x2>
    1f52:	b0 93 7d 04 	sts	0x047D, r27	; 0x80047d <massa+0x3>
    1f56:	b7 c1       	rjmp	.+878    	; 0x22c6 <__stack+0xc7>
          
          filtr.sens9 = (((metrology.cod_sensor9 - metrology.cod_zero_sensor9) * metrology.koef_sensor9) + 0.5);
    1f58:	61 96       	adiw	r28, 0x11	; 17
    1f5a:	6c ad       	ldd	r22, Y+60	; 0x3c
    1f5c:	7d ad       	ldd	r23, Y+61	; 0x3d
    1f5e:	8e ad       	ldd	r24, Y+62	; 0x3e
    1f60:	9f ad       	ldd	r25, Y+63	; 0x3f
    1f62:	61 97       	sbiw	r28, 0x11	; 17
    1f64:	0e 94 7e 43 	call	0x86fc	; 0x86fc <__floatsisf>
    1f68:	65 96       	adiw	r28, 0x15	; 21
    1f6a:	2c ad       	ldd	r18, Y+60	; 0x3c
    1f6c:	3d ad       	ldd	r19, Y+61	; 0x3d
    1f6e:	4e ad       	ldd	r20, Y+62	; 0x3e
    1f70:	5f ad       	ldd	r21, Y+63	; 0x3f
    1f72:	65 97       	sbiw	r28, 0x15	; 21
    1f74:	0e 94 32 44 	call	0x8864	; 0x8864 <__mulsf3>
    1f78:	20 e0       	ldi	r18, 0x00	; 0
    1f7a:	30 e0       	ldi	r19, 0x00	; 0
    1f7c:	40 e0       	ldi	r20, 0x00	; 0
    1f7e:	5f e3       	ldi	r21, 0x3F	; 63
    1f80:	0e 94 7b 42 	call	0x84f6	; 0x84f6 <__addsf3>
    1f84:	0e 94 4b 43 	call	0x8696	; 0x8696 <__fixsfsi>
    1f88:	4b 01       	movw	r8, r22
    1f8a:	5c 01       	movw	r10, r24
          filtr.sens10 = (((metrology.cod_sensor10 - metrology.cod_zero_sensor3) * metrology.koef_sensor3) + 0.5);
    1f8c:	69 96       	adiw	r28, 0x19	; 25
    1f8e:	6c ad       	ldd	r22, Y+60	; 0x3c
    1f90:	7d ad       	ldd	r23, Y+61	; 0x3d
    1f92:	8e ad       	ldd	r24, Y+62	; 0x3e
    1f94:	9f ad       	ldd	r25, Y+63	; 0x3f
    1f96:	69 97       	sbiw	r28, 0x19	; 25
    1f98:	0e 94 7e 43 	call	0x86fc	; 0x86fc <__floatsisf>
    1f9c:	29 81       	ldd	r18, Y+1	; 0x01
    1f9e:	3a 81       	ldd	r19, Y+2	; 0x02
    1fa0:	4b 81       	ldd	r20, Y+3	; 0x03
    1fa2:	5c 81       	ldd	r21, Y+4	; 0x04
    1fa4:	0e 94 32 44 	call	0x8864	; 0x8864 <__mulsf3>
    1fa8:	20 e0       	ldi	r18, 0x00	; 0
    1faa:	30 e0       	ldi	r19, 0x00	; 0
    1fac:	40 e0       	ldi	r20, 0x00	; 0
    1fae:	5f e3       	ldi	r21, 0x3F	; 63
    1fb0:	0e 94 7b 42 	call	0x84f6	; 0x84f6 <__addsf3>
    1fb4:	0e 94 4b 43 	call	0x8696	; 0x8696 <__fixsfsi>
    1fb8:	6b 01       	movw	r12, r22
    1fba:	7c 01       	movw	r14, r24
          if(param.sensor_number == 10){massa = filtr.sens1 + filtr.sens2 + filtr.sens3 + filtr.sens4 + filtr.sens5 + filtr.sens6 + filtr.sens7 + filtr.sens8 + filtr.sens9 + filtr.sens10 ; break;}
    1fbc:	aa 96       	adiw	r28, 0x2a	; 42
    1fbe:	0f ad       	ldd	r16, Y+63	; 0x3f
    1fc0:	aa 97       	sbiw	r28, 0x2a	; 42
    1fc2:	0a 30       	cpi	r16, 0x0A	; 10
    1fc4:	09 f0       	breq	.+2      	; 0x1fc8 <_Z23converting_cod_to_massav+0x9f2>
    1fc6:	9b c0       	rjmp	.+310    	; 0x20fe <__DATA_REGION_LENGTH__+0xfe>
    1fc8:	e2 e4       	ldi	r30, 0x42	; 66
    1fca:	f4 e0       	ldi	r31, 0x04	; 4
    1fcc:	29 89       	ldd	r18, Y+17	; 0x11
    1fce:	3a 89       	ldd	r19, Y+18	; 0x12
    1fd0:	4b 89       	ldd	r20, Y+19	; 0x13
    1fd2:	5c 89       	ldd	r21, Y+20	; 0x14
    1fd4:	20 87       	std	Z+8, r18	; 0x08
    1fd6:	31 87       	std	Z+9, r19	; 0x09
    1fd8:	42 87       	std	Z+10, r20	; 0x0a
    1fda:	53 87       	std	Z+11, r21	; 0x0b
    1fdc:	8d 85       	ldd	r24, Y+13	; 0x0d
    1fde:	9e 85       	ldd	r25, Y+14	; 0x0e
    1fe0:	af 85       	ldd	r26, Y+15	; 0x0f
    1fe2:	b8 89       	ldd	r27, Y+16	; 0x10
    1fe4:	84 87       	std	Z+12, r24	; 0x0c
    1fe6:	95 87       	std	Z+13, r25	; 0x0d
    1fe8:	a6 87       	std	Z+14, r26	; 0x0e
    1fea:	b7 87       	std	Z+15, r27	; 0x0f
    1fec:	09 8d       	ldd	r16, Y+25	; 0x19
    1fee:	1a 8d       	ldd	r17, Y+26	; 0x1a
    1ff0:	2b 8d       	ldd	r18, Y+27	; 0x1b
    1ff2:	3c 8d       	ldd	r19, Y+28	; 0x1c
    1ff4:	00 8b       	std	Z+16, r16	; 0x10
    1ff6:	11 8b       	std	Z+17, r17	; 0x11
    1ff8:	22 8b       	std	Z+18, r18	; 0x12
    1ffa:	33 8b       	std	Z+19, r19	; 0x13
    1ffc:	2d 89       	ldd	r18, Y+21	; 0x15
    1ffe:	3e 89       	ldd	r19, Y+22	; 0x16
    2000:	4f 89       	ldd	r20, Y+23	; 0x17
    2002:	58 8d       	ldd	r21, Y+24	; 0x18
    2004:	24 8b       	std	Z+20, r18	; 0x14
    2006:	35 8b       	std	Z+21, r19	; 0x15
    2008:	46 8b       	std	Z+22, r20	; 0x16
    200a:	57 8b       	std	Z+23, r21	; 0x17
    200c:	40 8e       	std	Z+24, r4	; 0x18
    200e:	51 8e       	std	Z+25, r5	; 0x19
    2010:	62 8e       	std	Z+26, r6	; 0x1a
    2012:	73 8e       	std	Z+27, r7	; 0x1b
    2014:	8d 8d       	ldd	r24, Y+29	; 0x1d
    2016:	9e 8d       	ldd	r25, Y+30	; 0x1e
    2018:	af 8d       	ldd	r26, Y+31	; 0x1f
    201a:	b8 a1       	ldd	r27, Y+32	; 0x20
    201c:	84 8f       	std	Z+28, r24	; 0x1c
    201e:	95 8f       	std	Z+29, r25	; 0x1d
    2020:	a6 8f       	std	Z+30, r26	; 0x1e
    2022:	b7 8f       	std	Z+31, r27	; 0x1f
    2024:	80 a2       	std	Z+32, r8	; 0x20
    2026:	91 a2       	std	Z+33, r9	; 0x21
    2028:	a2 a2       	std	Z+34, r10	; 0x22
    202a:	b3 a2       	std	Z+35, r11	; 0x23
    202c:	c4 a2       	std	Z+36, r12	; 0x24
    202e:	d5 a2       	std	Z+37, r13	; 0x25
    2030:	e6 a2       	std	Z+38, r14	; 0x26
    2032:	f7 a2       	std	Z+39, r15	; 0x27
    2034:	0d a1       	ldd	r16, Y+37	; 0x25
    2036:	1e a1       	ldd	r17, Y+38	; 0x26
    2038:	2f a1       	ldd	r18, Y+39	; 0x27
    203a:	38 a5       	ldd	r19, Y+40	; 0x28
    203c:	00 a7       	std	Z+40, r16	; 0x28
    203e:	11 a7       	std	Z+41, r17	; 0x29
    2040:	22 a7       	std	Z+42, r18	; 0x2a
    2042:	33 a7       	std	Z+43, r19	; 0x2b
    2044:	29 a1       	ldd	r18, Y+33	; 0x21
    2046:	3a a1       	ldd	r19, Y+34	; 0x22
    2048:	4b a1       	ldd	r20, Y+35	; 0x23
    204a:	5c a1       	ldd	r21, Y+36	; 0x24
    204c:	24 a7       	std	Z+44, r18	; 0x2c
    204e:	35 a7       	std	Z+45, r19	; 0x2d
    2050:	46 a7       	std	Z+46, r20	; 0x2e
    2052:	57 a7       	std	Z+47, r21	; 0x2f
    2054:	a5 96       	adiw	r28, 0x25	; 37
    2056:	8c ad       	ldd	r24, Y+60	; 0x3c
    2058:	9d ad       	ldd	r25, Y+61	; 0x3d
    205a:	ae ad       	ldd	r26, Y+62	; 0x3e
    205c:	bf ad       	ldd	r27, Y+63	; 0x3f
    205e:	a5 97       	sbiw	r28, 0x25	; 37
    2060:	80 83       	st	Z, r24
    2062:	91 83       	std	Z+1, r25	; 0x01
    2064:	a2 83       	std	Z+2, r26	; 0x02
    2066:	b3 83       	std	Z+3, r27	; 0x03
    2068:	a9 96       	adiw	r28, 0x29	; 41
    206a:	0c ad       	ldd	r16, Y+60	; 0x3c
    206c:	1d ad       	ldd	r17, Y+61	; 0x3d
    206e:	2e ad       	ldd	r18, Y+62	; 0x3e
    2070:	3f ad       	ldd	r19, Y+63	; 0x3f
    2072:	a9 97       	sbiw	r28, 0x29	; 41
    2074:	04 83       	std	Z+4, r16	; 0x04
    2076:	15 83       	std	Z+5, r17	; 0x05
    2078:	26 83       	std	Z+6, r18	; 0x06
    207a:	37 83       	std	Z+7, r19	; 0x07
    207c:	80 0f       	add	r24, r16
    207e:	91 1f       	adc	r25, r17
    2080:	a2 1f       	adc	r26, r18
    2082:	b3 1f       	adc	r27, r19
    2084:	29 89       	ldd	r18, Y+17	; 0x11
    2086:	3a 89       	ldd	r19, Y+18	; 0x12
    2088:	4b 89       	ldd	r20, Y+19	; 0x13
    208a:	5c 89       	ldd	r21, Y+20	; 0x14
    208c:	82 0f       	add	r24, r18
    208e:	93 1f       	adc	r25, r19
    2090:	a4 1f       	adc	r26, r20
    2092:	b5 1f       	adc	r27, r21
    2094:	0d 85       	ldd	r16, Y+13	; 0x0d
    2096:	1e 85       	ldd	r17, Y+14	; 0x0e
    2098:	2f 85       	ldd	r18, Y+15	; 0x0f
    209a:	38 89       	ldd	r19, Y+16	; 0x10
    209c:	80 0f       	add	r24, r16
    209e:	91 1f       	adc	r25, r17
    20a0:	a2 1f       	adc	r26, r18
    20a2:	b3 1f       	adc	r27, r19
    20a4:	29 8d       	ldd	r18, Y+25	; 0x19
    20a6:	3a 8d       	ldd	r19, Y+26	; 0x1a
    20a8:	4b 8d       	ldd	r20, Y+27	; 0x1b
    20aa:	5c 8d       	ldd	r21, Y+28	; 0x1c
    20ac:	82 0f       	add	r24, r18
    20ae:	93 1f       	adc	r25, r19
    20b0:	a4 1f       	adc	r26, r20
    20b2:	b5 1f       	adc	r27, r21
    20b4:	0d 89       	ldd	r16, Y+21	; 0x15
    20b6:	1e 89       	ldd	r17, Y+22	; 0x16
    20b8:	2f 89       	ldd	r18, Y+23	; 0x17
    20ba:	38 8d       	ldd	r19, Y+24	; 0x18
    20bc:	80 0f       	add	r24, r16
    20be:	91 1f       	adc	r25, r17
    20c0:	a2 1f       	adc	r26, r18
    20c2:	b3 1f       	adc	r27, r19
    20c4:	84 0d       	add	r24, r4
    20c6:	95 1d       	adc	r25, r5
    20c8:	a6 1d       	adc	r26, r6
    20ca:	b7 1d       	adc	r27, r7
    20cc:	4d 8c       	ldd	r4, Y+29	; 0x1d
    20ce:	5e 8c       	ldd	r5, Y+30	; 0x1e
    20d0:	6f 8c       	ldd	r6, Y+31	; 0x1f
    20d2:	78 a0       	ldd	r7, Y+32	; 0x20
    20d4:	84 0d       	add	r24, r4
    20d6:	95 1d       	adc	r25, r5
    20d8:	a6 1d       	adc	r26, r6
    20da:	b7 1d       	adc	r27, r7
    20dc:	88 0e       	add	r8, r24
    20de:	99 1e       	adc	r9, r25
    20e0:	aa 1e       	adc	r10, r26
    20e2:	bb 1e       	adc	r11, r27
    20e4:	c8 0c       	add	r12, r8
    20e6:	d9 1c       	adc	r13, r9
    20e8:	ea 1c       	adc	r14, r10
    20ea:	fb 1c       	adc	r15, r11
    20ec:	c0 92 7a 04 	sts	0x047A, r12	; 0x80047a <massa>
    20f0:	d0 92 7b 04 	sts	0x047B, r13	; 0x80047b <massa+0x1>
    20f4:	e0 92 7c 04 	sts	0x047C, r14	; 0x80047c <massa+0x2>
    20f8:	f0 92 7d 04 	sts	0x047D, r15	; 0x80047d <massa+0x3>
    20fc:	e4 c0       	rjmp	.+456    	; 0x22c6 <__stack+0xc7>
          
          filtr.sens11 = (((metrology.cod_sensor11 - metrology.cod_zero_sensor4) * metrology.koef_sensor4) + 0.5);
    20fe:	6d 96       	adiw	r28, 0x1d	; 29
    2100:	6c ad       	ldd	r22, Y+60	; 0x3c
    2102:	7d ad       	ldd	r23, Y+61	; 0x3d
    2104:	8e ad       	ldd	r24, Y+62	; 0x3e
    2106:	9f ad       	ldd	r25, Y+63	; 0x3f
    2108:	6d 97       	sbiw	r28, 0x1d	; 29
    210a:	0e 94 7e 43 	call	0x86fc	; 0x86fc <__floatsisf>
    210e:	2d 81       	ldd	r18, Y+5	; 0x05
    2110:	3e 81       	ldd	r19, Y+6	; 0x06
    2112:	4f 81       	ldd	r20, Y+7	; 0x07
    2114:	58 85       	ldd	r21, Y+8	; 0x08
    2116:	0e 94 32 44 	call	0x8864	; 0x8864 <__mulsf3>
    211a:	20 e0       	ldi	r18, 0x00	; 0
    211c:	30 e0       	ldi	r19, 0x00	; 0
    211e:	40 e0       	ldi	r20, 0x00	; 0
    2120:	5f e3       	ldi	r21, 0x3F	; 63
    2122:	0e 94 7b 42 	call	0x84f6	; 0x84f6 <__addsf3>
    2126:	0e 94 4b 43 	call	0x8696	; 0x8696 <__fixsfsi>
    212a:	6d a3       	std	Y+37, r22	; 0x25
    212c:	7e a3       	std	Y+38, r23	; 0x26
    212e:	8f a3       	std	Y+39, r24	; 0x27
    2130:	98 a7       	std	Y+40, r25	; 0x28
          filtr.sens12 = (((metrology.cod_sensor12 - metrology.cod_zero_sensor5) * metrology.koef_sensor5) + 0.5);
    2132:	a1 96       	adiw	r28, 0x21	; 33
    2134:	6c ad       	ldd	r22, Y+60	; 0x3c
    2136:	7d ad       	ldd	r23, Y+61	; 0x3d
    2138:	8e ad       	ldd	r24, Y+62	; 0x3e
    213a:	9f ad       	ldd	r25, Y+63	; 0x3f
    213c:	a1 97       	sbiw	r28, 0x21	; 33
    213e:	0e 94 7e 43 	call	0x86fc	; 0x86fc <__floatsisf>
    2142:	29 85       	ldd	r18, Y+9	; 0x09
    2144:	3a 85       	ldd	r19, Y+10	; 0x0a
    2146:	4b 85       	ldd	r20, Y+11	; 0x0b
    2148:	5c 85       	ldd	r21, Y+12	; 0x0c
    214a:	0e 94 32 44 	call	0x8864	; 0x8864 <__mulsf3>
    214e:	20 e0       	ldi	r18, 0x00	; 0
    2150:	30 e0       	ldi	r19, 0x00	; 0
    2152:	40 e0       	ldi	r20, 0x00	; 0
    2154:	5f e3       	ldi	r21, 0x3F	; 63
    2156:	0e 94 7b 42 	call	0x84f6	; 0x84f6 <__addsf3>
    215a:	0e 94 4b 43 	call	0x8696	; 0x8696 <__fixsfsi>
    215e:	69 a3       	std	Y+33, r22	; 0x21
    2160:	7a a3       	std	Y+34, r23	; 0x22
    2162:	8b a3       	std	Y+35, r24	; 0x23
    2164:	9c a3       	std	Y+36, r25	; 0x24
          if(param.sensor_number == 12){
    2166:	aa 96       	adiw	r28, 0x2a	; 42
    2168:	0f ad       	ldd	r16, Y+63	; 0x3f
    216a:	aa 97       	sbiw	r28, 0x2a	; 42
    216c:	0c 30       	cpi	r16, 0x0C	; 12
    216e:	09 f0       	breq	.+2      	; 0x2172 <__DATA_REGION_LENGTH__+0x172>
    2170:	33 cc       	rjmp	.-1946   	; 0x19d8 <_Z23converting_cod_to_massav+0x402>
    2172:	e2 e4       	ldi	r30, 0x42	; 66
    2174:	f4 e0       	ldi	r31, 0x04	; 4
    2176:	29 89       	ldd	r18, Y+17	; 0x11
    2178:	3a 89       	ldd	r19, Y+18	; 0x12
    217a:	4b 89       	ldd	r20, Y+19	; 0x13
    217c:	5c 89       	ldd	r21, Y+20	; 0x14
    217e:	20 87       	std	Z+8, r18	; 0x08
    2180:	31 87       	std	Z+9, r19	; 0x09
    2182:	42 87       	std	Z+10, r20	; 0x0a
    2184:	53 87       	std	Z+11, r21	; 0x0b
    2186:	8d 85       	ldd	r24, Y+13	; 0x0d
    2188:	9e 85       	ldd	r25, Y+14	; 0x0e
    218a:	af 85       	ldd	r26, Y+15	; 0x0f
    218c:	b8 89       	ldd	r27, Y+16	; 0x10
    218e:	84 87       	std	Z+12, r24	; 0x0c
    2190:	95 87       	std	Z+13, r25	; 0x0d
    2192:	a6 87       	std	Z+14, r26	; 0x0e
    2194:	b7 87       	std	Z+15, r27	; 0x0f
    2196:	09 8d       	ldd	r16, Y+25	; 0x19
    2198:	1a 8d       	ldd	r17, Y+26	; 0x1a
    219a:	2b 8d       	ldd	r18, Y+27	; 0x1b
    219c:	3c 8d       	ldd	r19, Y+28	; 0x1c
    219e:	00 8b       	std	Z+16, r16	; 0x10
    21a0:	11 8b       	std	Z+17, r17	; 0x11
    21a2:	22 8b       	std	Z+18, r18	; 0x12
    21a4:	33 8b       	std	Z+19, r19	; 0x13
    21a6:	2d 89       	ldd	r18, Y+21	; 0x15
    21a8:	3e 89       	ldd	r19, Y+22	; 0x16
    21aa:	4f 89       	ldd	r20, Y+23	; 0x17
    21ac:	58 8d       	ldd	r21, Y+24	; 0x18
    21ae:	24 8b       	std	Z+20, r18	; 0x14
    21b0:	35 8b       	std	Z+21, r19	; 0x15
    21b2:	46 8b       	std	Z+22, r20	; 0x16
    21b4:	57 8b       	std	Z+23, r21	; 0x17
    21b6:	40 8e       	std	Z+24, r4	; 0x18
    21b8:	51 8e       	std	Z+25, r5	; 0x19
    21ba:	62 8e       	std	Z+26, r6	; 0x1a
    21bc:	73 8e       	std	Z+27, r7	; 0x1b
    21be:	8d 8d       	ldd	r24, Y+29	; 0x1d
    21c0:	9e 8d       	ldd	r25, Y+30	; 0x1e
    21c2:	af 8d       	ldd	r26, Y+31	; 0x1f
    21c4:	b8 a1       	ldd	r27, Y+32	; 0x20
    21c6:	84 8f       	std	Z+28, r24	; 0x1c
    21c8:	95 8f       	std	Z+29, r25	; 0x1d
    21ca:	a6 8f       	std	Z+30, r26	; 0x1e
    21cc:	b7 8f       	std	Z+31, r27	; 0x1f
    21ce:	80 a2       	std	Z+32, r8	; 0x20
    21d0:	91 a2       	std	Z+33, r9	; 0x21
    21d2:	a2 a2       	std	Z+34, r10	; 0x22
    21d4:	b3 a2       	std	Z+35, r11	; 0x23
    21d6:	c4 a2       	std	Z+36, r12	; 0x24
    21d8:	d5 a2       	std	Z+37, r13	; 0x25
    21da:	e6 a2       	std	Z+38, r14	; 0x26
    21dc:	f7 a2       	std	Z+39, r15	; 0x27
    21de:	0d a1       	ldd	r16, Y+37	; 0x25
    21e0:	1e a1       	ldd	r17, Y+38	; 0x26
    21e2:	2f a1       	ldd	r18, Y+39	; 0x27
    21e4:	38 a5       	ldd	r19, Y+40	; 0x28
    21e6:	00 a7       	std	Z+40, r16	; 0x28
    21e8:	11 a7       	std	Z+41, r17	; 0x29
    21ea:	22 a7       	std	Z+42, r18	; 0x2a
    21ec:	33 a7       	std	Z+43, r19	; 0x2b
    21ee:	29 a1       	ldd	r18, Y+33	; 0x21
    21f0:	3a a1       	ldd	r19, Y+34	; 0x22
    21f2:	4b a1       	ldd	r20, Y+35	; 0x23
    21f4:	5c a1       	ldd	r21, Y+36	; 0x24
    21f6:	24 a7       	std	Z+44, r18	; 0x2c
    21f8:	35 a7       	std	Z+45, r19	; 0x2d
    21fa:	46 a7       	std	Z+46, r20	; 0x2e
    21fc:	57 a7       	std	Z+47, r21	; 0x2f
    21fe:	a5 96       	adiw	r28, 0x25	; 37
    2200:	8c ad       	ldd	r24, Y+60	; 0x3c
    2202:	9d ad       	ldd	r25, Y+61	; 0x3d
    2204:	ae ad       	ldd	r26, Y+62	; 0x3e
    2206:	bf ad       	ldd	r27, Y+63	; 0x3f
    2208:	a5 97       	sbiw	r28, 0x25	; 37
    220a:	80 83       	st	Z, r24
    220c:	91 83       	std	Z+1, r25	; 0x01
    220e:	a2 83       	std	Z+2, r26	; 0x02
    2210:	b3 83       	std	Z+3, r27	; 0x03
    2212:	a9 96       	adiw	r28, 0x29	; 41
    2214:	0c ad       	ldd	r16, Y+60	; 0x3c
    2216:	1d ad       	ldd	r17, Y+61	; 0x3d
    2218:	2e ad       	ldd	r18, Y+62	; 0x3e
    221a:	3f ad       	ldd	r19, Y+63	; 0x3f
    221c:	a9 97       	sbiw	r28, 0x29	; 41
    221e:	04 83       	std	Z+4, r16	; 0x04
    2220:	15 83       	std	Z+5, r17	; 0x05
    2222:	26 83       	std	Z+6, r18	; 0x06
    2224:	37 83       	std	Z+7, r19	; 0x07
          massa = filtr.sens1 + filtr.sens2 + filtr.sens3 + filtr.sens4 + filtr.sens5 + filtr.sens6 + filtr.sens7 + filtr.sens8 + filtr.sens9 + filtr.sens10 + filtr.sens11 + filtr.sens12  ; break;}
    2226:	80 0f       	add	r24, r16
    2228:	91 1f       	adc	r25, r17
    222a:	a2 1f       	adc	r26, r18
    222c:	b3 1f       	adc	r27, r19
    222e:	29 89       	ldd	r18, Y+17	; 0x11
    2230:	3a 89       	ldd	r19, Y+18	; 0x12
    2232:	4b 89       	ldd	r20, Y+19	; 0x13
    2234:	5c 89       	ldd	r21, Y+20	; 0x14
    2236:	82 0f       	add	r24, r18
    2238:	93 1f       	adc	r25, r19
    223a:	a4 1f       	adc	r26, r20
    223c:	b5 1f       	adc	r27, r21
    223e:	0d 85       	ldd	r16, Y+13	; 0x0d
    2240:	1e 85       	ldd	r17, Y+14	; 0x0e
    2242:	2f 85       	ldd	r18, Y+15	; 0x0f
    2244:	38 89       	ldd	r19, Y+16	; 0x10
    2246:	80 0f       	add	r24, r16
    2248:	91 1f       	adc	r25, r17
    224a:	a2 1f       	adc	r26, r18
    224c:	b3 1f       	adc	r27, r19
    224e:	29 8d       	ldd	r18, Y+25	; 0x19
    2250:	3a 8d       	ldd	r19, Y+26	; 0x1a
    2252:	4b 8d       	ldd	r20, Y+27	; 0x1b
    2254:	5c 8d       	ldd	r21, Y+28	; 0x1c
    2256:	82 0f       	add	r24, r18
    2258:	93 1f       	adc	r25, r19
    225a:	a4 1f       	adc	r26, r20
    225c:	b5 1f       	adc	r27, r21
    225e:	0d 89       	ldd	r16, Y+21	; 0x15
    2260:	1e 89       	ldd	r17, Y+22	; 0x16
    2262:	2f 89       	ldd	r18, Y+23	; 0x17
    2264:	38 8d       	ldd	r19, Y+24	; 0x18
    2266:	80 0f       	add	r24, r16
    2268:	91 1f       	adc	r25, r17
    226a:	a2 1f       	adc	r26, r18
    226c:	b3 1f       	adc	r27, r19
    226e:	48 0e       	add	r4, r24
    2270:	59 1e       	adc	r5, r25
    2272:	6a 1e       	adc	r6, r26
    2274:	7b 1e       	adc	r7, r27
    2276:	2d 8d       	ldd	r18, Y+29	; 0x1d
    2278:	3e 8d       	ldd	r19, Y+30	; 0x1e
    227a:	4f 8d       	ldd	r20, Y+31	; 0x1f
    227c:	58 a1       	ldd	r21, Y+32	; 0x20
    227e:	42 0e       	add	r4, r18
    2280:	53 1e       	adc	r5, r19
    2282:	64 1e       	adc	r6, r20
    2284:	75 1e       	adc	r7, r21
    2286:	48 0c       	add	r4, r8
    2288:	59 1c       	adc	r5, r9
    228a:	6a 1c       	adc	r6, r10
    228c:	7b 1c       	adc	r7, r11
    228e:	c4 0c       	add	r12, r4
    2290:	d5 1c       	adc	r13, r5
    2292:	e6 1c       	adc	r14, r6
    2294:	f7 1c       	adc	r15, r7
    2296:	4d a0       	ldd	r4, Y+37	; 0x25
    2298:	5e a0       	ldd	r5, Y+38	; 0x26
    229a:	6f a0       	ldd	r6, Y+39	; 0x27
    229c:	78 a4       	ldd	r7, Y+40	; 0x28
    229e:	c4 0c       	add	r12, r4
    22a0:	d5 1c       	adc	r13, r5
    22a2:	e6 1c       	adc	r14, r6
    22a4:	f7 1c       	adc	r15, r7
    22a6:	49 a0       	ldd	r4, Y+33	; 0x21
    22a8:	5a a0       	ldd	r5, Y+34	; 0x22
    22aa:	6b a0       	ldd	r6, Y+35	; 0x23
    22ac:	7c a0       	ldd	r7, Y+36	; 0x24
    22ae:	c4 0c       	add	r12, r4
    22b0:	d5 1c       	adc	r13, r5
    22b2:	e6 1c       	adc	r14, r6
    22b4:	f7 1c       	adc	r15, r7
    22b6:	c0 92 7a 04 	sts	0x047A, r12	; 0x80047a <massa>
    22ba:	d0 92 7b 04 	sts	0x047B, r13	; 0x80047b <massa+0x1>
    22be:	e0 92 7c 04 	sts	0x047C, r14	; 0x80047c <massa+0x2>
    22c2:	f0 92 7d 04 	sts	0x047D, r15	; 0x80047d <massa+0x3>
     }
}
    22c6:	c7 59       	subi	r28, 0x97	; 151
    22c8:	df 4f       	sbci	r29, 0xFF	; 255
    22ca:	0f b6       	in	r0, 0x3f	; 63
    22cc:	f8 94       	cli
    22ce:	de bf       	out	0x3e, r29	; 62
    22d0:	0f be       	out	0x3f, r0	; 63
    22d2:	cd bf       	out	0x3d, r28	; 61
    22d4:	df 91       	pop	r29
    22d6:	cf 91       	pop	r28
    22d8:	1f 91       	pop	r17
    22da:	0f 91       	pop	r16
    22dc:	ff 90       	pop	r15
    22de:	ef 90       	pop	r14
    22e0:	df 90       	pop	r13
    22e2:	cf 90       	pop	r12
    22e4:	bf 90       	pop	r11
    22e6:	af 90       	pop	r10
    22e8:	9f 90       	pop	r9
    22ea:	8f 90       	pop	r8
    22ec:	7f 90       	pop	r7
    22ee:	6f 90       	pop	r6
    22f0:	5f 90       	pop	r5
    22f2:	4f 90       	pop	r4
    22f4:	3f 90       	pop	r3
    22f6:	08 95       	ret

000022f8 <_Z9zero_funkh>:

void zero_funk (uint8_t eprom_ok)                      // функция обнуления. если ей передать 0 то будет просто обнуление, а если 1 то еще и запись в еепром
{
    22f8:	0f 93       	push	r16
    22fa:	1f 93       	push	r17
    22fc:	cf 93       	push	r28
    22fe:	df 93       	push	r29
     metrology.cod_zero_sensor1  = metrology.cod_sensor1;
    2300:	e5 e0       	ldi	r30, 0x05	; 5
    2302:	f5 e0       	ldi	r31, 0x05	; 5
    2304:	44 85       	ldd	r20, Z+12	; 0x0c
    2306:	55 85       	ldd	r21, Z+13	; 0x0d
    2308:	66 85       	ldd	r22, Z+14	; 0x0e
    230a:	77 85       	ldd	r23, Z+15	; 0x0f
    230c:	40 87       	std	Z+8, r20	; 0x08
    230e:	51 87       	std	Z+9, r21	; 0x09
    2310:	62 87       	std	Z+10, r22	; 0x0a
    2312:	73 87       	std	Z+11, r23	; 0x0b
     metrology.cod_zero_sensor2  = metrology.cod_sensor2;
    2314:	00 8d       	ldd	r16, Z+24	; 0x18
    2316:	11 8d       	ldd	r17, Z+25	; 0x19
    2318:	22 8d       	ldd	r18, Z+26	; 0x1a
    231a:	33 8d       	ldd	r19, Z+27	; 0x1b
    231c:	04 8b       	std	Z+20, r16	; 0x14
    231e:	15 8b       	std	Z+21, r17	; 0x15
    2320:	26 8b       	std	Z+22, r18	; 0x16
    2322:	37 8b       	std	Z+23, r19	; 0x17
     metrology.cod_zero_sensor3  = metrology.cod_sensor3;
    2324:	04 a1       	ldd	r16, Z+36	; 0x24
    2326:	15 a1       	ldd	r17, Z+37	; 0x25
    2328:	26 a1       	ldd	r18, Z+38	; 0x26
    232a:	37 a1       	ldd	r19, Z+39	; 0x27
    232c:	00 a3       	std	Z+32, r16	; 0x20
    232e:	11 a3       	std	Z+33, r17	; 0x21
    2330:	22 a3       	std	Z+34, r18	; 0x22
    2332:	33 a3       	std	Z+35, r19	; 0x23
     metrology.cod_zero_sensor4  = metrology.cod_sensor4;
    2334:	00 a9       	ldd	r16, Z+48	; 0x30
    2336:	11 a9       	ldd	r17, Z+49	; 0x31
    2338:	22 a9       	ldd	r18, Z+50	; 0x32
    233a:	33 a9       	ldd	r19, Z+51	; 0x33
    233c:	04 a7       	std	Z+44, r16	; 0x2c
    233e:	15 a7       	std	Z+45, r17	; 0x2d
    2340:	26 a7       	std	Z+46, r18	; 0x2e
    2342:	37 a7       	std	Z+47, r19	; 0x2f
     metrology.cod_zero_sensor5  = metrology.cod_sensor5;
    2344:	04 ad       	ldd	r16, Z+60	; 0x3c
    2346:	15 ad       	ldd	r17, Z+61	; 0x3d
    2348:	26 ad       	ldd	r18, Z+62	; 0x3e
    234a:	37 ad       	ldd	r19, Z+63	; 0x3f
    234c:	00 af       	std	Z+56, r16	; 0x38
    234e:	11 af       	std	Z+57, r17	; 0x39
    2350:	22 af       	std	Z+58, r18	; 0x3a
    2352:	33 af       	std	Z+59, r19	; 0x3b
     metrology.cod_zero_sensor6  = metrology.cod_sensor6;
    2354:	00 91 4d 05 	lds	r16, 0x054D	; 0x80054d <metrology+0x48>
    2358:	10 91 4e 05 	lds	r17, 0x054E	; 0x80054e <metrology+0x49>
    235c:	20 91 4f 05 	lds	r18, 0x054F	; 0x80054f <metrology+0x4a>
    2360:	30 91 50 05 	lds	r19, 0x0550	; 0x800550 <metrology+0x4b>
    2364:	00 93 49 05 	sts	0x0549, r16	; 0x800549 <metrology+0x44>
    2368:	10 93 4a 05 	sts	0x054A, r17	; 0x80054a <metrology+0x45>
    236c:	20 93 4b 05 	sts	0x054B, r18	; 0x80054b <metrology+0x46>
    2370:	30 93 4c 05 	sts	0x054C, r19	; 0x80054c <metrology+0x47>
     metrology.cod_zero_sensor7  = metrology.cod_sensor7;
    2374:	00 91 59 05 	lds	r16, 0x0559	; 0x800559 <metrology+0x54>
    2378:	10 91 5a 05 	lds	r17, 0x055A	; 0x80055a <metrology+0x55>
    237c:	20 91 5b 05 	lds	r18, 0x055B	; 0x80055b <metrology+0x56>
    2380:	30 91 5c 05 	lds	r19, 0x055C	; 0x80055c <metrology+0x57>
    2384:	00 93 55 05 	sts	0x0555, r16	; 0x800555 <metrology+0x50>
    2388:	10 93 56 05 	sts	0x0556, r17	; 0x800556 <metrology+0x51>
    238c:	20 93 57 05 	sts	0x0557, r18	; 0x800557 <metrology+0x52>
    2390:	30 93 58 05 	sts	0x0558, r19	; 0x800558 <metrology+0x53>
     metrology.cod_zero_sensor8  = metrology.cod_sensor8;
    2394:	00 91 65 05 	lds	r16, 0x0565	; 0x800565 <metrology+0x60>
    2398:	10 91 66 05 	lds	r17, 0x0566	; 0x800566 <metrology+0x61>
    239c:	20 91 67 05 	lds	r18, 0x0567	; 0x800567 <metrology+0x62>
    23a0:	30 91 68 05 	lds	r19, 0x0568	; 0x800568 <metrology+0x63>
    23a4:	00 93 61 05 	sts	0x0561, r16	; 0x800561 <metrology+0x5c>
    23a8:	10 93 62 05 	sts	0x0562, r17	; 0x800562 <metrology+0x5d>
    23ac:	20 93 63 05 	sts	0x0563, r18	; 0x800563 <metrology+0x5e>
    23b0:	30 93 64 05 	sts	0x0564, r19	; 0x800564 <metrology+0x5f>
     metrology.cod_zero_sensor9  = metrology.cod_sensor9;
    23b4:	00 91 71 05 	lds	r16, 0x0571	; 0x800571 <metrology+0x6c>
    23b8:	10 91 72 05 	lds	r17, 0x0572	; 0x800572 <metrology+0x6d>
    23bc:	20 91 73 05 	lds	r18, 0x0573	; 0x800573 <metrology+0x6e>
    23c0:	30 91 74 05 	lds	r19, 0x0574	; 0x800574 <metrology+0x6f>
    23c4:	00 93 6d 05 	sts	0x056D, r16	; 0x80056d <metrology+0x68>
    23c8:	10 93 6e 05 	sts	0x056E, r17	; 0x80056e <metrology+0x69>
    23cc:	20 93 6f 05 	sts	0x056F, r18	; 0x80056f <metrology+0x6a>
    23d0:	30 93 70 05 	sts	0x0570, r19	; 0x800570 <metrology+0x6b>
     metrology.cod_zero_sensor10 = metrology.cod_sensor10;
    23d4:	00 91 7d 05 	lds	r16, 0x057D	; 0x80057d <metrology+0x78>
    23d8:	10 91 7e 05 	lds	r17, 0x057E	; 0x80057e <metrology+0x79>
    23dc:	20 91 7f 05 	lds	r18, 0x057F	; 0x80057f <metrology+0x7a>
    23e0:	30 91 80 05 	lds	r19, 0x0580	; 0x800580 <metrology+0x7b>
    23e4:	00 93 79 05 	sts	0x0579, r16	; 0x800579 <metrology+0x74>
    23e8:	10 93 7a 05 	sts	0x057A, r17	; 0x80057a <metrology+0x75>
    23ec:	20 93 7b 05 	sts	0x057B, r18	; 0x80057b <metrology+0x76>
    23f0:	30 93 7c 05 	sts	0x057C, r19	; 0x80057c <metrology+0x77>
     metrology.cod_zero_sensor11 = metrology.cod_sensor11;
    23f4:	00 91 89 05 	lds	r16, 0x0589	; 0x800589 <metrology+0x84>
    23f8:	10 91 8a 05 	lds	r17, 0x058A	; 0x80058a <metrology+0x85>
    23fc:	20 91 8b 05 	lds	r18, 0x058B	; 0x80058b <metrology+0x86>
    2400:	30 91 8c 05 	lds	r19, 0x058C	; 0x80058c <metrology+0x87>
    2404:	00 93 85 05 	sts	0x0585, r16	; 0x800585 <metrology+0x80>
    2408:	10 93 86 05 	sts	0x0586, r17	; 0x800586 <metrology+0x81>
    240c:	20 93 87 05 	sts	0x0587, r18	; 0x800587 <metrology+0x82>
    2410:	30 93 88 05 	sts	0x0588, r19	; 0x800588 <metrology+0x83>
     metrology.cod_zero_sensor12 = metrology.cod_sensor12;
    2414:	00 91 95 05 	lds	r16, 0x0595	; 0x800595 <metrology+0x90>
    2418:	10 91 96 05 	lds	r17, 0x0596	; 0x800596 <metrology+0x91>
    241c:	20 91 97 05 	lds	r18, 0x0597	; 0x800597 <metrology+0x92>
    2420:	30 91 98 05 	lds	r19, 0x0598	; 0x800598 <metrology+0x93>
    2424:	00 93 91 05 	sts	0x0591, r16	; 0x800591 <metrology+0x8c>
    2428:	10 93 92 05 	sts	0x0592, r17	; 0x800592 <metrology+0x8d>
    242c:	20 93 93 05 	sts	0x0593, r18	; 0x800593 <metrology+0x8e>
    2430:	30 93 94 05 	sts	0x0594, r19	; 0x800594 <metrology+0x8f>
     if (eprom_ok) {
    2434:	88 23       	and	r24, r24
    2436:	09 f4       	brne	.+2      	; 0x243a <_Z9zero_funkh+0x142>
    2438:	7a c0       	rjmp	.+244    	; 0x252e <_Z9zero_funkh+0x236>
          EEPROM_write_32t(EE_ZEROSENS1,metrology.cod_zero_sensor1);
    243a:	88 e5       	ldi	r24, 0x58	; 88
    243c:	90 e0       	ldi	r25, 0x00	; 0
    243e:	0e 94 5b 04 	call	0x8b6	; 0x8b6 <_Z16EEPROM_write_32tjm>
          EEPROM_write_32t(EE_ZEROSENS2,metrology.cod_zero_sensor2);
    2442:	c5 e0       	ldi	r28, 0x05	; 5
    2444:	d5 e0       	ldi	r29, 0x05	; 5
    2446:	4c 89       	ldd	r20, Y+20	; 0x14
    2448:	5d 89       	ldd	r21, Y+21	; 0x15
    244a:	6e 89       	ldd	r22, Y+22	; 0x16
    244c:	7f 89       	ldd	r23, Y+23	; 0x17
    244e:	8c e5       	ldi	r24, 0x5C	; 92
    2450:	90 e0       	ldi	r25, 0x00	; 0
    2452:	0e 94 5b 04 	call	0x8b6	; 0x8b6 <_Z16EEPROM_write_32tjm>
          EEPROM_write_32t(EE_ZEROSENS3,metrology.cod_zero_sensor3);
    2456:	48 a1       	ldd	r20, Y+32	; 0x20
    2458:	59 a1       	ldd	r21, Y+33	; 0x21
    245a:	6a a1       	ldd	r22, Y+34	; 0x22
    245c:	7b a1       	ldd	r23, Y+35	; 0x23
    245e:	80 e6       	ldi	r24, 0x60	; 96
    2460:	90 e0       	ldi	r25, 0x00	; 0
    2462:	0e 94 5b 04 	call	0x8b6	; 0x8b6 <_Z16EEPROM_write_32tjm>
          EEPROM_write_32t(EE_ZEROSENS4,metrology.cod_zero_sensor4);
    2466:	4c a5       	ldd	r20, Y+44	; 0x2c
    2468:	5d a5       	ldd	r21, Y+45	; 0x2d
    246a:	6e a5       	ldd	r22, Y+46	; 0x2e
    246c:	7f a5       	ldd	r23, Y+47	; 0x2f
    246e:	84 e6       	ldi	r24, 0x64	; 100
    2470:	90 e0       	ldi	r25, 0x00	; 0
    2472:	0e 94 5b 04 	call	0x8b6	; 0x8b6 <_Z16EEPROM_write_32tjm>
          EEPROM_write_32t(EE_ZEROSENS5,metrology.cod_zero_sensor5);
    2476:	48 ad       	ldd	r20, Y+56	; 0x38
    2478:	59 ad       	ldd	r21, Y+57	; 0x39
    247a:	6a ad       	ldd	r22, Y+58	; 0x3a
    247c:	7b ad       	ldd	r23, Y+59	; 0x3b
    247e:	88 e6       	ldi	r24, 0x68	; 104
    2480:	90 e0       	ldi	r25, 0x00	; 0
    2482:	0e 94 5b 04 	call	0x8b6	; 0x8b6 <_Z16EEPROM_write_32tjm>
          EEPROM_write_32t(EE_ZEROSENS6,metrology.cod_zero_sensor6);
    2486:	40 91 49 05 	lds	r20, 0x0549	; 0x800549 <metrology+0x44>
    248a:	50 91 4a 05 	lds	r21, 0x054A	; 0x80054a <metrology+0x45>
    248e:	60 91 4b 05 	lds	r22, 0x054B	; 0x80054b <metrology+0x46>
    2492:	70 91 4c 05 	lds	r23, 0x054C	; 0x80054c <metrology+0x47>
    2496:	8c e6       	ldi	r24, 0x6C	; 108
    2498:	90 e0       	ldi	r25, 0x00	; 0
    249a:	0e 94 5b 04 	call	0x8b6	; 0x8b6 <_Z16EEPROM_write_32tjm>
          EEPROM_write_32t(EE_ZEROSENS7,metrology.cod_zero_sensor7);
    249e:	40 91 55 05 	lds	r20, 0x0555	; 0x800555 <metrology+0x50>
    24a2:	50 91 56 05 	lds	r21, 0x0556	; 0x800556 <metrology+0x51>
    24a6:	60 91 57 05 	lds	r22, 0x0557	; 0x800557 <metrology+0x52>
    24aa:	70 91 58 05 	lds	r23, 0x0558	; 0x800558 <metrology+0x53>
    24ae:	80 e7       	ldi	r24, 0x70	; 112
    24b0:	90 e0       	ldi	r25, 0x00	; 0
    24b2:	0e 94 5b 04 	call	0x8b6	; 0x8b6 <_Z16EEPROM_write_32tjm>
          EEPROM_write_32t(EE_ZEROSENS8,metrology.cod_zero_sensor8);
    24b6:	40 91 61 05 	lds	r20, 0x0561	; 0x800561 <metrology+0x5c>
    24ba:	50 91 62 05 	lds	r21, 0x0562	; 0x800562 <metrology+0x5d>
    24be:	60 91 63 05 	lds	r22, 0x0563	; 0x800563 <metrology+0x5e>
    24c2:	70 91 64 05 	lds	r23, 0x0564	; 0x800564 <metrology+0x5f>
    24c6:	84 e7       	ldi	r24, 0x74	; 116
    24c8:	90 e0       	ldi	r25, 0x00	; 0
    24ca:	0e 94 5b 04 	call	0x8b6	; 0x8b6 <_Z16EEPROM_write_32tjm>
          EEPROM_write_32t(EE_ZEROSENS9,metrology.cod_zero_sensor9);
    24ce:	40 91 6d 05 	lds	r20, 0x056D	; 0x80056d <metrology+0x68>
    24d2:	50 91 6e 05 	lds	r21, 0x056E	; 0x80056e <metrology+0x69>
    24d6:	60 91 6f 05 	lds	r22, 0x056F	; 0x80056f <metrology+0x6a>
    24da:	70 91 70 05 	lds	r23, 0x0570	; 0x800570 <metrology+0x6b>
    24de:	88 e7       	ldi	r24, 0x78	; 120
    24e0:	90 e0       	ldi	r25, 0x00	; 0
    24e2:	0e 94 5b 04 	call	0x8b6	; 0x8b6 <_Z16EEPROM_write_32tjm>
          EEPROM_write_32t(EE_ZEROSENS10,metrology.cod_zero_sensor10);
    24e6:	40 91 79 05 	lds	r20, 0x0579	; 0x800579 <metrology+0x74>
    24ea:	50 91 7a 05 	lds	r21, 0x057A	; 0x80057a <metrology+0x75>
    24ee:	60 91 7b 05 	lds	r22, 0x057B	; 0x80057b <metrology+0x76>
    24f2:	70 91 7c 05 	lds	r23, 0x057C	; 0x80057c <metrology+0x77>
    24f6:	8c e7       	ldi	r24, 0x7C	; 124
    24f8:	90 e0       	ldi	r25, 0x00	; 0
    24fa:	0e 94 5b 04 	call	0x8b6	; 0x8b6 <_Z16EEPROM_write_32tjm>
          EEPROM_write_32t(EE_ZEROSENS11,metrology.cod_zero_sensor11);
    24fe:	40 91 85 05 	lds	r20, 0x0585	; 0x800585 <metrology+0x80>
    2502:	50 91 86 05 	lds	r21, 0x0586	; 0x800586 <metrology+0x81>
    2506:	60 91 87 05 	lds	r22, 0x0587	; 0x800587 <metrology+0x82>
    250a:	70 91 88 05 	lds	r23, 0x0588	; 0x800588 <metrology+0x83>
    250e:	80 e8       	ldi	r24, 0x80	; 128
    2510:	90 e0       	ldi	r25, 0x00	; 0
    2512:	0e 94 5b 04 	call	0x8b6	; 0x8b6 <_Z16EEPROM_write_32tjm>
          EEPROM_write_32t(EE_ZEROSENS12,metrology.cod_zero_sensor12);
    2516:	40 91 91 05 	lds	r20, 0x0591	; 0x800591 <metrology+0x8c>
    251a:	50 91 92 05 	lds	r21, 0x0592	; 0x800592 <metrology+0x8d>
    251e:	60 91 93 05 	lds	r22, 0x0593	; 0x800593 <metrology+0x8e>
    2522:	70 91 94 05 	lds	r23, 0x0594	; 0x800594 <metrology+0x8f>
    2526:	84 e8       	ldi	r24, 0x84	; 132
    2528:	90 e0       	ldi	r25, 0x00	; 0
    252a:	0e 94 5b 04 	call	0x8b6	; 0x8b6 <_Z16EEPROM_write_32tjm>
     }
}
    252e:	df 91       	pop	r29
    2530:	cf 91       	pop	r28
    2532:	1f 91       	pop	r17
    2534:	0f 91       	pop	r16
    2536:	08 95       	ret

00002538 <_Z13no_pay_wizardv>:

void no_pay_wizard (void)        // проверка на срабатывание ерр36 
{
     if (param.year_err <= DS.year){ if (param.mount_err <= DS.month){if (param.data_err <= DS.date){   // если дата совпадает или уже меньше то включить ерр36
    2538:	20 91 c4 05 	lds	r18, 0x05C4	; 0x8005c4 <param+0x2b>
    253c:	30 91 c5 05 	lds	r19, 0x05C5	; 0x8005c5 <param+0x2c>
    2540:	80 91 e6 05 	lds	r24, 0x05E6	; 0x8005e6 <DS+0xc>
    2544:	90 91 e7 05 	lds	r25, 0x05E7	; 0x8005e7 <DS+0xd>
    2548:	82 17       	cp	r24, r18
    254a:	93 07       	cpc	r25, r19
    254c:	10 f1       	brcs	.+68     	; 0x2592 <_Z13no_pay_wizardv+0x5a>
    254e:	20 91 c2 05 	lds	r18, 0x05C2	; 0x8005c2 <param+0x29>
    2552:	30 91 c3 05 	lds	r19, 0x05C3	; 0x8005c3 <param+0x2a>
    2556:	80 91 e4 05 	lds	r24, 0x05E4	; 0x8005e4 <DS+0xa>
    255a:	90 91 e5 05 	lds	r25, 0x05E5	; 0x8005e5 <DS+0xb>
    255e:	82 17       	cp	r24, r18
    2560:	93 07       	cpc	r25, r19
    2562:	b8 f0       	brcs	.+46     	; 0x2592 <_Z13no_pay_wizardv+0x5a>
    2564:	20 91 c0 05 	lds	r18, 0x05C0	; 0x8005c0 <param+0x27>
    2568:	30 91 c1 05 	lds	r19, 0x05C1	; 0x8005c1 <param+0x28>
    256c:	80 91 e2 05 	lds	r24, 0x05E2	; 0x8005e2 <DS+0x8>
    2570:	90 91 e3 05 	lds	r25, 0x05E3	; 0x8005e3 <DS+0x9>
    2574:	82 17       	cp	r24, r18
    2576:	93 07       	cpc	r25, r19
    2578:	60 f0       	brcs	.+24     	; 0x2592 <_Z13no_pay_wizardv+0x5a>
          if(param.err36 == 0) { param.err36 = 1; EEPROM_write(EE_ERRPR36, param.err36);}              // записать один раз и больше не заходить, чтоб не убивать еепром 
    257a:	80 91 b5 05 	lds	r24, 0x05B5	; 0x8005b5 <param+0x1c>
    257e:	81 11       	cpse	r24, r1
    2580:	08 c0       	rjmp	.+16     	; 0x2592 <_Z13no_pay_wizardv+0x5a>
    2582:	81 e0       	ldi	r24, 0x01	; 1
    2584:	80 93 b5 05 	sts	0x05B5, r24	; 0x8005b5 <param+0x1c>
    2588:	61 e0       	ldi	r22, 0x01	; 1
    258a:	8c e1       	ldi	r24, 0x1C	; 28
    258c:	90 e0       	ldi	r25, 0x00	; 0
    258e:	0c 94 14 04 	jmp	0x828	; 0x828 <_Z12EEPROM_writejh>
    2592:	08 95       	ret

00002594 <_Z7diskretmh>:
           }}}
}

uint32_t diskret (uint32_t data, uint8_t dskrt)        // функция дискрета, взята с впшки
{
    2594:	8f 92       	push	r8
    2596:	9f 92       	push	r9
    2598:	af 92       	push	r10
    259a:	bf 92       	push	r11
    259c:	cf 92       	push	r12
    259e:	df 92       	push	r13
    25a0:	ef 92       	push	r14
    25a2:	ff 92       	push	r15
    25a4:	0f 93       	push	r16
    25a6:	1f 93       	push	r17
    25a8:	cf 93       	push	r28
    25aa:	c4 2f       	mov	r28, r20
     static uint32_t temp;
     if (dskrt == 1) return (data);
    25ac:	41 30       	cpi	r20, 0x01	; 1
    25ae:	b1 f1       	breq	.+108    	; 0x261c <_Z7diskretmh+0x88>
     temp = (data / dskrt) * dskrt;
    25b0:	c4 2e       	mov	r12, r20
    25b2:	d1 2c       	mov	r13, r1
    25b4:	e1 2c       	mov	r14, r1
    25b6:	f1 2c       	mov	r15, r1
    25b8:	a7 01       	movw	r20, r14
    25ba:	96 01       	movw	r18, r12
    25bc:	0e 94 a4 44 	call	0x8948	; 0x8948 <__udivmodsi4>
    25c0:	4b 01       	movw	r8, r22
    25c2:	5c 01       	movw	r10, r24
    25c4:	c7 01       	movw	r24, r14
    25c6:	b6 01       	movw	r22, r12
    25c8:	0e 94 95 44 	call	0x892a	; 0x892a <__mulsi3>
     if ((data % dskrt) >= dskrt/2) temp += dskrt;
    25cc:	4c 2f       	mov	r20, r28
    25ce:	46 95       	lsr	r20
    25d0:	04 2f       	mov	r16, r20
    25d2:	10 e0       	ldi	r17, 0x00	; 0
    25d4:	20 e0       	ldi	r18, 0x00	; 0
    25d6:	30 e0       	ldi	r19, 0x00	; 0
    25d8:	80 16       	cp	r8, r16
    25da:	91 06       	cpc	r9, r17
    25dc:	a2 06       	cpc	r10, r18
    25de:	b3 06       	cpc	r11, r19
    25e0:	48 f4       	brcc	.+18     	; 0x25f4 <_Z7diskretmh+0x60>

uint32_t diskret (uint32_t data, uint8_t dskrt)        // функция дискрета, взята с впшки
{
     static uint32_t temp;
     if (dskrt == 1) return (data);
     temp = (data / dskrt) * dskrt;
    25e2:	60 93 5d 03 	sts	0x035D, r22	; 0x80035d <_ZZ7diskretmhE4temp>
    25e6:	70 93 5e 03 	sts	0x035E, r23	; 0x80035e <_ZZ7diskretmhE4temp+0x1>
    25ea:	80 93 5f 03 	sts	0x035F, r24	; 0x80035f <_ZZ7diskretmhE4temp+0x2>
    25ee:	90 93 60 03 	sts	0x0360, r25	; 0x800360 <_ZZ7diskretmhE4temp+0x3>
    25f2:	0c c0       	rjmp	.+24     	; 0x260c <_Z7diskretmh+0x78>
     if ((data % dskrt) >= dskrt/2) temp += dskrt;
    25f4:	c6 0e       	add	r12, r22
    25f6:	d7 1e       	adc	r13, r23
    25f8:	e8 1e       	adc	r14, r24
    25fa:	f9 1e       	adc	r15, r25
    25fc:	c0 92 5d 03 	sts	0x035D, r12	; 0x80035d <_ZZ7diskretmhE4temp>
    2600:	d0 92 5e 03 	sts	0x035E, r13	; 0x80035e <_ZZ7diskretmhE4temp+0x1>
    2604:	e0 92 5f 03 	sts	0x035F, r14	; 0x80035f <_ZZ7diskretmhE4temp+0x2>
    2608:	f0 92 60 03 	sts	0x0360, r15	; 0x800360 <_ZZ7diskretmhE4temp+0x3>
     return (temp);
    260c:	60 91 5d 03 	lds	r22, 0x035D	; 0x80035d <_ZZ7diskretmhE4temp>
    2610:	70 91 5e 03 	lds	r23, 0x035E	; 0x80035e <_ZZ7diskretmhE4temp+0x1>
    2614:	80 91 5f 03 	lds	r24, 0x035F	; 0x80035f <_ZZ7diskretmhE4temp+0x2>
    2618:	90 91 60 03 	lds	r25, 0x0360	; 0x800360 <_ZZ7diskretmhE4temp+0x3>
}
    261c:	cf 91       	pop	r28
    261e:	1f 91       	pop	r17
    2620:	0f 91       	pop	r16
    2622:	ff 90       	pop	r15
    2624:	ef 90       	pop	r14
    2626:	df 90       	pop	r13
    2628:	cf 90       	pop	r12
    262a:	bf 90       	pop	r11
    262c:	af 90       	pop	r10
    262e:	9f 90       	pop	r9
    2630:	8f 90       	pop	r8
    2632:	08 95       	ret

00002634 <_Z11filtr_massah>:
     if (boolean.errors || boolean.npv || boolean.main_menu_bool || param.err36 || boolean.err_adc) {if(!boolean.led_in_menu ) {led_led();}} 
     if (!boolean.npv && !boolean.err_adc ) {error_buzzer(false);}    
}

void filtr_massa (uint8_t power)     // объеденил фильтр и дискрет так как вызываем только тогда когда данные приняты
{
    2634:	cf 92       	push	r12
    2636:	df 92       	push	r13
    2638:	ef 92       	push	r14
    263a:	ff 92       	push	r15
    263c:	0f 93       	push	r16
    263e:	1f 93       	push	r17
    2640:	cf 93       	push	r28
    2642:	df 93       	push	r29
    2644:	18 2f       	mov	r17, r24
     static uint8_t caunter_filtr;
     static int32_t filtr_32b [50]; 
     
          
                 // преобразуем код в массу  
     if (boolean.data_ok)  {                            //когда данные приняли 
    2646:	80 91 8a 06 	lds	r24, 0x068A	; 0x80068a <boolean+0x3>
    264a:	83 ff       	sbrs	r24, 3
    264c:	64 c3       	rjmp	.+1736   	; 0x2d16 <_Z11filtr_massah+0x6e2>
          boolean.data_ok = false;                      // сбросим флаг
    264e:	ea e8       	ldi	r30, 0x8A	; 138
    2650:	f6 e0       	ldi	r31, 0x06	; 6
    2652:	87 7f       	andi	r24, 0xF7	; 247
    2654:	80 83       	st	Z, r24
          converting_cod_to_massa ();
    2656:	0e 94 eb 0a 	call	0x15d6	; 0x15d6 <_Z23converting_cod_to_massav>
          massa = ((massa * param.calib_koef)+0.5);     // получаем реальную массу 
    265a:	60 91 7a 04 	lds	r22, 0x047A	; 0x80047a <massa>
    265e:	70 91 7b 04 	lds	r23, 0x047B	; 0x80047b <massa+0x1>
    2662:	80 91 7c 04 	lds	r24, 0x047C	; 0x80047c <massa+0x2>
    2666:	90 91 7d 04 	lds	r25, 0x047D	; 0x80047d <massa+0x3>
    266a:	0e 94 7e 43 	call	0x86fc	; 0x86fc <__floatsisf>
    266e:	20 91 b8 05 	lds	r18, 0x05B8	; 0x8005b8 <param+0x1f>
    2672:	30 91 b9 05 	lds	r19, 0x05B9	; 0x8005b9 <param+0x20>
    2676:	40 91 ba 05 	lds	r20, 0x05BA	; 0x8005ba <param+0x21>
    267a:	50 91 bb 05 	lds	r21, 0x05BB	; 0x8005bb <param+0x22>
    267e:	0e 94 32 44 	call	0x8864	; 0x8864 <__mulsf3>
    2682:	20 e0       	ldi	r18, 0x00	; 0
    2684:	30 e0       	ldi	r19, 0x00	; 0
    2686:	40 e0       	ldi	r20, 0x00	; 0
    2688:	5f e3       	ldi	r21, 0x3F	; 63
    268a:	0e 94 7b 42 	call	0x84f6	; 0x84f6 <__addsf3>
    268e:	0e 94 4b 43 	call	0x8696	; 0x8696 <__fixsfsi>
    2692:	60 93 7a 04 	sts	0x047A, r22	; 0x80047a <massa>
    2696:	70 93 7b 04 	sts	0x047B, r23	; 0x80047b <massa+0x1>
    269a:	80 93 7c 04 	sts	0x047C, r24	; 0x80047c <massa+0x2>
    269e:	90 93 7d 04 	sts	0x047D, r25	; 0x80047d <massa+0x3>
          filtr_32b [caunter_filtr] = massa;      // заносим показания в фильтр
    26a2:	20 91 2a 04 	lds	r18, 0x042A	; 0x80042a <_ZZ11filtr_massahE13caunter_filtr>
    26a6:	e2 2f       	mov	r30, r18
    26a8:	f0 e0       	ldi	r31, 0x00	; 0
    26aa:	ee 0f       	add	r30, r30
    26ac:	ff 1f       	adc	r31, r31
    26ae:	ee 0f       	add	r30, r30
    26b0:	ff 1f       	adc	r31, r31
    26b2:	ee 59       	subi	r30, 0x9E	; 158
    26b4:	fc 4f       	sbci	r31, 0xFC	; 252
    26b6:	60 83       	st	Z, r22
    26b8:	71 83       	std	Z+1, r23	; 0x01
    26ba:	82 83       	std	Z+2, r24	; 0x02
    26bc:	93 83       	std	Z+3, r25	; 0x03
          
          caunter_filtr ++;                       // перемещаемся по массиву фильтра
    26be:	81 e0       	ldi	r24, 0x01	; 1
    26c0:	82 0f       	add	r24, r18
          if (caunter_filtr  >= (power )) { caunter_filtr = 0;  }        // больше или равно потому что при смене размера фильтра все ложиться
    26c2:	81 17       	cp	r24, r17
    26c4:	18 f4       	brcc	.+6      	; 0x26cc <_Z11filtr_massah+0x98>
          boolean.data_ok = false;                      // сбросим флаг
          converting_cod_to_massa ();
          massa = ((massa * param.calib_koef)+0.5);     // получаем реальную массу 
          filtr_32b [caunter_filtr] = massa;      // заносим показания в фильтр
          
          caunter_filtr ++;                       // перемещаемся по массиву фильтра
    26c6:	80 93 2a 04 	sts	0x042A, r24	; 0x80042a <_ZZ11filtr_massahE13caunter_filtr>
    26ca:	02 c0       	rjmp	.+4      	; 0x26d0 <_Z11filtr_massah+0x9c>
          if (caunter_filtr  >= (power )) { caunter_filtr = 0;  }        // больше или равно потому что при смене размера фильтра все ложиться
    26cc:	10 92 2a 04 	sts	0x042A, r1	; 0x80042a <_ZZ11filtr_massahE13caunter_filtr>
          massa_after_filtr = 0;                  // обнуляем чтоб не было лагов 
    26d0:	10 92 72 04 	sts	0x0472, r1	; 0x800472 <massa_after_filtr>
    26d4:	10 92 73 04 	sts	0x0473, r1	; 0x800473 <massa_after_filtr+0x1>
    26d8:	10 92 74 04 	sts	0x0474, r1	; 0x800474 <massa_after_filtr+0x2>
    26dc:	10 92 75 04 	sts	0x0475, r1	; 0x800475 <massa_after_filtr+0x3>
          for (int i = 0; i < (power ); i ++)  // суммируем все элементы массива и делим на количество элементов
    26e0:	11 23       	and	r17, r17
    26e2:	01 f1       	breq	.+64     	; 0x2724 <_Z11filtr_massah+0xf0>
    26e4:	e2 e6       	ldi	r30, 0x62	; 98
    26e6:	f3 e0       	ldi	r31, 0x03	; 3
    26e8:	c1 2f       	mov	r28, r17
    26ea:	d0 e0       	ldi	r29, 0x00	; 0
    26ec:	cc 0f       	add	r28, r28
    26ee:	dd 1f       	adc	r29, r29
    26f0:	cc 0f       	add	r28, r28
    26f2:	dd 1f       	adc	r29, r29
    26f4:	ce 59       	subi	r28, 0x9E	; 158
    26f6:	dc 4f       	sbci	r29, 0xFC	; 252
    26f8:	80 e0       	ldi	r24, 0x00	; 0
    26fa:	90 e0       	ldi	r25, 0x00	; 0
    26fc:	dc 01       	movw	r26, r24
          {
               massa_after_filtr += filtr_32b[i];
    26fe:	41 91       	ld	r20, Z+
    2700:	51 91       	ld	r21, Z+
    2702:	61 91       	ld	r22, Z+
    2704:	71 91       	ld	r23, Z+
    2706:	84 0f       	add	r24, r20
    2708:	95 1f       	adc	r25, r21
    270a:	a6 1f       	adc	r26, r22
    270c:	b7 1f       	adc	r27, r23
          filtr_32b [caunter_filtr] = massa;      // заносим показания в фильтр
          
          caunter_filtr ++;                       // перемещаемся по массиву фильтра
          if (caunter_filtr  >= (power )) { caunter_filtr = 0;  }        // больше или равно потому что при смене размера фильтра все ложиться
          massa_after_filtr = 0;                  // обнуляем чтоб не было лагов 
          for (int i = 0; i < (power ); i ++)  // суммируем все элементы массива и делим на количество элементов
    270e:	ec 17       	cp	r30, r28
    2710:	fd 07       	cpc	r31, r29
    2712:	a9 f7       	brne	.-22     	; 0x26fe <_Z11filtr_massah+0xca>
    2714:	80 93 72 04 	sts	0x0472, r24	; 0x800472 <massa_after_filtr>
    2718:	90 93 73 04 	sts	0x0473, r25	; 0x800473 <massa_after_filtr+0x1>
    271c:	a0 93 74 04 	sts	0x0474, r26	; 0x800474 <massa_after_filtr+0x2>
    2720:	b0 93 75 04 	sts	0x0475, r27	; 0x800475 <massa_after_filtr+0x3>
          {
               massa_after_filtr += filtr_32b[i];
          }
          massa_after_filtr = massa_after_filtr / (power );
    2724:	21 2f       	mov	r18, r17
    2726:	30 e0       	ldi	r19, 0x00	; 0
    2728:	40 e0       	ldi	r20, 0x00	; 0
    272a:	50 e0       	ldi	r21, 0x00	; 0
    272c:	60 91 72 04 	lds	r22, 0x0472	; 0x800472 <massa_after_filtr>
    2730:	70 91 73 04 	lds	r23, 0x0473	; 0x800473 <massa_after_filtr+0x1>
    2734:	80 91 74 04 	lds	r24, 0x0474	; 0x800474 <massa_after_filtr+0x2>
    2738:	90 91 75 04 	lds	r25, 0x0475	; 0x800475 <massa_after_filtr+0x3>
    273c:	0e 94 c6 44 	call	0x898c	; 0x898c <__divmodsi4>
    2740:	20 93 72 04 	sts	0x0472, r18	; 0x800472 <massa_after_filtr>
    2744:	30 93 73 04 	sts	0x0473, r19	; 0x800473 <massa_after_filtr+0x1>
    2748:	40 93 74 04 	sts	0x0474, r20	; 0x800474 <massa_after_filtr+0x2>
    274c:	50 93 75 04 	sts	0x0475, r21	; 0x800475 <massa_after_filtr+0x3>
          if (boolean.tara_ok) { massa_after_filtr = massa_after_filtr - metrology.tara; send_point (1); }    else { send_non_point(1); metrology.tara = 0;}  // если включена тара то отнимать ее вес от текущего значения, если нет то ноль + светик
    2750:	80 91 87 06 	lds	r24, 0x0687	; 0x800687 <boolean>
    2754:	84 ff       	sbrs	r24, 4
    2756:	1a c0       	rjmp	.+52     	; 0x278c <_Z11filtr_massah+0x158>
    2758:	80 91 05 05 	lds	r24, 0x0505	; 0x800505 <metrology>
    275c:	90 91 06 05 	lds	r25, 0x0506	; 0x800506 <metrology+0x1>
    2760:	a0 91 07 05 	lds	r26, 0x0507	; 0x800507 <metrology+0x2>
    2764:	b0 91 08 05 	lds	r27, 0x0508	; 0x800508 <metrology+0x3>
    2768:	79 01       	movw	r14, r18
    276a:	8a 01       	movw	r16, r20
    276c:	e8 1a       	sub	r14, r24
    276e:	f9 0a       	sbc	r15, r25
    2770:	0a 0b       	sbc	r16, r26
    2772:	1b 0b       	sbc	r17, r27
    2774:	e0 92 72 04 	sts	0x0472, r14	; 0x800472 <massa_after_filtr>
    2778:	f0 92 73 04 	sts	0x0473, r15	; 0x800473 <massa_after_filtr+0x1>
    277c:	00 93 74 04 	sts	0x0474, r16	; 0x800474 <massa_after_filtr+0x2>
    2780:	10 93 75 04 	sts	0x0475, r17	; 0x800475 <massa_after_filtr+0x3>
    2784:	81 e0       	ldi	r24, 0x01	; 1
    2786:	0e 94 ce 1d 	call	0x3b9c	; 0x3b9c <_Z10send_pointh>
    278a:	0b c0       	rjmp	.+22     	; 0x27a2 <_Z11filtr_massah+0x16e>
    278c:	81 e0       	ldi	r24, 0x01	; 1
    278e:	0e 94 dc 1d 	call	0x3bb8	; 0x3bb8 <_Z14send_non_pointh>
    2792:	10 92 05 05 	sts	0x0505, r1	; 0x800505 <metrology>
    2796:	10 92 06 05 	sts	0x0506, r1	; 0x800506 <metrology+0x1>
    279a:	10 92 07 05 	sts	0x0507, r1	; 0x800507 <metrology+0x2>
    279e:	10 92 08 05 	sts	0x0508, r1	; 0x800508 <metrology+0x3>
          if (param.sill1 == 0 && param.sill2 == 0 ){ massa_after_filtr = diskret(massa_after_filtr,param.discret1); namber_diskret = 1;}        // если первый и второй порог = 0 то показываем первый дискрет
    27a2:	80 91 a0 05 	lds	r24, 0x05A0	; 0x8005a0 <param+0x7>
    27a6:	90 91 a1 05 	lds	r25, 0x05A1	; 0x8005a1 <param+0x8>
    27aa:	a0 91 a2 05 	lds	r26, 0x05A2	; 0x8005a2 <param+0x9>
    27ae:	b0 91 a3 05 	lds	r27, 0x05A3	; 0x8005a3 <param+0xa>
    27b2:	00 97       	sbiw	r24, 0x00	; 0
    27b4:	a1 05       	cpc	r26, r1
    27b6:	b1 05       	cpc	r27, r1
    27b8:	09 f0       	breq	.+2      	; 0x27bc <_Z11filtr_massah+0x188>
    27ba:	0f c4       	rjmp	.+2078   	; 0x2fda <_Z11filtr_massah+0x9a6>
    27bc:	80 91 a4 05 	lds	r24, 0x05A4	; 0x8005a4 <param+0xb>
    27c0:	90 91 a5 05 	lds	r25, 0x05A5	; 0x8005a5 <param+0xc>
    27c4:	a0 91 a6 05 	lds	r26, 0x05A6	; 0x8005a6 <param+0xd>
    27c8:	b0 91 a7 05 	lds	r27, 0x05A7	; 0x8005a7 <param+0xe>
    27cc:	89 2b       	or	r24, r25
    27ce:	8a 2b       	or	r24, r26
    27d0:	8b 2b       	or	r24, r27
    27d2:	09 f0       	breq	.+2      	; 0x27d6 <_Z11filtr_massah+0x1a2>
    27d4:	20 c4       	rjmp	.+2112   	; 0x3016 <_Z11filtr_massah+0x9e2>
    27d6:	c9 e9       	ldi	r28, 0x99	; 153
    27d8:	d5 e0       	ldi	r29, 0x05	; 5
    27da:	60 91 72 04 	lds	r22, 0x0472	; 0x800472 <massa_after_filtr>
    27de:	70 91 73 04 	lds	r23, 0x0473	; 0x800473 <massa_after_filtr+0x1>
    27e2:	80 91 74 04 	lds	r24, 0x0474	; 0x800474 <massa_after_filtr+0x2>
    27e6:	90 91 75 04 	lds	r25, 0x0475	; 0x800475 <massa_after_filtr+0x3>
    27ea:	4c 81       	ldd	r20, Y+4	; 0x04
    27ec:	d3 de       	rcall	.-602    	; 0x2594 <_Z7diskretmh>
    27ee:	8b 01       	movw	r16, r22
    27f0:	9c 01       	movw	r18, r24
    27f2:	60 93 72 04 	sts	0x0472, r22	; 0x800472 <massa_after_filtr>
    27f6:	70 93 73 04 	sts	0x0473, r23	; 0x800473 <massa_after_filtr+0x1>
    27fa:	80 93 74 04 	sts	0x0474, r24	; 0x800474 <massa_after_filtr+0x2>
    27fe:	90 93 75 04 	sts	0x0475, r25	; 0x800475 <massa_after_filtr+0x3>
    2802:	81 e0       	ldi	r24, 0x01	; 1
    2804:	80 93 61 03 	sts	0x0361, r24	; 0x800361 <_ZZ11filtr_massahE14namber_diskret>
          if (massa_after_filtr < param.sill1 && param.sill1 != 0){ massa_after_filtr = diskret(massa_after_filtr,param.discret1); namber_diskret = 1; }     // если масса меньше чем первый порог и он не равен 0 то снова первый дискрет
    2808:	8f 81       	ldd	r24, Y+7	; 0x07
    280a:	98 85       	ldd	r25, Y+8	; 0x08
    280c:	a9 85       	ldd	r26, Y+9	; 0x09
    280e:	ba 85       	ldd	r27, Y+10	; 0x0a
    2810:	08 17       	cp	r16, r24
    2812:	19 07       	cpc	r17, r25
    2814:	2a 07       	cpc	r18, r26
    2816:	3b 07       	cpc	r19, r27
    2818:	a4 f4       	brge	.+40     	; 0x2842 <_Z11filtr_massah+0x20e>
    281a:	89 2b       	or	r24, r25
    281c:	8a 2b       	or	r24, r26
    281e:	8b 2b       	or	r24, r27
    2820:	81 f0       	breq	.+32     	; 0x2842 <_Z11filtr_massah+0x20e>
    2822:	40 91 9d 05 	lds	r20, 0x059D	; 0x80059d <param+0x4>
    2826:	c9 01       	movw	r24, r18
    2828:	b8 01       	movw	r22, r16
    282a:	b4 de       	rcall	.-664    	; 0x2594 <_Z7diskretmh>
    282c:	60 93 72 04 	sts	0x0472, r22	; 0x800472 <massa_after_filtr>
    2830:	70 93 73 04 	sts	0x0473, r23	; 0x800473 <massa_after_filtr+0x1>
    2834:	80 93 74 04 	sts	0x0474, r24	; 0x800474 <massa_after_filtr+0x2>
    2838:	90 93 75 04 	sts	0x0475, r25	; 0x800475 <massa_after_filtr+0x3>
    283c:	81 e0       	ldi	r24, 0x01	; 1
    283e:	80 93 61 03 	sts	0x0361, r24	; 0x800361 <_ZZ11filtr_massahE14namber_diskret>
          if (massa_after_filtr > param.sill1 && param.sill2 == 0){ massa_after_filtr = diskret(massa_after_filtr,param.discret2); namber_diskret = 2; }     // если масса больше чем первый порог а второй равен 0 то показываем второй дискрет
    2842:	60 91 72 04 	lds	r22, 0x0472	; 0x800472 <massa_after_filtr>
    2846:	70 91 73 04 	lds	r23, 0x0473	; 0x800473 <massa_after_filtr+0x1>
    284a:	80 91 74 04 	lds	r24, 0x0474	; 0x800474 <massa_after_filtr+0x2>
    284e:	90 91 75 04 	lds	r25, 0x0475	; 0x800475 <massa_after_filtr+0x3>
    2852:	00 91 a0 05 	lds	r16, 0x05A0	; 0x8005a0 <param+0x7>
    2856:	10 91 a1 05 	lds	r17, 0x05A1	; 0x8005a1 <param+0x8>
    285a:	20 91 a2 05 	lds	r18, 0x05A2	; 0x8005a2 <param+0x9>
    285e:	30 91 a3 05 	lds	r19, 0x05A3	; 0x8005a3 <param+0xa>
    2862:	06 17       	cp	r16, r22
    2864:	17 07       	cpc	r17, r23
    2866:	28 07       	cpc	r18, r24
    2868:	39 07       	cpc	r19, r25
    286a:	0c f0       	brlt	.+2      	; 0x286e <_Z11filtr_massah+0x23a>
    286c:	54 c0       	rjmp	.+168    	; 0x2916 <_Z11filtr_massah+0x2e2>
    286e:	00 91 a4 05 	lds	r16, 0x05A4	; 0x8005a4 <param+0xb>
    2872:	10 91 a5 05 	lds	r17, 0x05A5	; 0x8005a5 <param+0xc>
    2876:	20 91 a6 05 	lds	r18, 0x05A6	; 0x8005a6 <param+0xd>
    287a:	30 91 a7 05 	lds	r19, 0x05A7	; 0x8005a7 <param+0xe>
    287e:	01 2b       	or	r16, r17
    2880:	02 2b       	or	r16, r18
    2882:	03 2b       	or	r16, r19
    2884:	09 f0       	breq	.+2      	; 0x2888 <_Z11filtr_massah+0x254>
    2886:	b8 c3       	rjmp	.+1904   	; 0x2ff8 <_Z11filtr_massah+0x9c4>
    2888:	c9 e9       	ldi	r28, 0x99	; 153
    288a:	d5 e0       	ldi	r29, 0x05	; 5
    288c:	4d 81       	ldd	r20, Y+5	; 0x05
    288e:	82 de       	rcall	.-764    	; 0x2594 <_Z7diskretmh>
    2890:	60 93 72 04 	sts	0x0472, r22	; 0x800472 <massa_after_filtr>
    2894:	70 93 73 04 	sts	0x0473, r23	; 0x800473 <massa_after_filtr+0x1>
    2898:	80 93 74 04 	sts	0x0474, r24	; 0x800474 <massa_after_filtr+0x2>
    289c:	90 93 75 04 	sts	0x0475, r25	; 0x800475 <massa_after_filtr+0x3>
    28a0:	22 e0       	ldi	r18, 0x02	; 2
    28a2:	20 93 61 03 	sts	0x0361, r18	; 0x800361 <_ZZ11filtr_massahE14namber_diskret>
          if (massa_after_filtr > param.sill1 && massa_after_filtr < param.sill2 && param.sill2 != 0) {massa_after_filtr = diskret(massa_after_filtr,param.discret2); namber_diskret = 2; }  // если масса больше первого порога и меньше второго и второй порог не 0 показываем 2 дискрет
    28a6:	0f 81       	ldd	r16, Y+7	; 0x07
    28a8:	18 85       	ldd	r17, Y+8	; 0x08
    28aa:	29 85       	ldd	r18, Y+9	; 0x09
    28ac:	3a 85       	ldd	r19, Y+10	; 0x0a
    28ae:	06 17       	cp	r16, r22
    28b0:	17 07       	cpc	r17, r23
    28b2:	28 07       	cpc	r18, r24
    28b4:	39 07       	cpc	r19, r25
    28b6:	0c f0       	brlt	.+2      	; 0x28ba <_Z11filtr_massah+0x286>
    28b8:	c4 c3       	rjmp	.+1928   	; 0x3042 <_Z11filtr_massah+0xa0e>
    28ba:	00 91 a4 05 	lds	r16, 0x05A4	; 0x8005a4 <param+0xb>
    28be:	10 91 a5 05 	lds	r17, 0x05A5	; 0x8005a5 <param+0xc>
    28c2:	20 91 a6 05 	lds	r18, 0x05A6	; 0x8005a6 <param+0xd>
    28c6:	30 91 a7 05 	lds	r19, 0x05A7	; 0x8005a7 <param+0xe>
    28ca:	60 17       	cp	r22, r16
    28cc:	71 07       	cpc	r23, r17
    28ce:	82 07       	cpc	r24, r18
    28d0:	93 07       	cpc	r25, r19
    28d2:	0c f5       	brge	.+66     	; 0x2916 <_Z11filtr_massah+0x2e2>
    28d4:	01 2b       	or	r16, r17
    28d6:	02 2b       	or	r16, r18
    28d8:	03 2b       	or	r16, r19
    28da:	09 f4       	brne	.+2      	; 0x28de <_Z11filtr_massah+0x2aa>
    28dc:	46 c0       	rjmp	.+140    	; 0x296a <_Z11filtr_massah+0x336>
    28de:	c9 e9       	ldi	r28, 0x99	; 153
    28e0:	d5 e0       	ldi	r29, 0x05	; 5
    28e2:	4d 81       	ldd	r20, Y+5	; 0x05
    28e4:	57 de       	rcall	.-850    	; 0x2594 <_Z7diskretmh>
    28e6:	8b 01       	movw	r16, r22
    28e8:	9c 01       	movw	r18, r24
    28ea:	60 93 72 04 	sts	0x0472, r22	; 0x800472 <massa_after_filtr>
    28ee:	70 93 73 04 	sts	0x0473, r23	; 0x800473 <massa_after_filtr+0x1>
    28f2:	80 93 74 04 	sts	0x0474, r24	; 0x800474 <massa_after_filtr+0x2>
    28f6:	90 93 75 04 	sts	0x0475, r25	; 0x800475 <massa_after_filtr+0x3>
    28fa:	82 e0       	ldi	r24, 0x02	; 2
    28fc:	80 93 61 03 	sts	0x0361, r24	; 0x800361 <_ZZ11filtr_massahE14namber_diskret>
          if (massa_after_filtr > param.sill2 && param.sill2 != 0){ massa_after_filtr = diskret(massa_after_filtr,param.discret3); namber_diskret = 3;  }    // если масса больше второго порога и он не 0 то показываем третий дискрет
    2900:	8b 85       	ldd	r24, Y+11	; 0x0b
    2902:	9c 85       	ldd	r25, Y+12	; 0x0c
    2904:	ad 85       	ldd	r26, Y+13	; 0x0d
    2906:	be 85       	ldd	r27, Y+14	; 0x0e
    2908:	80 17       	cp	r24, r16
    290a:	91 07       	cpc	r25, r17
    290c:	a2 07       	cpc	r26, r18
    290e:	b3 07       	cpc	r27, r19
    2910:	0c f0       	brlt	.+2      	; 0x2914 <_Z11filtr_massah+0x2e0>
    2912:	d0 c0       	rjmp	.+416    	; 0x2ab4 <_Z11filtr_massah+0x480>
    2914:	ad c3       	rjmp	.+1882   	; 0x3070 <_Z11filtr_massah+0xa3c>
    2916:	80 91 a4 05 	lds	r24, 0x05A4	; 0x8005a4 <param+0xb>
    291a:	90 91 a5 05 	lds	r25, 0x05A5	; 0x8005a5 <param+0xc>
    291e:	a0 91 a6 05 	lds	r26, 0x05A6	; 0x8005a6 <param+0xd>
    2922:	b0 91 a7 05 	lds	r27, 0x05A7	; 0x8005a7 <param+0xe>
    2926:	00 91 72 04 	lds	r16, 0x0472	; 0x800472 <massa_after_filtr>
    292a:	10 91 73 04 	lds	r17, 0x0473	; 0x800473 <massa_after_filtr+0x1>
    292e:	20 91 74 04 	lds	r18, 0x0474	; 0x800474 <massa_after_filtr+0x2>
    2932:	30 91 75 04 	lds	r19, 0x0475	; 0x800475 <massa_after_filtr+0x3>
    2936:	80 17       	cp	r24, r16
    2938:	91 07       	cpc	r25, r17
    293a:	a2 07       	cpc	r26, r18
    293c:	b3 07       	cpc	r27, r19
    293e:	ac f4       	brge	.+42     	; 0x296a <_Z11filtr_massah+0x336>
    2940:	89 2b       	or	r24, r25
    2942:	8a 2b       	or	r24, r26
    2944:	8b 2b       	or	r24, r27
    2946:	89 f0       	breq	.+34     	; 0x296a <_Z11filtr_massah+0x336>
    2948:	40 91 9f 05 	lds	r20, 0x059F	; 0x80059f <param+0x6>
    294c:	c9 01       	movw	r24, r18
    294e:	b8 01       	movw	r22, r16
    2950:	21 de       	rcall	.-958    	; 0x2594 <_Z7diskretmh>
    2952:	60 93 72 04 	sts	0x0472, r22	; 0x800472 <massa_after_filtr>
    2956:	70 93 73 04 	sts	0x0473, r23	; 0x800473 <massa_after_filtr+0x1>
    295a:	80 93 74 04 	sts	0x0474, r24	; 0x800474 <massa_after_filtr+0x2>
    295e:	90 93 75 04 	sts	0x0475, r25	; 0x800475 <massa_after_filtr+0x3>
    2962:	83 e0       	ldi	r24, 0x03	; 3
    2964:	80 93 61 03 	sts	0x0361, r24	; 0x800361 <_ZZ11filtr_massahE14namber_diskret>
    2968:	3f c1       	rjmp	.+638    	; 0x2be8 <_Z11filtr_massah+0x5b4>

          switch (namber_diskret)
    296a:	80 91 61 03 	lds	r24, 0x0361	; 0x800361 <_ZZ11filtr_massahE14namber_diskret>
    296e:	82 30       	cpi	r24, 0x02	; 2
    2970:	09 f4       	brne	.+2      	; 0x2974 <_Z11filtr_massah+0x340>
    2972:	a0 c0       	rjmp	.+320    	; 0x2ab4 <_Z11filtr_massah+0x480>
    2974:	83 30       	cpi	r24, 0x03	; 3
    2976:	09 f4       	brne	.+2      	; 0x297a <_Z11filtr_massah+0x346>
    2978:	37 c1       	rjmp	.+622    	; 0x2be8 <_Z11filtr_massah+0x5b4>
    297a:	81 30       	cpi	r24, 0x01	; 1
    297c:	09 f0       	breq	.+2      	; 0x2980 <_Z11filtr_massah+0x34c>
    297e:	cb c1       	rjmp	.+918    	; 0x2d16 <_Z11filtr_massah+0x6e2>
          {
               case 1: if(((param.discret1 * 9) + param.NPV )< massa_after_filtr + metrology.tara) { boolean.npv = true;} else {boolean.npv = false;} // показать превышение НПВ labs??
    2980:	e9 e9       	ldi	r30, 0x99	; 153
    2982:	f5 e0       	ldi	r31, 0x05	; 5
    2984:	24 81       	ldd	r18, Z+4	; 0x04
    2986:	30 e0       	ldi	r19, 0x00	; 0
    2988:	c0 90 72 04 	lds	r12, 0x0472	; 0x800472 <massa_after_filtr>
    298c:	d0 90 73 04 	lds	r13, 0x0473	; 0x800473 <massa_after_filtr+0x1>
    2990:	e0 90 74 04 	lds	r14, 0x0474	; 0x800474 <massa_after_filtr+0x2>
    2994:	f0 90 75 04 	lds	r15, 0x0475	; 0x800475 <massa_after_filtr+0x3>
    2998:	c9 01       	movw	r24, r18
    299a:	88 0f       	add	r24, r24
    299c:	99 1f       	adc	r25, r25
    299e:	88 0f       	add	r24, r24
    29a0:	99 1f       	adc	r25, r25
    29a2:	88 0f       	add	r24, r24
    29a4:	99 1f       	adc	r25, r25
    29a6:	82 0f       	add	r24, r18
    29a8:	93 1f       	adc	r25, r19
    29aa:	09 2e       	mov	r0, r25
    29ac:	00 0c       	add	r0, r0
    29ae:	aa 0b       	sbc	r26, r26
    29b0:	bb 0b       	sbc	r27, r27
    29b2:	41 89       	ldd	r20, Z+17	; 0x11
    29b4:	52 89       	ldd	r21, Z+18	; 0x12
    29b6:	63 89       	ldd	r22, Z+19	; 0x13
    29b8:	74 89       	ldd	r23, Z+20	; 0x14
    29ba:	84 0f       	add	r24, r20
    29bc:	95 1f       	adc	r25, r21
    29be:	a6 1f       	adc	r26, r22
    29c0:	b7 1f       	adc	r27, r23
    29c2:	40 91 05 05 	lds	r20, 0x0505	; 0x800505 <metrology>
    29c6:	50 91 06 05 	lds	r21, 0x0506	; 0x800506 <metrology+0x1>
    29ca:	60 91 07 05 	lds	r22, 0x0507	; 0x800507 <metrology+0x2>
    29ce:	70 91 08 05 	lds	r23, 0x0508	; 0x800508 <metrology+0x3>
    29d2:	4c 0d       	add	r20, r12
    29d4:	5d 1d       	adc	r21, r13
    29d6:	6e 1d       	adc	r22, r14
    29d8:	7f 1d       	adc	r23, r15
    29da:	84 17       	cp	r24, r20
    29dc:	95 07       	cpc	r25, r21
    29de:	a6 07       	cpc	r26, r22
    29e0:	b7 07       	cpc	r27, r23
    29e2:	34 f4       	brge	.+12     	; 0x29f0 <_Z11filtr_massah+0x3bc>
    29e4:	e9 e8       	ldi	r30, 0x89	; 137
    29e6:	f6 e0       	ldi	r31, 0x06	; 6
    29e8:	80 81       	ld	r24, Z
    29ea:	81 60       	ori	r24, 0x01	; 1
    29ec:	80 83       	st	Z, r24
    29ee:	05 c0       	rjmp	.+10     	; 0x29fa <_Z11filtr_massah+0x3c6>
    29f0:	e9 e8       	ldi	r30, 0x89	; 137
    29f2:	f6 e0       	ldi	r31, 0x06	; 6
    29f4:	80 81       	ld	r24, Z
    29f6:	8e 7f       	andi	r24, 0xFE	; 254
    29f8:	80 83       	st	Z, r24
               if (tim_5 == 0 && !boolean.errors) { if (massa_after_filtr < last_massa + param.discret1 *2  && massa_after_filtr > last_massa - param.discret1 *2 ) \
    29fa:	80 91 30 03 	lds	r24, 0x0330	; 0x800330 <tim_5>
    29fe:	90 91 31 03 	lds	r25, 0x0331	; 0x800331 <tim_5+0x1>
    2a02:	89 2b       	or	r24, r25
    2a04:	09 f0       	breq	.+2      	; 0x2a08 <_Z11filtr_massah+0x3d4>
    2a06:	87 c1       	rjmp	.+782    	; 0x2d16 <_Z11filtr_massah+0x6e2>
    2a08:	80 91 87 06 	lds	r24, 0x0687	; 0x800687 <boolean>
    2a0c:	80 fd       	sbrc	r24, 0
    2a0e:	36 c3       	rjmp	.+1644   	; 0x307c <_Z11filtr_massah+0xa48>
    2a10:	c9 01       	movw	r24, r18
    2a12:	88 0f       	add	r24, r24
    2a14:	99 1f       	adc	r25, r25
    2a16:	09 2e       	mov	r0, r25
    2a18:	00 0c       	add	r0, r0
    2a1a:	aa 0b       	sbc	r26, r26
    2a1c:	bb 0b       	sbc	r27, r27
    2a1e:	40 91 76 04 	lds	r20, 0x0476	; 0x800476 <last_massa>
    2a22:	50 91 77 04 	lds	r21, 0x0477	; 0x800477 <last_massa+0x1>
    2a26:	60 91 78 04 	lds	r22, 0x0478	; 0x800478 <last_massa+0x2>
    2a2a:	70 91 79 04 	lds	r23, 0x0479	; 0x800479 <last_massa+0x3>
    2a2e:	8c 01       	movw	r16, r24
    2a30:	9d 01       	movw	r18, r26
    2a32:	04 0f       	add	r16, r20
    2a34:	15 1f       	adc	r17, r21
    2a36:	26 1f       	adc	r18, r22
    2a38:	37 1f       	adc	r19, r23
    2a3a:	c0 16       	cp	r12, r16
    2a3c:	d1 06       	cpc	r13, r17
    2a3e:	e2 06       	cpc	r14, r18
    2a40:	f3 06       	cpc	r15, r19
    2a42:	94 f4       	brge	.+36     	; 0x2a68 <_Z11filtr_massah+0x434>
    2a44:	48 1b       	sub	r20, r24
    2a46:	59 0b       	sbc	r21, r25
    2a48:	6a 0b       	sbc	r22, r26
    2a4a:	7b 0b       	sbc	r23, r27
    2a4c:	4c 15       	cp	r20, r12
    2a4e:	5d 05       	cpc	r21, r13
    2a50:	6e 05       	cpc	r22, r14
    2a52:	7f 05       	cpc	r23, r15
    2a54:	4c f4       	brge	.+18     	; 0x2a68 <_Z11filtr_massah+0x434>
               {send_point(3);boolean.stab = true;}  else {send_non_point(3);boolean.stab = false;}  tim_5 = (param.tim_stab * 1000); last_massa = massa_after_filtr;}  break;   
    2a56:	83 e0       	ldi	r24, 0x03	; 3
    2a58:	0e 94 ce 1d 	call	0x3b9c	; 0x3b9c <_Z10send_pointh>
    2a5c:	e9 e8       	ldi	r30, 0x89	; 137
    2a5e:	f6 e0       	ldi	r31, 0x06	; 6
    2a60:	80 81       	ld	r24, Z
    2a62:	88 60       	ori	r24, 0x08	; 8
    2a64:	80 83       	st	Z, r24
    2a66:	08 c0       	rjmp	.+16     	; 0x2a78 <_Z11filtr_massah+0x444>
    2a68:	83 e0       	ldi	r24, 0x03	; 3
    2a6a:	0e 94 dc 1d 	call	0x3bb8	; 0x3bb8 <_Z14send_non_pointh>
    2a6e:	e9 e8       	ldi	r30, 0x89	; 137
    2a70:	f6 e0       	ldi	r31, 0x06	; 6
    2a72:	80 81       	ld	r24, Z
    2a74:	87 7f       	andi	r24, 0xF7	; 247
    2a76:	80 83       	st	Z, r24
    2a78:	40 91 b6 05 	lds	r20, 0x05B6	; 0x8005b6 <param+0x1d>
    2a7c:	28 ee       	ldi	r18, 0xE8	; 232
    2a7e:	33 e0       	ldi	r19, 0x03	; 3
    2a80:	42 9f       	mul	r20, r18
    2a82:	c0 01       	movw	r24, r0
    2a84:	43 9f       	mul	r20, r19
    2a86:	90 0d       	add	r25, r0
    2a88:	11 24       	eor	r1, r1
    2a8a:	90 93 31 03 	sts	0x0331, r25	; 0x800331 <tim_5+0x1>
    2a8e:	80 93 30 03 	sts	0x0330, r24	; 0x800330 <tim_5>
    2a92:	80 91 72 04 	lds	r24, 0x0472	; 0x800472 <massa_after_filtr>
    2a96:	90 91 73 04 	lds	r25, 0x0473	; 0x800473 <massa_after_filtr+0x1>
    2a9a:	a0 91 74 04 	lds	r26, 0x0474	; 0x800474 <massa_after_filtr+0x2>
    2a9e:	b0 91 75 04 	lds	r27, 0x0475	; 0x800475 <massa_after_filtr+0x3>
    2aa2:	80 93 76 04 	sts	0x0476, r24	; 0x800476 <last_massa>
    2aa6:	90 93 77 04 	sts	0x0477, r25	; 0x800477 <last_massa+0x1>
    2aaa:	a0 93 78 04 	sts	0x0478, r26	; 0x800478 <last_massa+0x2>
    2aae:	b0 93 79 04 	sts	0x0479, r27	; 0x800479 <last_massa+0x3>
    2ab2:	31 c1       	rjmp	.+610    	; 0x2d16 <_Z11filtr_massah+0x6e2>
                       
               case 2: if(((param.discret2 * 9) + param.NPV )< massa_after_filtr + metrology.tara) {boolean.npv = true;} else {boolean.npv = false;} 
    2ab4:	e9 e9       	ldi	r30, 0x99	; 153
    2ab6:	f5 e0       	ldi	r31, 0x05	; 5
    2ab8:	25 81       	ldd	r18, Z+5	; 0x05
    2aba:	30 e0       	ldi	r19, 0x00	; 0
    2abc:	c0 90 72 04 	lds	r12, 0x0472	; 0x800472 <massa_after_filtr>
    2ac0:	d0 90 73 04 	lds	r13, 0x0473	; 0x800473 <massa_after_filtr+0x1>
    2ac4:	e0 90 74 04 	lds	r14, 0x0474	; 0x800474 <massa_after_filtr+0x2>
    2ac8:	f0 90 75 04 	lds	r15, 0x0475	; 0x800475 <massa_after_filtr+0x3>
    2acc:	c9 01       	movw	r24, r18
    2ace:	88 0f       	add	r24, r24
    2ad0:	99 1f       	adc	r25, r25
    2ad2:	88 0f       	add	r24, r24
    2ad4:	99 1f       	adc	r25, r25
    2ad6:	88 0f       	add	r24, r24
    2ad8:	99 1f       	adc	r25, r25
    2ada:	82 0f       	add	r24, r18
    2adc:	93 1f       	adc	r25, r19
    2ade:	09 2e       	mov	r0, r25
    2ae0:	00 0c       	add	r0, r0
    2ae2:	aa 0b       	sbc	r26, r26
    2ae4:	bb 0b       	sbc	r27, r27
    2ae6:	41 89       	ldd	r20, Z+17	; 0x11
    2ae8:	52 89       	ldd	r21, Z+18	; 0x12
    2aea:	63 89       	ldd	r22, Z+19	; 0x13
    2aec:	74 89       	ldd	r23, Z+20	; 0x14
    2aee:	84 0f       	add	r24, r20
    2af0:	95 1f       	adc	r25, r21
    2af2:	a6 1f       	adc	r26, r22
    2af4:	b7 1f       	adc	r27, r23
    2af6:	40 91 05 05 	lds	r20, 0x0505	; 0x800505 <metrology>
    2afa:	50 91 06 05 	lds	r21, 0x0506	; 0x800506 <metrology+0x1>
    2afe:	60 91 07 05 	lds	r22, 0x0507	; 0x800507 <metrology+0x2>
    2b02:	70 91 08 05 	lds	r23, 0x0508	; 0x800508 <metrology+0x3>
    2b06:	4c 0d       	add	r20, r12
    2b08:	5d 1d       	adc	r21, r13
    2b0a:	6e 1d       	adc	r22, r14
    2b0c:	7f 1d       	adc	r23, r15
    2b0e:	84 17       	cp	r24, r20
    2b10:	95 07       	cpc	r25, r21
    2b12:	a6 07       	cpc	r26, r22
    2b14:	b7 07       	cpc	r27, r23
    2b16:	34 f4       	brge	.+12     	; 0x2b24 <_Z11filtr_massah+0x4f0>
    2b18:	e9 e8       	ldi	r30, 0x89	; 137
    2b1a:	f6 e0       	ldi	r31, 0x06	; 6
    2b1c:	80 81       	ld	r24, Z
    2b1e:	81 60       	ori	r24, 0x01	; 1
    2b20:	80 83       	st	Z, r24
    2b22:	05 c0       	rjmp	.+10     	; 0x2b2e <_Z11filtr_massah+0x4fa>
    2b24:	e9 e8       	ldi	r30, 0x89	; 137
    2b26:	f6 e0       	ldi	r31, 0x06	; 6
    2b28:	80 81       	ld	r24, Z
    2b2a:	8e 7f       	andi	r24, 0xFE	; 254
    2b2c:	80 83       	st	Z, r24
               if (tim_5 == 0 && !boolean.errors) { if (massa_after_filtr < last_massa + param.discret2 *2 && massa_after_filtr > last_massa - param.discret2 *2 ) \
    2b2e:	80 91 30 03 	lds	r24, 0x0330	; 0x800330 <tim_5>
    2b32:	90 91 31 03 	lds	r25, 0x0331	; 0x800331 <tim_5+0x1>
    2b36:	89 2b       	or	r24, r25
    2b38:	09 f0       	breq	.+2      	; 0x2b3c <_Z11filtr_massah+0x508>
    2b3a:	ed c0       	rjmp	.+474    	; 0x2d16 <_Z11filtr_massah+0x6e2>
    2b3c:	80 91 87 06 	lds	r24, 0x0687	; 0x800687 <boolean>
    2b40:	80 fd       	sbrc	r24, 0
    2b42:	9c c2       	rjmp	.+1336   	; 0x307c <_Z11filtr_massah+0xa48>
    2b44:	c9 01       	movw	r24, r18
    2b46:	88 0f       	add	r24, r24
    2b48:	99 1f       	adc	r25, r25
    2b4a:	09 2e       	mov	r0, r25
    2b4c:	00 0c       	add	r0, r0
    2b4e:	aa 0b       	sbc	r26, r26
    2b50:	bb 0b       	sbc	r27, r27
    2b52:	40 91 76 04 	lds	r20, 0x0476	; 0x800476 <last_massa>
    2b56:	50 91 77 04 	lds	r21, 0x0477	; 0x800477 <last_massa+0x1>
    2b5a:	60 91 78 04 	lds	r22, 0x0478	; 0x800478 <last_massa+0x2>
    2b5e:	70 91 79 04 	lds	r23, 0x0479	; 0x800479 <last_massa+0x3>
    2b62:	8c 01       	movw	r16, r24
    2b64:	9d 01       	movw	r18, r26
    2b66:	04 0f       	add	r16, r20
    2b68:	15 1f       	adc	r17, r21
    2b6a:	26 1f       	adc	r18, r22
    2b6c:	37 1f       	adc	r19, r23
    2b6e:	c0 16       	cp	r12, r16
    2b70:	d1 06       	cpc	r13, r17
    2b72:	e2 06       	cpc	r14, r18
    2b74:	f3 06       	cpc	r15, r19
    2b76:	94 f4       	brge	.+36     	; 0x2b9c <_Z11filtr_massah+0x568>
    2b78:	48 1b       	sub	r20, r24
    2b7a:	59 0b       	sbc	r21, r25
    2b7c:	6a 0b       	sbc	r22, r26
    2b7e:	7b 0b       	sbc	r23, r27
    2b80:	4c 15       	cp	r20, r12
    2b82:	5d 05       	cpc	r21, r13
    2b84:	6e 05       	cpc	r22, r14
    2b86:	7f 05       	cpc	r23, r15
    2b88:	4c f4       	brge	.+18     	; 0x2b9c <_Z11filtr_massah+0x568>
               {send_point(3);boolean.stab = true;}  else {send_non_point(3);boolean.stab = false;}  tim_5 = (param.tim_stab * 1000); last_massa = massa_after_filtr;}  break;
    2b8a:	83 e0       	ldi	r24, 0x03	; 3
    2b8c:	0e 94 ce 1d 	call	0x3b9c	; 0x3b9c <_Z10send_pointh>
    2b90:	e9 e8       	ldi	r30, 0x89	; 137
    2b92:	f6 e0       	ldi	r31, 0x06	; 6
    2b94:	80 81       	ld	r24, Z
    2b96:	88 60       	ori	r24, 0x08	; 8
    2b98:	80 83       	st	Z, r24
    2b9a:	08 c0       	rjmp	.+16     	; 0x2bac <_Z11filtr_massah+0x578>
    2b9c:	83 e0       	ldi	r24, 0x03	; 3
    2b9e:	0e 94 dc 1d 	call	0x3bb8	; 0x3bb8 <_Z14send_non_pointh>
    2ba2:	e9 e8       	ldi	r30, 0x89	; 137
    2ba4:	f6 e0       	ldi	r31, 0x06	; 6
    2ba6:	80 81       	ld	r24, Z
    2ba8:	87 7f       	andi	r24, 0xF7	; 247
    2baa:	80 83       	st	Z, r24
    2bac:	40 91 b6 05 	lds	r20, 0x05B6	; 0x8005b6 <param+0x1d>
    2bb0:	28 ee       	ldi	r18, 0xE8	; 232
    2bb2:	33 e0       	ldi	r19, 0x03	; 3
    2bb4:	42 9f       	mul	r20, r18
    2bb6:	c0 01       	movw	r24, r0
    2bb8:	43 9f       	mul	r20, r19
    2bba:	90 0d       	add	r25, r0
    2bbc:	11 24       	eor	r1, r1
    2bbe:	90 93 31 03 	sts	0x0331, r25	; 0x800331 <tim_5+0x1>
    2bc2:	80 93 30 03 	sts	0x0330, r24	; 0x800330 <tim_5>
    2bc6:	80 91 72 04 	lds	r24, 0x0472	; 0x800472 <massa_after_filtr>
    2bca:	90 91 73 04 	lds	r25, 0x0473	; 0x800473 <massa_after_filtr+0x1>
    2bce:	a0 91 74 04 	lds	r26, 0x0474	; 0x800474 <massa_after_filtr+0x2>
    2bd2:	b0 91 75 04 	lds	r27, 0x0475	; 0x800475 <massa_after_filtr+0x3>
    2bd6:	80 93 76 04 	sts	0x0476, r24	; 0x800476 <last_massa>
    2bda:	90 93 77 04 	sts	0x0477, r25	; 0x800477 <last_massa+0x1>
    2bde:	a0 93 78 04 	sts	0x0478, r26	; 0x800478 <last_massa+0x2>
    2be2:	b0 93 79 04 	sts	0x0479, r27	; 0x800479 <last_massa+0x3>
    2be6:	97 c0       	rjmp	.+302    	; 0x2d16 <_Z11filtr_massah+0x6e2>
                       
               case 3: if(((param.discret3 * 9) + param.NPV )< massa_after_filtr + metrology.tara) { boolean.npv = true;} else {boolean.npv = false;} 
    2be8:	e9 e9       	ldi	r30, 0x99	; 153
    2bea:	f5 e0       	ldi	r31, 0x05	; 5
    2bec:	26 81       	ldd	r18, Z+6	; 0x06
    2bee:	30 e0       	ldi	r19, 0x00	; 0
    2bf0:	c0 90 72 04 	lds	r12, 0x0472	; 0x800472 <massa_after_filtr>
    2bf4:	d0 90 73 04 	lds	r13, 0x0473	; 0x800473 <massa_after_filtr+0x1>
    2bf8:	e0 90 74 04 	lds	r14, 0x0474	; 0x800474 <massa_after_filtr+0x2>
    2bfc:	f0 90 75 04 	lds	r15, 0x0475	; 0x800475 <massa_after_filtr+0x3>
    2c00:	c9 01       	movw	r24, r18
    2c02:	88 0f       	add	r24, r24
    2c04:	99 1f       	adc	r25, r25
    2c06:	88 0f       	add	r24, r24
    2c08:	99 1f       	adc	r25, r25
    2c0a:	88 0f       	add	r24, r24
    2c0c:	99 1f       	adc	r25, r25
    2c0e:	82 0f       	add	r24, r18
    2c10:	93 1f       	adc	r25, r19
    2c12:	09 2e       	mov	r0, r25
    2c14:	00 0c       	add	r0, r0
    2c16:	aa 0b       	sbc	r26, r26
    2c18:	bb 0b       	sbc	r27, r27
    2c1a:	41 89       	ldd	r20, Z+17	; 0x11
    2c1c:	52 89       	ldd	r21, Z+18	; 0x12
    2c1e:	63 89       	ldd	r22, Z+19	; 0x13
    2c20:	74 89       	ldd	r23, Z+20	; 0x14
    2c22:	84 0f       	add	r24, r20
    2c24:	95 1f       	adc	r25, r21
    2c26:	a6 1f       	adc	r26, r22
    2c28:	b7 1f       	adc	r27, r23
    2c2a:	40 91 05 05 	lds	r20, 0x0505	; 0x800505 <metrology>
    2c2e:	50 91 06 05 	lds	r21, 0x0506	; 0x800506 <metrology+0x1>
    2c32:	60 91 07 05 	lds	r22, 0x0507	; 0x800507 <metrology+0x2>
    2c36:	70 91 08 05 	lds	r23, 0x0508	; 0x800508 <metrology+0x3>
    2c3a:	4c 0d       	add	r20, r12
    2c3c:	5d 1d       	adc	r21, r13
    2c3e:	6e 1d       	adc	r22, r14
    2c40:	7f 1d       	adc	r23, r15
    2c42:	84 17       	cp	r24, r20
    2c44:	95 07       	cpc	r25, r21
    2c46:	a6 07       	cpc	r26, r22
    2c48:	b7 07       	cpc	r27, r23
    2c4a:	34 f4       	brge	.+12     	; 0x2c58 <_Z11filtr_massah+0x624>
    2c4c:	e9 e8       	ldi	r30, 0x89	; 137
    2c4e:	f6 e0       	ldi	r31, 0x06	; 6
    2c50:	80 81       	ld	r24, Z
    2c52:	81 60       	ori	r24, 0x01	; 1
    2c54:	80 83       	st	Z, r24
    2c56:	05 c0       	rjmp	.+10     	; 0x2c62 <_Z11filtr_massah+0x62e>
    2c58:	e9 e8       	ldi	r30, 0x89	; 137
    2c5a:	f6 e0       	ldi	r31, 0x06	; 6
    2c5c:	80 81       	ld	r24, Z
    2c5e:	8e 7f       	andi	r24, 0xFE	; 254
    2c60:	80 83       	st	Z, r24
               if (tim_5 == 0 && !boolean.errors) { if (massa_after_filtr < last_massa + param.discret3 *2  && massa_after_filtr > last_massa - param.discret3 *2 ) \
    2c62:	80 91 30 03 	lds	r24, 0x0330	; 0x800330 <tim_5>
    2c66:	90 91 31 03 	lds	r25, 0x0331	; 0x800331 <tim_5+0x1>
    2c6a:	89 2b       	or	r24, r25
    2c6c:	09 f0       	breq	.+2      	; 0x2c70 <_Z11filtr_massah+0x63c>
    2c6e:	53 c0       	rjmp	.+166    	; 0x2d16 <_Z11filtr_massah+0x6e2>
    2c70:	80 91 87 06 	lds	r24, 0x0687	; 0x800687 <boolean>
    2c74:	80 fd       	sbrc	r24, 0
    2c76:	02 c2       	rjmp	.+1028   	; 0x307c <_Z11filtr_massah+0xa48>
    2c78:	c9 01       	movw	r24, r18
    2c7a:	88 0f       	add	r24, r24
    2c7c:	99 1f       	adc	r25, r25
    2c7e:	09 2e       	mov	r0, r25
    2c80:	00 0c       	add	r0, r0
    2c82:	aa 0b       	sbc	r26, r26
    2c84:	bb 0b       	sbc	r27, r27
    2c86:	40 91 76 04 	lds	r20, 0x0476	; 0x800476 <last_massa>
    2c8a:	50 91 77 04 	lds	r21, 0x0477	; 0x800477 <last_massa+0x1>
    2c8e:	60 91 78 04 	lds	r22, 0x0478	; 0x800478 <last_massa+0x2>
    2c92:	70 91 79 04 	lds	r23, 0x0479	; 0x800479 <last_massa+0x3>
    2c96:	8c 01       	movw	r16, r24
    2c98:	9d 01       	movw	r18, r26
    2c9a:	04 0f       	add	r16, r20
    2c9c:	15 1f       	adc	r17, r21
    2c9e:	26 1f       	adc	r18, r22
    2ca0:	37 1f       	adc	r19, r23
    2ca2:	c0 16       	cp	r12, r16
    2ca4:	d1 06       	cpc	r13, r17
    2ca6:	e2 06       	cpc	r14, r18
    2ca8:	f3 06       	cpc	r15, r19
    2caa:	8c f4       	brge	.+34     	; 0x2cce <_Z11filtr_massah+0x69a>
    2cac:	48 1b       	sub	r20, r24
    2cae:	59 0b       	sbc	r21, r25
    2cb0:	6a 0b       	sbc	r22, r26
    2cb2:	7b 0b       	sbc	r23, r27
    2cb4:	4c 15       	cp	r20, r12
    2cb6:	5d 05       	cpc	r21, r13
    2cb8:	6e 05       	cpc	r22, r14
    2cba:	7f 05       	cpc	r23, r15
               {send_point(3);boolean.stab = true;}  else {send_non_point(3);boolean.stab = false;}  tim_5 = (param.tim_stab * 1000); last_massa = massa_after_filtr;}  break;
    2cbc:	44 f4       	brge	.+16     	; 0x2cce <_Z11filtr_massah+0x69a>
    2cbe:	83 e0       	ldi	r24, 0x03	; 3
    2cc0:	6d d7       	rcall	.+3802   	; 0x3b9c <_Z10send_pointh>
    2cc2:	e9 e8       	ldi	r30, 0x89	; 137
    2cc4:	f6 e0       	ldi	r31, 0x06	; 6
    2cc6:	80 81       	ld	r24, Z
    2cc8:	88 60       	ori	r24, 0x08	; 8
    2cca:	80 83       	st	Z, r24
    2ccc:	07 c0       	rjmp	.+14     	; 0x2cdc <_Z11filtr_massah+0x6a8>
    2cce:	83 e0       	ldi	r24, 0x03	; 3
    2cd0:	73 d7       	rcall	.+3814   	; 0x3bb8 <_Z14send_non_pointh>
    2cd2:	e9 e8       	ldi	r30, 0x89	; 137
    2cd4:	f6 e0       	ldi	r31, 0x06	; 6
    2cd6:	80 81       	ld	r24, Z
    2cd8:	87 7f       	andi	r24, 0xF7	; 247
    2cda:	80 83       	st	Z, r24
    2cdc:	40 91 b6 05 	lds	r20, 0x05B6	; 0x8005b6 <param+0x1d>
    2ce0:	28 ee       	ldi	r18, 0xE8	; 232
    2ce2:	33 e0       	ldi	r19, 0x03	; 3
    2ce4:	42 9f       	mul	r20, r18
    2ce6:	c0 01       	movw	r24, r0
    2ce8:	43 9f       	mul	r20, r19
    2cea:	90 0d       	add	r25, r0
    2cec:	11 24       	eor	r1, r1
    2cee:	90 93 31 03 	sts	0x0331, r25	; 0x800331 <tim_5+0x1>
    2cf2:	80 93 30 03 	sts	0x0330, r24	; 0x800330 <tim_5>
    2cf6:	80 91 72 04 	lds	r24, 0x0472	; 0x800472 <massa_after_filtr>
    2cfa:	90 91 73 04 	lds	r25, 0x0473	; 0x800473 <massa_after_filtr+0x1>
    2cfe:	a0 91 74 04 	lds	r26, 0x0474	; 0x800474 <massa_after_filtr+0x2>
    2d02:	b0 91 75 04 	lds	r27, 0x0475	; 0x800475 <massa_after_filtr+0x3>
    2d06:	80 93 76 04 	sts	0x0476, r24	; 0x800476 <last_massa>
    2d0a:	90 93 77 04 	sts	0x0477, r25	; 0x800477 <last_massa+0x1>
    2d0e:	a0 93 78 04 	sts	0x0478, r26	; 0x800478 <last_massa+0x2>
    2d12:	b0 93 79 04 	sts	0x0479, r27	; 0x800479 <last_massa+0x3>
               // это строчки стабилизации. если предыдущий вес в пределах одного дискрета в обе стороны то вес стабилен.      
          }
     }
 
     if (boolean.npv && !boolean.errors) {strcpy_P(send_buf, (PGM_P)pgm_read_word(&(error_string[ERROR1]))); error_buzzer(true); }  // если у нас превышение НПВ показать ерор, пикать, погасить лампы
    2d16:	80 91 89 06 	lds	r24, 0x0689	; 0x800689 <boolean+0x2>
    2d1a:	80 ff       	sbrs	r24, 0
    2d1c:	0f c0       	rjmp	.+30     	; 0x2d3c <_Z11filtr_massah+0x708>
    2d1e:	80 91 87 06 	lds	r24, 0x0687	; 0x800687 <boolean>
    2d22:	80 fd       	sbrc	r24, 0
    2d24:	1e c0       	rjmp	.+60     	; 0x2d62 <_Z11filtr_massah+0x72e>
    2d26:	ef ee       	ldi	r30, 0xEF	; 239
    2d28:	f2 e0       	ldi	r31, 0x02	; 2
    2d2a:	65 91       	lpm	r22, Z+
    2d2c:	74 91       	lpm	r23, Z
    2d2e:	8c e8       	ldi	r24, 0x8C	; 140
    2d30:	94 e0       	ldi	r25, 0x04	; 4
    2d32:	0e 94 04 46 	call	0x8c08	; 0x8c08 <strcpy_P>
    2d36:	81 e0       	ldi	r24, 0x01	; 1
    2d38:	0e 94 6e 09 	call	0x12dc	; 0x12dc <_Z12error_buzzerb>
     (massa_after_filtr == 0 && !boolean.errors ) ?   send_point (2) : send_non_point(2);   // если масса равна 0 то зажечь светик
    2d3c:	80 91 72 04 	lds	r24, 0x0472	; 0x800472 <massa_after_filtr>
    2d40:	90 91 73 04 	lds	r25, 0x0473	; 0x800473 <massa_after_filtr+0x1>
    2d44:	a0 91 74 04 	lds	r26, 0x0474	; 0x800474 <massa_after_filtr+0x2>
    2d48:	b0 91 75 04 	lds	r27, 0x0475	; 0x800475 <massa_after_filtr+0x3>
    2d4c:	89 2b       	or	r24, r25
    2d4e:	8a 2b       	or	r24, r26
    2d50:	8b 2b       	or	r24, r27
    2d52:	39 f4       	brne	.+14     	; 0x2d62 <_Z11filtr_massah+0x72e>
    2d54:	80 91 87 06 	lds	r24, 0x0687	; 0x800687 <boolean>
    2d58:	80 fd       	sbrc	r24, 0
    2d5a:	03 c0       	rjmp	.+6      	; 0x2d62 <_Z11filtr_massah+0x72e>
    2d5c:	82 e0       	ldi	r24, 0x02	; 2
    2d5e:	1e d7       	rcall	.+3644   	; 0x3b9c <_Z10send_pointh>
    2d60:	02 c0       	rjmp	.+4      	; 0x2d66 <_Z11filtr_massah+0x732>
    2d62:	82 e0       	ldi	r24, 0x02	; 2
    2d64:	29 d7       	rcall	.+3666   	; 0x3bb8 <_Z14send_non_pointh>
     if (!boolean.errors && !boolean.npv && boolean.start_delay) {sprintf(send_buf, "%6ld" , massa_after_filtr ); eror_sens_up = 0; } // если нет ошибок показать массу, перекинуть счетчик в 0
    2d66:	80 91 87 06 	lds	r24, 0x0687	; 0x800687 <boolean>
    2d6a:	80 fd       	sbrc	r24, 0
    2d6c:	2f c0       	rjmp	.+94     	; 0x2dcc <_Z11filtr_massah+0x798>
    2d6e:	80 91 89 06 	lds	r24, 0x0689	; 0x800689 <boolean+0x2>
    2d72:	80 fd       	sbrc	r24, 0
    2d74:	8d c1       	rjmp	.+794    	; 0x3090 <_Z11filtr_massah+0xa5c>
    2d76:	80 91 88 06 	lds	r24, 0x0688	; 0x800688 <boolean+0x1>
    2d7a:	88 23       	and	r24, r24
    2d7c:	0c f0       	brlt	.+2      	; 0x2d80 <_Z11filtr_massah+0x74c>
    2d7e:	88 c1       	rjmp	.+784    	; 0x3090 <_Z11filtr_massah+0xa5c>
    2d80:	80 91 75 04 	lds	r24, 0x0475	; 0x800475 <massa_after_filtr+0x3>
    2d84:	8f 93       	push	r24
    2d86:	80 91 74 04 	lds	r24, 0x0474	; 0x800474 <massa_after_filtr+0x2>
    2d8a:	8f 93       	push	r24
    2d8c:	80 91 73 04 	lds	r24, 0x0473	; 0x800473 <massa_after_filtr+0x1>
    2d90:	8f 93       	push	r24
    2d92:	80 91 72 04 	lds	r24, 0x0472	; 0x800472 <massa_after_filtr>
    2d96:	8f 93       	push	r24
    2d98:	8a e0       	ldi	r24, 0x0A	; 10
    2d9a:	92 e0       	ldi	r25, 0x02	; 2
    2d9c:	9f 93       	push	r25
    2d9e:	8f 93       	push	r24
    2da0:	8c e8       	ldi	r24, 0x8C	; 140
    2da2:	94 e0       	ldi	r25, 0x04	; 4
    2da4:	9f 93       	push	r25
    2da6:	8f 93       	push	r24
    2da8:	0e 94 79 46 	call	0x8cf2	; 0x8cf2 <sprintf>
    2dac:	10 92 7e 04 	sts	0x047E, r1	; 0x80047e <eror_sens_up>
     if(boolean.errors && boolean.start_delay) {
    2db0:	80 91 87 06 	lds	r24, 0x0687	; 0x800687 <boolean>
    2db4:	0d b7       	in	r16, 0x3d	; 61
    2db6:	1e b7       	in	r17, 0x3e	; 62
    2db8:	08 5f       	subi	r16, 0xF8	; 248
    2dba:	1f 4f       	sbci	r17, 0xFF	; 255
    2dbc:	0f b6       	in	r0, 0x3f	; 63
    2dbe:	f8 94       	cli
    2dc0:	1e bf       	out	0x3e, r17	; 62
    2dc2:	0f be       	out	0x3f, r0	; 63
    2dc4:	0d bf       	out	0x3d, r16	; 61
    2dc6:	80 fd       	sbrc	r24, 0
    2dc8:	5e c1       	rjmp	.+700    	; 0x3086 <_Z11filtr_massah+0xa52>
    2dca:	62 c1       	rjmp	.+708    	; 0x3090 <_Z11filtr_massah+0xa5c>
    2dcc:	80 91 88 06 	lds	r24, 0x0688	; 0x800688 <boolean+0x1>
    2dd0:	88 23       	and	r24, r24
    2dd2:	0c f0       	brlt	.+2      	; 0x2dd6 <_Z11filtr_massah+0x7a2>
    2dd4:	5d c1       	rjmp	.+698    	; 0x3090 <_Z11filtr_massah+0xa5c>
          switch (eror_sens_up){
    2dd6:	e0 91 7e 04 	lds	r30, 0x047E	; 0x80047e <eror_sens_up>
    2dda:	8e 2f       	mov	r24, r30
    2ddc:	90 e0       	ldi	r25, 0x00	; 0
    2dde:	fc 01       	movw	r30, r24
    2de0:	31 97       	sbiw	r30, 0x01	; 1
    2de2:	ec 30       	cpi	r30, 0x0C	; 12
    2de4:	f1 05       	cpc	r31, r1
    2de6:	08 f0       	brcs	.+2      	; 0x2dea <_Z11filtr_massah+0x7b6>
    2de8:	d9 c0       	rjmp	.+434    	; 0x2f9c <_Z11filtr_massah+0x968>
    2dea:	88 27       	eor	r24, r24
    2dec:	ee 58       	subi	r30, 0x8E	; 142
    2dee:	ff 4f       	sbci	r31, 0xFF	; 255
    2df0:	8f 4f       	sbci	r24, 0xFF	; 255
    2df2:	0c 94 e2 44 	jmp	0x89c4	; 0x89c4 <__tablejump2__>
               case 0:  break;
               case 1:  if (eror_sens_up <= param.sensor_number  && sens_cod_led & 0x01)   {tim_6 = 0;} else { strcpy_P(send_buf, (PGM_P)pgm_read_word(&(er_sens[0])));  }    break;
    2df6:	80 91 a8 05 	lds	r24, 0x05A8	; 0x8005a8 <param+0xf>
    2dfa:	88 23       	and	r24, r24
    2dfc:	21 f0       	breq	.+8      	; 0x2e06 <_Z11filtr_massah+0x7d2>
    2dfe:	80 91 8b 06 	lds	r24, 0x068B	; 0x80068b <sens_cod_led>
    2e02:	80 fd       	sbrc	r24, 0
    2e04:	d2 c0       	rjmp	.+420    	; 0x2faa <_Z11filtr_massah+0x976>
    2e06:	e1 e4       	ldi	r30, 0x41	; 65
    2e08:	f3 e0       	ldi	r31, 0x03	; 3
    2e0a:	65 91       	lpm	r22, Z+
    2e0c:	74 91       	lpm	r23, Z
    2e0e:	8c e8       	ldi	r24, 0x8C	; 140
    2e10:	94 e0       	ldi	r25, 0x04	; 4
    2e12:	0e 94 04 46 	call	0x8c08	; 0x8c08 <strcpy_P>
    2e16:	c2 c0       	rjmp	.+388    	; 0x2f9c <_Z11filtr_massah+0x968>
               case 2:  if (eror_sens_up <= param.sensor_number  && sens_cod_led & 0x02)   {tim_6 = 0;} else { strcpy_P(send_buf, (PGM_P)pgm_read_word(&(er_sens[1])));  }    break;
    2e18:	80 91 a8 05 	lds	r24, 0x05A8	; 0x8005a8 <param+0xf>
    2e1c:	82 30       	cpi	r24, 0x02	; 2
    2e1e:	20 f0       	brcs	.+8      	; 0x2e28 <_Z11filtr_massah+0x7f4>
    2e20:	80 91 8b 06 	lds	r24, 0x068B	; 0x80068b <sens_cod_led>
    2e24:	81 fd       	sbrc	r24, 1
    2e26:	c1 c0       	rjmp	.+386    	; 0x2faa <_Z11filtr_massah+0x976>
    2e28:	e3 e4       	ldi	r30, 0x43	; 67
    2e2a:	f3 e0       	ldi	r31, 0x03	; 3
    2e2c:	65 91       	lpm	r22, Z+
    2e2e:	74 91       	lpm	r23, Z
    2e30:	8c e8       	ldi	r24, 0x8C	; 140
    2e32:	94 e0       	ldi	r25, 0x04	; 4
    2e34:	0e 94 04 46 	call	0x8c08	; 0x8c08 <strcpy_P>
    2e38:	b1 c0       	rjmp	.+354    	; 0x2f9c <_Z11filtr_massah+0x968>
               case 3:  if (eror_sens_up <= param.sensor_number  && sens_cod_led & 0x04)   {tim_6 = 0;} else { strcpy_P(send_buf, (PGM_P)pgm_read_word(&(er_sens[2])));  }    break;
    2e3a:	80 91 a8 05 	lds	r24, 0x05A8	; 0x8005a8 <param+0xf>
    2e3e:	83 30       	cpi	r24, 0x03	; 3
    2e40:	20 f0       	brcs	.+8      	; 0x2e4a <_Z11filtr_massah+0x816>
    2e42:	80 91 8b 06 	lds	r24, 0x068B	; 0x80068b <sens_cod_led>
    2e46:	82 fd       	sbrc	r24, 2
    2e48:	b0 c0       	rjmp	.+352    	; 0x2faa <_Z11filtr_massah+0x976>
    2e4a:	e5 e4       	ldi	r30, 0x45	; 69
    2e4c:	f3 e0       	ldi	r31, 0x03	; 3
    2e4e:	65 91       	lpm	r22, Z+
    2e50:	74 91       	lpm	r23, Z
    2e52:	8c e8       	ldi	r24, 0x8C	; 140
    2e54:	94 e0       	ldi	r25, 0x04	; 4
    2e56:	0e 94 04 46 	call	0x8c08	; 0x8c08 <strcpy_P>
    2e5a:	a0 c0       	rjmp	.+320    	; 0x2f9c <_Z11filtr_massah+0x968>
               case 4:  if (eror_sens_up <= param.sensor_number  && sens_cod_led & 0x08)   {tim_6 = 0;} else { strcpy_P(send_buf, (PGM_P)pgm_read_word(&(er_sens[3])));  }    break;     
    2e5c:	80 91 a8 05 	lds	r24, 0x05A8	; 0x8005a8 <param+0xf>
    2e60:	84 30       	cpi	r24, 0x04	; 4
    2e62:	20 f0       	brcs	.+8      	; 0x2e6c <_Z11filtr_massah+0x838>
    2e64:	80 91 8b 06 	lds	r24, 0x068B	; 0x80068b <sens_cod_led>
    2e68:	83 fd       	sbrc	r24, 3
    2e6a:	9f c0       	rjmp	.+318    	; 0x2faa <_Z11filtr_massah+0x976>
    2e6c:	e7 e4       	ldi	r30, 0x47	; 71
    2e6e:	f3 e0       	ldi	r31, 0x03	; 3
    2e70:	65 91       	lpm	r22, Z+
    2e72:	74 91       	lpm	r23, Z
    2e74:	8c e8       	ldi	r24, 0x8C	; 140
    2e76:	94 e0       	ldi	r25, 0x04	; 4
    2e78:	0e 94 04 46 	call	0x8c08	; 0x8c08 <strcpy_P>
    2e7c:	8f c0       	rjmp	.+286    	; 0x2f9c <_Z11filtr_massah+0x968>
               case 5:  if (eror_sens_up <= param.sensor_number  && sens_cod_led & 0x10)   {tim_6 = 0;} else { strcpy_P(send_buf, (PGM_P)pgm_read_word(&(er_sens[4])));  }    break;
    2e7e:	80 91 a8 05 	lds	r24, 0x05A8	; 0x8005a8 <param+0xf>
    2e82:	85 30       	cpi	r24, 0x05	; 5
    2e84:	20 f0       	brcs	.+8      	; 0x2e8e <_Z11filtr_massah+0x85a>
    2e86:	80 91 8b 06 	lds	r24, 0x068B	; 0x80068b <sens_cod_led>
    2e8a:	84 fd       	sbrc	r24, 4
    2e8c:	8e c0       	rjmp	.+284    	; 0x2faa <_Z11filtr_massah+0x976>
    2e8e:	e9 e4       	ldi	r30, 0x49	; 73
    2e90:	f3 e0       	ldi	r31, 0x03	; 3
    2e92:	65 91       	lpm	r22, Z+
    2e94:	74 91       	lpm	r23, Z
    2e96:	8c e8       	ldi	r24, 0x8C	; 140
    2e98:	94 e0       	ldi	r25, 0x04	; 4
    2e9a:	0e 94 04 46 	call	0x8c08	; 0x8c08 <strcpy_P>
    2e9e:	7e c0       	rjmp	.+252    	; 0x2f9c <_Z11filtr_massah+0x968>
               case 6:  if (eror_sens_up <= param.sensor_number  && sens_cod_led & 0x20)   {tim_6 = 0;} else { strcpy_P(send_buf, (PGM_P)pgm_read_word(&(er_sens[5])));  }    break;  
    2ea0:	80 91 a8 05 	lds	r24, 0x05A8	; 0x8005a8 <param+0xf>
    2ea4:	86 30       	cpi	r24, 0x06	; 6
    2ea6:	20 f0       	brcs	.+8      	; 0x2eb0 <_Z11filtr_massah+0x87c>
    2ea8:	80 91 8b 06 	lds	r24, 0x068B	; 0x80068b <sens_cod_led>
    2eac:	85 fd       	sbrc	r24, 5
    2eae:	7d c0       	rjmp	.+250    	; 0x2faa <_Z11filtr_massah+0x976>
    2eb0:	eb e4       	ldi	r30, 0x4B	; 75
    2eb2:	f3 e0       	ldi	r31, 0x03	; 3
    2eb4:	65 91       	lpm	r22, Z+
    2eb6:	74 91       	lpm	r23, Z
    2eb8:	8c e8       	ldi	r24, 0x8C	; 140
    2eba:	94 e0       	ldi	r25, 0x04	; 4
    2ebc:	0e 94 04 46 	call	0x8c08	; 0x8c08 <strcpy_P>
    2ec0:	6d c0       	rjmp	.+218    	; 0x2f9c <_Z11filtr_massah+0x968>
               case 7:  if (eror_sens_up <= param.sensor_number  && sens_cod_led & 0x40)   {tim_6 = 0;} else { strcpy_P(send_buf, (PGM_P)pgm_read_word(&(er_sens[6])));  }    break;
    2ec2:	80 91 a8 05 	lds	r24, 0x05A8	; 0x8005a8 <param+0xf>
    2ec6:	87 30       	cpi	r24, 0x07	; 7
    2ec8:	20 f0       	brcs	.+8      	; 0x2ed2 <_Z11filtr_massah+0x89e>
    2eca:	80 91 8b 06 	lds	r24, 0x068B	; 0x80068b <sens_cod_led>
    2ece:	86 fd       	sbrc	r24, 6
    2ed0:	6c c0       	rjmp	.+216    	; 0x2faa <_Z11filtr_massah+0x976>
    2ed2:	ed e4       	ldi	r30, 0x4D	; 77
    2ed4:	f3 e0       	ldi	r31, 0x03	; 3
    2ed6:	65 91       	lpm	r22, Z+
    2ed8:	74 91       	lpm	r23, Z
    2eda:	8c e8       	ldi	r24, 0x8C	; 140
    2edc:	94 e0       	ldi	r25, 0x04	; 4
    2ede:	0e 94 04 46 	call	0x8c08	; 0x8c08 <strcpy_P>
    2ee2:	5c c0       	rjmp	.+184    	; 0x2f9c <_Z11filtr_massah+0x968>
               case 8:  if (eror_sens_up <= param.sensor_number  && sens_cod_led & 0x80)   {tim_6 = 0;} else { strcpy_P(send_buf, (PGM_P)pgm_read_word(&(er_sens[7])));  }    break;    
    2ee4:	80 91 a8 05 	lds	r24, 0x05A8	; 0x8005a8 <param+0xf>
    2ee8:	88 30       	cpi	r24, 0x08	; 8
    2eea:	20 f0       	brcs	.+8      	; 0x2ef4 <_Z11filtr_massah+0x8c0>
    2eec:	80 91 8b 06 	lds	r24, 0x068B	; 0x80068b <sens_cod_led>
    2ef0:	87 fd       	sbrc	r24, 7
    2ef2:	5b c0       	rjmp	.+182    	; 0x2faa <_Z11filtr_massah+0x976>
    2ef4:	ef e4       	ldi	r30, 0x4F	; 79
    2ef6:	f3 e0       	ldi	r31, 0x03	; 3
    2ef8:	65 91       	lpm	r22, Z+
    2efa:	74 91       	lpm	r23, Z
    2efc:	8c e8       	ldi	r24, 0x8C	; 140
    2efe:	94 e0       	ldi	r25, 0x04	; 4
    2f00:	0e 94 04 46 	call	0x8c08	; 0x8c08 <strcpy_P>
    2f04:	4b c0       	rjmp	.+150    	; 0x2f9c <_Z11filtr_massah+0x968>
               case 9:  if (eror_sens_up <= param.sensor_number  && sens_cod_led & 0x100)  {tim_6 = 0;} else { strcpy_P(send_buf, (PGM_P)pgm_read_word(&(er_sens[8])));  }    break;
    2f06:	80 91 a8 05 	lds	r24, 0x05A8	; 0x8005a8 <param+0xf>
    2f0a:	89 30       	cpi	r24, 0x09	; 9
    2f0c:	30 f0       	brcs	.+12     	; 0x2f1a <_Z11filtr_massah+0x8e6>
    2f0e:	80 91 8b 06 	lds	r24, 0x068B	; 0x80068b <sens_cod_led>
    2f12:	90 91 8c 06 	lds	r25, 0x068C	; 0x80068c <sens_cod_led+0x1>
    2f16:	90 fd       	sbrc	r25, 0
    2f18:	48 c0       	rjmp	.+144    	; 0x2faa <_Z11filtr_massah+0x976>
    2f1a:	e1 e5       	ldi	r30, 0x51	; 81
    2f1c:	f3 e0       	ldi	r31, 0x03	; 3
    2f1e:	65 91       	lpm	r22, Z+
    2f20:	74 91       	lpm	r23, Z
    2f22:	8c e8       	ldi	r24, 0x8C	; 140
    2f24:	94 e0       	ldi	r25, 0x04	; 4
    2f26:	0e 94 04 46 	call	0x8c08	; 0x8c08 <strcpy_P>
    2f2a:	38 c0       	rjmp	.+112    	; 0x2f9c <_Z11filtr_massah+0x968>
               case 10: if (eror_sens_up <= param.sensor_number  && sens_cod_led & 0x200)  {tim_6 = 0;} else { strcpy_P(send_buf, (PGM_P)pgm_read_word(&(er_sens[9])));  }    break; 
    2f2c:	80 91 a8 05 	lds	r24, 0x05A8	; 0x8005a8 <param+0xf>
    2f30:	8a 30       	cpi	r24, 0x0A	; 10
    2f32:	30 f0       	brcs	.+12     	; 0x2f40 <_Z11filtr_massah+0x90c>
    2f34:	80 91 8b 06 	lds	r24, 0x068B	; 0x80068b <sens_cod_led>
    2f38:	90 91 8c 06 	lds	r25, 0x068C	; 0x80068c <sens_cod_led+0x1>
    2f3c:	91 fd       	sbrc	r25, 1
    2f3e:	35 c0       	rjmp	.+106    	; 0x2faa <_Z11filtr_massah+0x976>
    2f40:	e3 e5       	ldi	r30, 0x53	; 83
    2f42:	f3 e0       	ldi	r31, 0x03	; 3
    2f44:	65 91       	lpm	r22, Z+
    2f46:	74 91       	lpm	r23, Z
    2f48:	8c e8       	ldi	r24, 0x8C	; 140
    2f4a:	94 e0       	ldi	r25, 0x04	; 4
    2f4c:	0e 94 04 46 	call	0x8c08	; 0x8c08 <strcpy_P>
    2f50:	25 c0       	rjmp	.+74     	; 0x2f9c <_Z11filtr_massah+0x968>
               case 11: if (eror_sens_up <= param.sensor_number  && sens_cod_led & 0x400)  {tim_6 = 0;} else { strcpy_P(send_buf, (PGM_P)pgm_read_word(&(er_sens[10])));  }   break;
    2f52:	80 91 a8 05 	lds	r24, 0x05A8	; 0x8005a8 <param+0xf>
    2f56:	8b 30       	cpi	r24, 0x0B	; 11
    2f58:	30 f0       	brcs	.+12     	; 0x2f66 <_Z11filtr_massah+0x932>
    2f5a:	80 91 8b 06 	lds	r24, 0x068B	; 0x80068b <sens_cod_led>
    2f5e:	90 91 8c 06 	lds	r25, 0x068C	; 0x80068c <sens_cod_led+0x1>
    2f62:	92 fd       	sbrc	r25, 2
    2f64:	22 c0       	rjmp	.+68     	; 0x2faa <_Z11filtr_massah+0x976>
    2f66:	e5 e5       	ldi	r30, 0x55	; 85
    2f68:	f3 e0       	ldi	r31, 0x03	; 3
    2f6a:	65 91       	lpm	r22, Z+
    2f6c:	74 91       	lpm	r23, Z
    2f6e:	8c e8       	ldi	r24, 0x8C	; 140
    2f70:	94 e0       	ldi	r25, 0x04	; 4
    2f72:	0e 94 04 46 	call	0x8c08	; 0x8c08 <strcpy_P>
    2f76:	12 c0       	rjmp	.+36     	; 0x2f9c <_Z11filtr_massah+0x968>
               case 12: if (eror_sens_up <= param.sensor_number  && sens_cod_led & 0x800)  {tim_6 = 0;} else { strcpy_P(send_buf, (PGM_P)pgm_read_word(&(er_sens[11])));  }   break; 
    2f78:	80 91 a8 05 	lds	r24, 0x05A8	; 0x8005a8 <param+0xf>
    2f7c:	8c 30       	cpi	r24, 0x0C	; 12
    2f7e:	30 f0       	brcs	.+12     	; 0x2f8c <_Z11filtr_massah+0x958>
    2f80:	80 91 8b 06 	lds	r24, 0x068B	; 0x80068b <sens_cod_led>
    2f84:	90 91 8c 06 	lds	r25, 0x068C	; 0x80068c <sens_cod_led+0x1>
    2f88:	93 fd       	sbrc	r25, 3
    2f8a:	0f c0       	rjmp	.+30     	; 0x2faa <_Z11filtr_massah+0x976>
    2f8c:	e7 e5       	ldi	r30, 0x57	; 87
    2f8e:	f3 e0       	ldi	r31, 0x03	; 3
    2f90:	65 91       	lpm	r22, Z+
    2f92:	74 91       	lpm	r23, Z
    2f94:	8c e8       	ldi	r24, 0x8C	; 140
    2f96:	94 e0       	ldi	r25, 0x04	; 4
    2f98:	0e 94 04 46 	call	0x8c08	; 0x8c08 <strcpy_P>
               // вот такой тупой показ ероров датчиков, если код датчика совпадает с номером кейса то показываем оошибку, если не совпадает прыгаем в другой кейс.(через тим6)                                                                               
          }
          if (!tim_6) {tim_6 = 5000; if (eror_sens_up < param.sensor_number) {eror_sens_up ++; } else {eror_sens_up = 1; } buzers (1000);}
    2f9c:	80 91 2e 03 	lds	r24, 0x032E	; 0x80032e <tim_6>
    2fa0:	90 91 2f 03 	lds	r25, 0x032F	; 0x80032f <tim_6+0x1>
    2fa4:	89 2b       	or	r24, r25
    2fa6:	09 f0       	breq	.+2      	; 0x2faa <_Z11filtr_massah+0x976>
    2fa8:	73 c0       	rjmp	.+230    	; 0x3090 <_Z11filtr_massah+0xa5c>
    2faa:	88 e8       	ldi	r24, 0x88	; 136
    2fac:	93 e1       	ldi	r25, 0x13	; 19
    2fae:	90 93 2f 03 	sts	0x032F, r25	; 0x80032f <tim_6+0x1>
    2fb2:	80 93 2e 03 	sts	0x032E, r24	; 0x80032e <tim_6>
    2fb6:	80 91 7e 04 	lds	r24, 0x047E	; 0x80047e <eror_sens_up>
    2fba:	90 91 a8 05 	lds	r25, 0x05A8	; 0x8005a8 <param+0xf>
    2fbe:	89 17       	cp	r24, r25
    2fc0:	20 f4       	brcc	.+8      	; 0x2fca <_Z11filtr_massah+0x996>
    2fc2:	8f 5f       	subi	r24, 0xFF	; 255
    2fc4:	80 93 7e 04 	sts	0x047E, r24	; 0x80047e <eror_sens_up>
    2fc8:	03 c0       	rjmp	.+6      	; 0x2fd0 <_Z11filtr_massah+0x99c>
    2fca:	81 e0       	ldi	r24, 0x01	; 1
    2fcc:	80 93 7e 04 	sts	0x047E, r24	; 0x80047e <eror_sens_up>
    2fd0:	88 ee       	ldi	r24, 0xE8	; 232
    2fd2:	93 e0       	ldi	r25, 0x03	; 3
    2fd4:	0e 94 63 09 	call	0x12c6	; 0x12c6 <_Z6buzersj>
     }
}
    2fd8:	5b c0       	rjmp	.+182    	; 0x3090 <_Z11filtr_massah+0xa5c>
               massa_after_filtr += filtr_32b[i];
          }
          massa_after_filtr = massa_after_filtr / (power );
          if (boolean.tara_ok) { massa_after_filtr = massa_after_filtr - metrology.tara; send_point (1); }    else { send_non_point(1); metrology.tara = 0;}  // если включена тара то отнимать ее вес от текущего значения, если нет то ноль + светик
          if (param.sill1 == 0 && param.sill2 == 0 ){ massa_after_filtr = diskret(massa_after_filtr,param.discret1); namber_diskret = 1;}        // если первый и второй порог = 0 то показываем первый дискрет
          if (massa_after_filtr < param.sill1 && param.sill1 != 0){ massa_after_filtr = diskret(massa_after_filtr,param.discret1); namber_diskret = 1; }     // если масса меньше чем первый порог и он не равен 0 то снова первый дискрет
    2fda:	00 91 72 04 	lds	r16, 0x0472	; 0x800472 <massa_after_filtr>
    2fde:	10 91 73 04 	lds	r17, 0x0473	; 0x800473 <massa_after_filtr+0x1>
    2fe2:	20 91 74 04 	lds	r18, 0x0474	; 0x800474 <massa_after_filtr+0x2>
    2fe6:	30 91 75 04 	lds	r19, 0x0475	; 0x800475 <massa_after_filtr+0x3>
    2fea:	08 17       	cp	r16, r24
    2fec:	19 07       	cpc	r17, r25
    2fee:	2a 07       	cpc	r18, r26
    2ff0:	3b 07       	cpc	r19, r27
    2ff2:	0c f0       	brlt	.+2      	; 0x2ff6 <_Z11filtr_massah+0x9c2>
    2ff4:	26 cc       	rjmp	.-1972   	; 0x2842 <_Z11filtr_massah+0x20e>
    2ff6:	15 cc       	rjmp	.-2006   	; 0x2822 <_Z11filtr_massah+0x1ee>
          if (massa_after_filtr > param.sill1 && param.sill2 == 0){ massa_after_filtr = diskret(massa_after_filtr,param.discret2); namber_diskret = 2; }     // если масса больше чем первый порог а второй равен 0 то показываем второй дискрет
          if (massa_after_filtr > param.sill1 && massa_after_filtr < param.sill2 && param.sill2 != 0) {massa_after_filtr = diskret(massa_after_filtr,param.discret2); namber_diskret = 2; }  // если масса больше первого порога и меньше второго и второй порог не 0 показываем 2 дискрет
    2ff8:	00 91 a4 05 	lds	r16, 0x05A4	; 0x8005a4 <param+0xb>
    2ffc:	10 91 a5 05 	lds	r17, 0x05A5	; 0x8005a5 <param+0xc>
    3000:	20 91 a6 05 	lds	r18, 0x05A6	; 0x8005a6 <param+0xd>
    3004:	30 91 a7 05 	lds	r19, 0x05A7	; 0x8005a7 <param+0xe>
    3008:	60 17       	cp	r22, r16
    300a:	71 07       	cpc	r23, r17
    300c:	82 07       	cpc	r24, r18
    300e:	93 07       	cpc	r25, r19
    3010:	0c f0       	brlt	.+2      	; 0x3014 <_Z11filtr_massah+0x9e0>
    3012:	81 cc       	rjmp	.-1790   	; 0x2916 <_Z11filtr_massah+0x2e2>
    3014:	64 cc       	rjmp	.-1848   	; 0x28de <_Z11filtr_massah+0x2aa>
          }
          massa_after_filtr = massa_after_filtr / (power );
          if (boolean.tara_ok) { massa_after_filtr = massa_after_filtr - metrology.tara; send_point (1); }    else { send_non_point(1); metrology.tara = 0;}  // если включена тара то отнимать ее вес от текущего значения, если нет то ноль + светик
          if (param.sill1 == 0 && param.sill2 == 0 ){ massa_after_filtr = diskret(massa_after_filtr,param.discret1); namber_diskret = 1;}        // если первый и второй порог = 0 то показываем первый дискрет
          if (massa_after_filtr < param.sill1 && param.sill1 != 0){ massa_after_filtr = diskret(massa_after_filtr,param.discret1); namber_diskret = 1; }     // если масса меньше чем первый порог и он не равен 0 то снова первый дискрет
          if (massa_after_filtr > param.sill1 && param.sill2 == 0){ massa_after_filtr = diskret(massa_after_filtr,param.discret2); namber_diskret = 2; }     // если масса больше чем первый порог а второй равен 0 то показываем второй дискрет
    3016:	60 91 72 04 	lds	r22, 0x0472	; 0x800472 <massa_after_filtr>
    301a:	70 91 73 04 	lds	r23, 0x0473	; 0x800473 <massa_after_filtr+0x1>
    301e:	80 91 74 04 	lds	r24, 0x0474	; 0x800474 <massa_after_filtr+0x2>
    3022:	90 91 75 04 	lds	r25, 0x0475	; 0x800475 <massa_after_filtr+0x3>
    3026:	00 91 a0 05 	lds	r16, 0x05A0	; 0x8005a0 <param+0x7>
    302a:	10 91 a1 05 	lds	r17, 0x05A1	; 0x8005a1 <param+0x8>
    302e:	20 91 a2 05 	lds	r18, 0x05A2	; 0x8005a2 <param+0x9>
    3032:	30 91 a3 05 	lds	r19, 0x05A3	; 0x8005a3 <param+0xa>
    3036:	06 17       	cp	r16, r22
    3038:	17 07       	cpc	r17, r23
    303a:	28 07       	cpc	r18, r24
    303c:	39 07       	cpc	r19, r25
    303e:	e4 f2       	brlt	.-72     	; 0x2ff8 <_Z11filtr_massah+0x9c4>
    3040:	6a cc       	rjmp	.-1836   	; 0x2916 <_Z11filtr_massah+0x2e2>
          if (massa_after_filtr > param.sill1 && massa_after_filtr < param.sill2 && param.sill2 != 0) {massa_after_filtr = diskret(massa_after_filtr,param.discret2); namber_diskret = 2; }  // если масса больше первого порога и меньше второго и второй порог не 0 показываем 2 дискрет
          if (massa_after_filtr > param.sill2 && param.sill2 != 0){ massa_after_filtr = diskret(massa_after_filtr,param.discret3); namber_diskret = 3;  }    // если масса больше второго порога и он не 0 то показываем третий дискрет
    3042:	80 91 a4 05 	lds	r24, 0x05A4	; 0x8005a4 <param+0xb>
    3046:	90 91 a5 05 	lds	r25, 0x05A5	; 0x8005a5 <param+0xc>
    304a:	a0 91 a6 05 	lds	r26, 0x05A6	; 0x8005a6 <param+0xd>
    304e:	b0 91 a7 05 	lds	r27, 0x05A7	; 0x8005a7 <param+0xe>
    3052:	00 91 72 04 	lds	r16, 0x0472	; 0x800472 <massa_after_filtr>
    3056:	10 91 73 04 	lds	r17, 0x0473	; 0x800473 <massa_after_filtr+0x1>
    305a:	20 91 74 04 	lds	r18, 0x0474	; 0x800474 <massa_after_filtr+0x2>
    305e:	30 91 75 04 	lds	r19, 0x0475	; 0x800475 <massa_after_filtr+0x3>
    3062:	80 17       	cp	r24, r16
    3064:	91 07       	cpc	r25, r17
    3066:	a2 07       	cpc	r26, r18
    3068:	b3 07       	cpc	r27, r19
    306a:	0c f4       	brge	.+2      	; 0x306e <_Z11filtr_massah+0xa3a>
    306c:	69 cc       	rjmp	.-1838   	; 0x2940 <_Z11filtr_massah+0x30c>
    306e:	22 cd       	rjmp	.-1468   	; 0x2ab4 <_Z11filtr_massah+0x480>
    3070:	89 2b       	or	r24, r25
    3072:	8a 2b       	or	r24, r26
    3074:	8b 2b       	or	r24, r27
    3076:	09 f4       	brne	.+2      	; 0x307a <_Z11filtr_massah+0xa46>
    3078:	1d cd       	rjmp	.-1478   	; 0x2ab4 <_Z11filtr_massah+0x480>
    307a:	66 cc       	rjmp	.-1844   	; 0x2948 <_Z11filtr_massah+0x314>
               {send_point(3);boolean.stab = true;}  else {send_non_point(3);boolean.stab = false;}  tim_5 = (param.tim_stab * 1000); last_massa = massa_after_filtr;}  break;
               // это строчки стабилизации. если предыдущий вес в пределах одного дискрета в обе стороны то вес стабилен.      
          }
     }
 
     if (boolean.npv && !boolean.errors) {strcpy_P(send_buf, (PGM_P)pgm_read_word(&(error_string[ERROR1]))); error_buzzer(true); }  // если у нас превышение НПВ показать ерор, пикать, погасить лампы
    307c:	80 91 89 06 	lds	r24, 0x0689	; 0x800689 <boolean+0x2>
    3080:	80 fd       	sbrc	r24, 0
    3082:	6f ce       	rjmp	.-802    	; 0x2d62 <_Z11filtr_massah+0x72e>
    3084:	5b ce       	rjmp	.-842    	; 0x2d3c <_Z11filtr_massah+0x708>
     (massa_after_filtr == 0 && !boolean.errors ) ?   send_point (2) : send_non_point(2);   // если масса равна 0 то зажечь светик
     if (!boolean.errors && !boolean.npv && boolean.start_delay) {sprintf(send_buf, "%6ld" , massa_after_filtr ); eror_sens_up = 0; } // если нет ошибок показать массу, перекинуть счетчик в 0
     if(boolean.errors && boolean.start_delay) {
    3086:	80 91 88 06 	lds	r24, 0x0688	; 0x800688 <boolean+0x1>
    308a:	88 23       	and	r24, r24
    308c:	0c f4       	brge	.+2      	; 0x3090 <_Z11filtr_massah+0xa5c>
    308e:	86 cf       	rjmp	.-244    	; 0x2f9c <_Z11filtr_massah+0x968>
               case 12: if (eror_sens_up <= param.sensor_number  && sens_cod_led & 0x800)  {tim_6 = 0;} else { strcpy_P(send_buf, (PGM_P)pgm_read_word(&(er_sens[11])));  }   break; 
               // вот такой тупой показ ероров датчиков, если код датчика совпадает с номером кейса то показываем оошибку, если не совпадает прыгаем в другой кейс.(через тим6)                                                                               
          }
          if (!tim_6) {tim_6 = 5000; if (eror_sens_up < param.sensor_number) {eror_sens_up ++; } else {eror_sens_up = 1; } buzers (1000);}
     }
}
    3090:	df 91       	pop	r29
    3092:	cf 91       	pop	r28
    3094:	1f 91       	pop	r17
    3096:	0f 91       	pop	r16
    3098:	ff 90       	pop	r15
    309a:	ef 90       	pop	r14
    309c:	df 90       	pop	r13
    309e:	cf 90       	pop	r12
    30a0:	08 95       	ret

000030a2 <_Z11TABLO_printl>:
     if ((data % dskrt) >= dskrt/2) temp += dskrt;
     return (temp);
}

void TABLO_print(int32_t ves)                          // передача в токовую петлю. тоже украдено
{
    30a2:	cf 92       	push	r12
    30a4:	df 92       	push	r13
    30a6:	ef 92       	push	r14
    30a8:	ff 92       	push	r15
    30aa:	0f 93       	push	r16
    30ac:	1f 93       	push	r17
    30ae:	cf 93       	push	r28
    30b0:	df 93       	push	r29
    30b2:	00 d0       	rcall	.+0      	; 0x30b4 <_Z11TABLO_printl+0x12>
    30b4:	1f 92       	push	r1
    30b6:	cd b7       	in	r28, 0x3d	; 61
    30b8:	de b7       	in	r29, 0x3e	; 62
     char buf_tablo[4];
     uint32_t abs_ves = labs(ves);                     // это взять число по модулю:)
    30ba:	6b 01       	movw	r12, r22
    30bc:	7c 01       	movw	r14, r24
    30be:	99 23       	and	r25, r25
    30c0:	3c f4       	brge	.+14     	; 0x30d0 <_Z11TABLO_printl+0x2e>
    30c2:	cc 24       	eor	r12, r12
    30c4:	dd 24       	eor	r13, r13
    30c6:	76 01       	movw	r14, r12
    30c8:	c6 1a       	sub	r12, r22
    30ca:	d7 0a       	sbc	r13, r23
    30cc:	e8 0a       	sbc	r14, r24
    30ce:	f9 0a       	sbc	r15, r25
    30d0:	4c 2d       	mov	r20, r12
    30d2:	0c 2d       	mov	r16, r12
    30d4:	1d 2d       	mov	r17, r13
    30d6:	2e 2d       	mov	r18, r14
    30d8:	3f 2d       	mov	r19, r15
     buf_tablo[0] = (ves >= 0) ? 0 : 0x08;
    30da:	dc 01       	movw	r26, r24
    30dc:	cb 01       	movw	r24, r22
    30de:	88 27       	eor	r24, r24
    30e0:	b7 fd       	sbrc	r27, 7
    30e2:	83 95       	inc	r24
    30e4:	99 27       	eor	r25, r25
    30e6:	aa 27       	eor	r26, r26
    30e8:	bb 27       	eor	r27, r27
     buf_tablo[0] |= ((abs_ves & 0x00010000) == 0x00010000) ? 0x40 : 0;
    30ea:	68 2f       	mov	r22, r24
    30ec:	66 0f       	add	r22, r22
    30ee:	66 0f       	add	r22, r22
    30f0:	66 0f       	add	r22, r22
    30f2:	20 fd       	sbrc	r18, 0
    30f4:	02 c0       	rjmp	.+4      	; 0x30fa <_Z11TABLO_printl+0x58>
    30f6:	80 e0       	ldi	r24, 0x00	; 0
    30f8:	01 c0       	rjmp	.+2      	; 0x30fc <_Z11TABLO_printl+0x5a>
    30fa:	80 e4       	ldi	r24, 0x40	; 64
    30fc:	68 2b       	or	r22, r24
     buf_tablo[0] |= ((abs_ves & 0x00020000) == 0x00020000) ? 0x80 : 0;
    30fe:	21 fd       	sbrc	r18, 1
    3100:	02 c0       	rjmp	.+4      	; 0x3106 <_Z11TABLO_printl+0x64>
    3102:	80 e0       	ldi	r24, 0x00	; 0
    3104:	01 c0       	rjmp	.+2      	; 0x3108 <_Z11TABLO_printl+0x66>
    3106:	80 e8       	ldi	r24, 0x80	; 128
    3108:	68 2b       	or	r22, r24
    310a:	69 83       	std	Y+1, r22	; 0x01
     buf_tablo[1] = (abs_ves >> 8) & 0xff;
    310c:	1a 83       	std	Y+2, r17	; 0x02
     buf_tablo[2] = 0x0100 + (abs_ves & 0xff);
    310e:	4b 83       	std	Y+3, r20	; 0x03
     buf_tablo[3] = 0x24;
    3110:	84 e2       	ldi	r24, 0x24	; 36
    3112:	8c 83       	std	Y+4, r24	; 0x04
     uart3_send_string(buf_tablo);
    3114:	ce 01       	movw	r24, r28
    3116:	01 96       	adiw	r24, 0x01	; 1
    3118:	0e 94 09 3e 	call	0x7c12	; 0x7c12 <_Z17uart3_send_stringPc>
}
    311c:	0f 90       	pop	r0
    311e:	0f 90       	pop	r0
    3120:	0f 90       	pop	r0
    3122:	0f 90       	pop	r0
    3124:	df 91       	pop	r29
    3126:	cf 91       	pop	r28
    3128:	1f 91       	pop	r17
    312a:	0f 91       	pop	r16
    312c:	ff 90       	pop	r15
    312e:	ef 90       	pop	r14
    3130:	df 90       	pop	r13
    3132:	cf 90       	pop	r12
    3134:	08 95       	ret

00003136 <_Z11init_atmegav>:

void init_atmega (void)      // инициализация портов, переферии
{
     DDRB = 0x8F;            // Ножки SPI на выход + светик на выход
    3136:	8f e8       	ldi	r24, 0x8F	; 143
    3138:	84 b9       	out	0x04, r24	; 4
     PORTB = 0x05;           // низкий уровень
    313a:	85 e0       	ldi	r24, 0x05	; 5
    313c:	85 b9       	out	0x05, r24	; 5
     
     DDRD = 0x10;            // пин бузера
    313e:	80 e1       	ldi	r24, 0x10	; 16
    3140:	8a b9       	out	0x0a, r24	; 10
     PORTD = 0x00;
    3142:	1b b8       	out	0x0b, r1	; 11
     
     DDRJ = 0x20;            // пин включения питания и пин отслеживания нажатой кнопки питания
    3144:	80 e2       	ldi	r24, 0x20	; 32
    3146:	80 93 04 01 	sts	0x0104, r24	; 0x800104 <__TEXT_REGION_LENGTH__+0x7c0104>
     PORTJ = 0x00;
    314a:	10 92 05 01 	sts	0x0105, r1	; 0x800105 <__TEXT_REGION_LENGTH__+0x7c0105>
     
     DDRG = 0x20;            // пин включения 12 вольт на датчики
    314e:	83 bb       	out	0x13, r24	; 19
     PORTG = 0x00;
    3150:	14 ba       	out	0x14, r1	; 20
     
     DDRL = 0x00;            // пины кнопок на вход
    3152:	10 92 0a 01 	sts	0x010A, r1	; 0x80010a <__TEXT_REGION_LENGTH__+0x7c010a>
     PORTL = 0x3F;           // подтяжка к плюсу, пока внутрення
    3156:	8f e3       	ldi	r24, 0x3F	; 63
    3158:	80 93 0b 01 	sts	0x010B, r24	; 0x80010b <__TEXT_REGION_LENGTH__+0x7c010b>
     
     SPCR = ((1<<SPE)|(1<<MSTR)|(1<<SPR0) );  //Включим шину SPI, объявим ведущим, делитель на 16
    315c:	81 e5       	ldi	r24, 0x51	; 81
    315e:	8c bd       	out	0x2c, r24	; 44
     SPCR |= 0x80;           // включим прерывание
    3160:	8c b5       	in	r24, 0x2c	; 44
    3162:	80 68       	ori	r24, 0x80	; 128
    3164:	8c bd       	out	0x2c, r24	; 44
     SSON;                   // поднимем чип селект
    3166:	28 9a       	sbi	0x05, 0	; 5
     
     ADMUX = 0x40;           // внешний источник опорного и нулевой канал  0x40
    3168:	80 e4       	ldi	r24, 0x40	; 64
    316a:	80 93 7c 00 	sts	0x007C, r24	; 0x80007c <__TEXT_REGION_LENGTH__+0x7c007c>
     ADCSRA = 0xEF;          // включить ацп, старт, старт по триггеру , делитель скорости преобразования на 32
    316e:	8f ee       	ldi	r24, 0xEF	; 239
    3170:	80 93 7a 00 	sts	0x007A, r24	; 0x80007a <__TEXT_REGION_LENGTH__+0x7c007a>
     DIDR0 = 0x01;           // отключить канал 0 от регистра ддр
    3174:	81 e0       	ldi	r24, 0x01	; 1
    3176:	80 93 7e 00 	sts	0x007E, r24	; 0x80007e <__TEXT_REGION_LENGTH__+0x7c007e>
     
     TCCR0B = 0x01;          // делитель 0 на таймер 0       62 KГерц
    317a:	85 bd       	out	0x25, r24	; 37
     TIMSK0 = 0x01;          // включить прерывания по переполнению
    317c:	80 93 6e 00 	sts	0x006E, r24	; 0x80006e <__TEXT_REGION_LENGTH__+0x7c006e>
     
     TCCR1B = 0x01;          // делитель 0 на таймер 1  + TCNT1 = 0xE800 это дает частоту 2,6 КГц
    3180:	80 93 81 00 	sts	0x0081, r24	; 0x800081 <__TEXT_REGION_LENGTH__+0x7c0081>
     TIMSK1 = 0x01;          // включить прерывания по переполнению
    3184:	80 93 6f 00 	sts	0x006F, r24	; 0x80006f <__TEXT_REGION_LENGTH__+0x7c006f>
     
     // TCCR2B = 0x02;          // делитель на 8 и того частота 8 КГерц
     //	TIMSK1 = 0x01;          // включить прерывания по переполнению
     
     
     init_UART_tenzo();
    3188:	0e 94 8b 33 	call	0x6716	; 0x6716 <_Z15init_UART_tenzov>
     init_UART_tablo();
    318c:	0e 94 9c 33 	call	0x6738	; 0x6738 <_Z15init_UART_tablov>
     init_Uart_0_1_start();
    3190:	0e 94 a9 33 	call	0x6752	; 0x6752 <_Z19init_Uart_0_1_startv>
     LEDON;                  // пока нету пина блокировки
    3194:	2f 9a       	sbi	0x05, 7	; 5
    3196:	08 95       	ret

00003198 <_Z5startv>:

void start (void)                            // функция включения прибора
{
     static uint16_t on_on = 0;                    // создаем переменную счетчик
     while (on_on != TIM_ON){                      // ждем пока переменная не достигнет значения указаного в дефайне
          if (PIN_OFF)  {                          // если кнопка нажата
    3198:	e3 e0       	ldi	r30, 0x03	; 3
    319a:	f1 e0       	ldi	r31, 0x01	; 1
}

void start (void)                            // функция включения прибора
{
     static uint16_t on_on = 0;                    // создаем переменную счетчик
     while (on_on != TIM_ON){                      // ждем пока переменная не достигнет значения указаного в дефайне
    319c:	80 91 5b 03 	lds	r24, 0x035B	; 0x80035b <_ZZ5startvE5on_on>
    31a0:	90 91 5c 03 	lds	r25, 0x035C	; 0x80035c <_ZZ5startvE5on_on+0x1>
    31a4:	88 3e       	cpi	r24, 0xE8	; 232
    31a6:	23 e0       	ldi	r18, 0x03	; 3
    31a8:	92 07       	cpc	r25, r18
    31aa:	c1 f0       	breq	.+48     	; 0x31dc <_Z5startv+0x44>
          if (PIN_OFF)  {                          // если кнопка нажата
    31ac:	20 81       	ld	r18, Z
    31ae:	26 fd       	sbrc	r18, 6
    31b0:	10 c0       	rjmp	.+32     	; 0x31d2 <_Z5startv+0x3a>
               if (on_on < TIM_ON) on_on ++;       // увеличиваем переменную
    31b2:	88 3e       	cpi	r24, 0xE8	; 232
    31b4:	23 e0       	ldi	r18, 0x03	; 3
    31b6:	92 07       	cpc	r25, r18
    31b8:	28 f4       	brcc	.+10     	; 0x31c4 <_Z5startv+0x2c>
    31ba:	01 96       	adiw	r24, 0x01	; 1
    31bc:	90 93 5c 03 	sts	0x035C, r25	; 0x80035c <_ZZ5startvE5on_on+0x1>
    31c0:	80 93 5b 03 	sts	0x035B, r24	; 0x80035b <_ZZ5startvE5on_on>
    31c4:	8f e9       	ldi	r24, 0x9F	; 159
    31c6:	9f e0       	ldi	r25, 0x0F	; 15
    31c8:	01 97       	sbiw	r24, 0x01	; 1
    31ca:	f1 f7       	brne	.-4      	; 0x31c8 <_Z5startv+0x30>
    31cc:	00 c0       	rjmp	.+0      	; 0x31ce <_Z5startv+0x36>
    31ce:	00 00       	nop
    31d0:	e5 cf       	rjmp	.-54     	; 0x319c <_Z5startv+0x4>
               _delay_ms(1);
          }
          else on_on = 0;                          // отпустили, сбросили в ноль
    31d2:	10 92 5c 03 	sts	0x035C, r1	; 0x80035c <_ZZ5startvE5on_on+0x1>
    31d6:	10 92 5b 03 	sts	0x035B, r1	; 0x80035b <_ZZ5startvE5on_on>
    31da:	e0 cf       	rjmp	.-64     	; 0x319c <_Z5startv+0x4>
     }
     LMON;                                         // включили датчики и прибор
    31dc:	e5 e0       	ldi	r30, 0x05	; 5
    31de:	f1 e0       	ldi	r31, 0x01	; 1
    31e0:	80 81       	ld	r24, Z
    31e2:	80 62       	ori	r24, 0x20	; 32
    31e4:	80 83       	st	Z, r24
     TENZO_ON;
    31e6:	a5 9a       	sbi	0x14, 5	; 20
    31e8:	08 95       	ret

000031ea <_Z8zastavkav>:
}

void zastavka (void)                         // печатаем как в диниках 888888 при старте
{
    31ea:	ef 92       	push	r14
    31ec:	ff 92       	push	r15
    31ee:	1f 93       	push	r17
    31f0:	cf 93       	push	r28
    31f2:	df 93       	push	r29
    31f4:	cc e8       	ldi	r28, 0x8C	; 140
    31f6:	d4 e0       	ldi	r29, 0x04	; 4
    31f8:	0f 2e       	mov	r0, r31
    31fa:	f3 e9       	ldi	r31, 0x93	; 147
    31fc:	ef 2e       	mov	r14, r31
    31fe:	f4 e0       	ldi	r31, 0x04	; 4
    3200:	ff 2e       	mov	r15, r31
    3202:	f0 2d       	mov	r31, r0

//      indication ();                           // показываем пустой экран
     for (int t = 0; t < 7; t++){             // в цикле начинаем записывать 8 только в другом представлении, без преобразования через таблицу
          send_buf [t] = 0x7F;
    3204:	1f e7       	ldi	r17, 0x7F	; 127
    3206:	19 93       	st	Y+, r17
          BZRON;                               // пикаем
    3208:	5c 9a       	sbi	0x0b, 4	; 11
    320a:	2f ef       	ldi	r18, 0xFF	; 255
    320c:	80 e7       	ldi	r24, 0x70	; 112
    320e:	92 e0       	ldi	r25, 0x02	; 2
    3210:	21 50       	subi	r18, 0x01	; 1
    3212:	80 40       	sbci	r24, 0x00	; 0
    3214:	90 40       	sbci	r25, 0x00	; 0
    3216:	e1 f7       	brne	.-8      	; 0x3210 <_Z8zastavkav+0x26>
    3218:	00 c0       	rjmp	.+0      	; 0x321a <_Z8zastavkav+0x30>
    321a:	00 00       	nop
          _delay_ms(50);                      // ждем
          BZROFF;
    321c:	5c 98       	cbi	0x0b, 4	; 11
          indication ();                       // показываем
    321e:	0c d4       	rcall	.+2072   	; 0x3a38 <_Z10indicationv>
    3220:	2f ef       	ldi	r18, 0xFF	; 255
    3222:	80 e7       	ldi	r24, 0x70	; 112
    3224:	92 e0       	ldi	r25, 0x02	; 2
    3226:	21 50       	subi	r18, 0x01	; 1
    3228:	80 40       	sbci	r24, 0x00	; 0
    322a:	90 40       	sbci	r25, 0x00	; 0
    322c:	e1 f7       	brne	.-8      	; 0x3226 <_Z8zastavkav+0x3c>
    322e:	00 c0       	rjmp	.+0      	; 0x3230 <_Z8zastavkav+0x46>
    3230:	00 00       	nop

void zastavka (void)                         // печатаем как в диниках 888888 при старте
{

//      indication ();                           // показываем пустой экран
     for (int t = 0; t < 7; t++){             // в цикле начинаем записывать 8 только в другом представлении, без преобразования через таблицу
    3232:	ce 15       	cp	r28, r14
    3234:	df 05       	cpc	r29, r15
    3236:	39 f7       	brne	.-50     	; 0x3206 <_Z8zastavkav+0x1c>
    3238:	2f ef       	ldi	r18, 0xFF	; 255
    323a:	89 e6       	ldi	r24, 0x69	; 105
    323c:	98 e1       	ldi	r25, 0x18	; 24
    323e:	21 50       	subi	r18, 0x01	; 1
    3240:	80 40       	sbci	r24, 0x00	; 0
    3242:	90 40       	sbci	r25, 0x00	; 0
    3244:	e1 f7       	brne	.-8      	; 0x323e <_Z8zastavkav+0x54>
    3246:	00 c0       	rjmp	.+0      	; 0x3248 <_Z8zastavkav+0x5e>
    3248:	00 00       	nop
          indication ();                       // показываем
          _delay_ms(50);                      // ждем
     }
     _delay_ms(500);
      for (int t = 0; t < 6; t++){             // сначала забиваем нулями ?? нужно ли это хз
           send_buf [t] = 0x00;
    324a:	ec e8       	ldi	r30, 0x8C	; 140
    324c:	f4 e0       	ldi	r31, 0x04	; 4
    324e:	10 82       	st	Z, r1
    3250:	11 82       	std	Z+1, r1	; 0x01
    3252:	12 82       	std	Z+2, r1	; 0x02
    3254:	13 82       	std	Z+3, r1	; 0x03
    3256:	14 82       	std	Z+4, r1	; 0x04
    3258:	15 82       	std	Z+5, r1	; 0x05
      }     
}
    325a:	df 91       	pop	r29
    325c:	cf 91       	pop	r28
    325e:	1f 91       	pop	r17
    3260:	ff 90       	pop	r15
    3262:	ef 90       	pop	r14
    3264:	08 95       	ret

00003266 <_Z7off_keyv>:

void off_key (void)                          // отслеживание кнопки выключения
{
     static uint8_t on_of = 0;                       // создаем новыую переменную счетчика
     if (PIN_OFF_OF && !boolean.non_on) {boolean.non_on = true;}     // это защита чтоб прибор не начал выключатся пока не отпустишь кнопку включения после включения
    3266:	80 91 03 01 	lds	r24, 0x0103	; 0x800103 <__TEXT_REGION_LENGTH__+0x7c0103>
    326a:	86 ff       	sbrs	r24, 6
    326c:	05 c0       	rjmp	.+10     	; 0x3278 <_Z7off_keyv+0x12>
    326e:	80 91 87 06 	lds	r24, 0x0687	; 0x800687 <boolean>
    3272:	88 23       	and	r24, r24
    3274:	a4 f5       	brge	.+104    	; 0x32de <_Z7off_keyv+0x78>
    3276:	43 c0       	rjmp	.+134    	; 0x32fe <_Z7off_keyv+0x98>
     if (PIN_OFF && boolean.non_on)  {                               // дальше все по класике отслеживаем нажатие, считаем переменную
    3278:	80 91 03 01 	lds	r24, 0x0103	; 0x800103 <__TEXT_REGION_LENGTH__+0x7c0103>
    327c:	86 fd       	sbrc	r24, 6
    327e:	35 c0       	rjmp	.+106    	; 0x32ea <_Z7off_keyv+0x84>
    3280:	80 91 87 06 	lds	r24, 0x0687	; 0x800687 <boolean>
    3284:	88 23       	and	r24, r24
    3286:	8c f5       	brge	.+98     	; 0x32ea <_Z7off_keyv+0x84>
    3288:	33 c0       	rjmp	.+102    	; 0x32f0 <_Z7off_keyv+0x8a>
          if (on_of < TIM_OFF) on_of ++;
    328a:	8f 5f       	subi	r24, 0xFF	; 255
    328c:	80 93 5a 03 	sts	0x035A, r24	; 0x80035a <_ZZ7off_keyvE5on_of>
          if (on_of == 1) buzers (10000);             // пикаем
    3290:	81 30       	cpi	r24, 0x01	; 1
    3292:	21 f4       	brne	.+8      	; 0x329c <_Z7off_keyv+0x36>
    3294:	80 e1       	ldi	r24, 0x10	; 16
    3296:	97 e2       	ldi	r25, 0x27	; 39
    3298:	0e 94 63 09 	call	0x12c6	; 0x12c6 <_Z6buzersj>
     }
     else on_of = 0;                                 // если отпустили сбросили в ноль
     if (on_of >= TIM_OFF ){                         // если достигли величины дефайна на отключение
    329c:	80 91 5a 03 	lds	r24, 0x035A	; 0x80035a <_ZZ7off_keyvE5on_of>
    32a0:	86 30       	cpi	r24, 0x06	; 6
    32a2:	90 f1       	brcs	.+100    	; 0x3308 <_Z7off_keyv+0xa2>
          sprintf(send_buf, " -OFF-" );               // печатаем офф
    32a4:	87 e0       	ldi	r24, 0x07	; 7
    32a6:	e3 e0       	ldi	r30, 0x03	; 3
    32a8:	f2 e0       	ldi	r31, 0x02	; 2
    32aa:	ac e8       	ldi	r26, 0x8C	; 140
    32ac:	b4 e0       	ldi	r27, 0x04	; 4
    32ae:	01 90       	ld	r0, Z+
    32b0:	0d 92       	st	X+, r0
    32b2:	8a 95       	dec	r24
    32b4:	e1 f7       	brne	.-8      	; 0x32ae <_Z7off_keyv+0x48>
          buzers (10000);
    32b6:	80 e1       	ldi	r24, 0x10	; 16
    32b8:	97 e2       	ldi	r25, 0x27	; 39
    32ba:	0e 94 63 09 	call	0x12c6	; 0x12c6 <_Z6buzersj>
          LMOFF;
    32be:	e5 e0       	ldi	r30, 0x05	; 5
    32c0:	f1 e0       	ldi	r31, 0x01	; 1
    32c2:	80 81       	ld	r24, Z
    32c4:	8f 7d       	andi	r24, 0xDF	; 223
    32c6:	80 83       	st	Z, r24
          TENZO_OFF;
    32c8:	a5 98       	cbi	0x14, 5	; 20
          while (1){
               sprintf(send_buf, " -OFF-" );           // печатаем офф и висим тут пока не погаснет экран
    32ca:	87 e0       	ldi	r24, 0x07	; 7
    32cc:	e3 e0       	ldi	r30, 0x03	; 3
    32ce:	f2 e0       	ldi	r31, 0x02	; 2
    32d0:	ac e8       	ldi	r26, 0x8C	; 140
    32d2:	b4 e0       	ldi	r27, 0x04	; 4
    32d4:	01 90       	ld	r0, Z+
    32d6:	0d 92       	st	X+, r0
    32d8:	8a 95       	dec	r24
    32da:	e1 f7       	brne	.-8      	; 0x32d4 <_Z7off_keyv+0x6e>
    32dc:	f6 cf       	rjmp	.-20     	; 0x32ca <_Z7off_keyv+0x64>
}

void off_key (void)                          // отслеживание кнопки выключения
{
     static uint8_t on_of = 0;                       // создаем новыую переменную счетчика
     if (PIN_OFF_OF && !boolean.non_on) {boolean.non_on = true;}     // это защита чтоб прибор не начал выключатся пока не отпустишь кнопку включения после включения
    32de:	e7 e8       	ldi	r30, 0x87	; 135
    32e0:	f6 e0       	ldi	r31, 0x06	; 6
    32e2:	80 81       	ld	r24, Z
    32e4:	80 68       	ori	r24, 0x80	; 128
    32e6:	80 83       	st	Z, r24
    32e8:	c7 cf       	rjmp	.-114    	; 0x3278 <_Z7off_keyv+0x12>
     if (PIN_OFF && boolean.non_on)  {                               // дальше все по класике отслеживаем нажатие, считаем переменную
          if (on_of < TIM_OFF) on_of ++;
          if (on_of == 1) buzers (10000);             // пикаем
     }
     else on_of = 0;                                 // если отпустили сбросили в ноль
    32ea:	10 92 5a 03 	sts	0x035A, r1	; 0x80035a <_ZZ7off_keyvE5on_of>
    32ee:	08 95       	ret
void off_key (void)                          // отслеживание кнопки выключения
{
     static uint8_t on_of = 0;                       // создаем новыую переменную счетчика
     if (PIN_OFF_OF && !boolean.non_on) {boolean.non_on = true;}     // это защита чтоб прибор не начал выключатся пока не отпустишь кнопку включения после включения
     if (PIN_OFF && boolean.non_on)  {                               // дальше все по класике отслеживаем нажатие, считаем переменную
          if (on_of < TIM_OFF) on_of ++;
    32f0:	80 91 5a 03 	lds	r24, 0x035A	; 0x80035a <_ZZ7off_keyvE5on_of>
    32f4:	86 30       	cpi	r24, 0x06	; 6
    32f6:	48 f2       	brcs	.-110    	; 0x328a <_Z7off_keyv+0x24>
          if (on_of == 1) buzers (10000);             // пикаем
    32f8:	81 30       	cpi	r24, 0x01	; 1
    32fa:	a1 f6       	brne	.-88     	; 0x32a4 <_Z7off_keyv+0x3e>
    32fc:	cb cf       	rjmp	.-106    	; 0x3294 <_Z7off_keyv+0x2e>

void off_key (void)                          // отслеживание кнопки выключения
{
     static uint8_t on_of = 0;                       // создаем новыую переменную счетчика
     if (PIN_OFF_OF && !boolean.non_on) {boolean.non_on = true;}     // это защита чтоб прибор не начал выключатся пока не отпустишь кнопку включения после включения
     if (PIN_OFF && boolean.non_on)  {                               // дальше все по класике отслеживаем нажатие, считаем переменную
    32fe:	80 91 03 01 	lds	r24, 0x0103	; 0x800103 <__TEXT_REGION_LENGTH__+0x7c0103>
    3302:	86 ff       	sbrs	r24, 6
    3304:	f5 cf       	rjmp	.-22     	; 0x32f0 <_Z7off_keyv+0x8a>
    3306:	f1 cf       	rjmp	.-30     	; 0x32ea <_Z7off_keyv+0x84>
    3308:	08 95       	ret

0000330a <_Z19enter_password_initv>:
          }
     }
}

void enter_password_init (void)              // функция инициализации при вводе пароля
{
    330a:	ef 92       	push	r14
    330c:	ff 92       	push	r15
    330e:	0f 93       	push	r16
    3310:	1f 93       	push	r17
    3312:	cf 93       	push	r28
    3314:	df 93       	push	r29
     if (INIT_KEY  )
    3316:	80 91 09 01 	lds	r24, 0x0109	; 0x800109 <__TEXT_REGION_LENGTH__+0x7c0109>
    331a:	83 fd       	sbrc	r24, 3
    331c:	d4 c0       	rjmp	.+424    	; 0x34c6 <_Z19enter_password_initv+0x1bc>
     {
          
          static uint32_t mirror_data;
          static uint8_t  caunter_input;               // создаем счетчик
          static char itedger [10] ;                   // создаем буффер
          caunter_input = 2;
    331e:	82 e0       	ldi	r24, 0x02	; 2
    3320:	80 93 59 03 	sts	0x0359, r24	; 0x800359 <_ZZ19enter_password_initvE13caunter_input>
          sprintf(itedger, "%06lu"  ,(uint32_t) mirror_data );
    3324:	80 91 58 03 	lds	r24, 0x0358	; 0x800358 <_ZZ19enter_password_initvE11mirror_data+0x3>
    3328:	8f 93       	push	r24
    332a:	80 91 57 03 	lds	r24, 0x0357	; 0x800357 <_ZZ19enter_password_initvE11mirror_data+0x2>
    332e:	8f 93       	push	r24
    3330:	80 91 56 03 	lds	r24, 0x0356	; 0x800356 <_ZZ19enter_password_initvE11mirror_data+0x1>
    3334:	8f 93       	push	r24
    3336:	80 91 55 03 	lds	r24, 0x0355	; 0x800355 <_ZZ19enter_password_initvE11mirror_data>
    333a:	8f 93       	push	r24
    333c:	8f e0       	ldi	r24, 0x0F	; 15
    333e:	92 e0       	ldi	r25, 0x02	; 2
    3340:	9f 93       	push	r25
    3342:	8f 93       	push	r24
    3344:	8b e4       	ldi	r24, 0x4B	; 75
    3346:	93 e0       	ldi	r25, 0x03	; 3
    3348:	9f 93       	push	r25
    334a:	8f 93       	push	r24
    334c:	0e 94 79 46 	call	0x8cf2	; 0x8cf2 <sprintf>
    3350:	2d b7       	in	r18, 0x3d	; 61
    3352:	3e b7       	in	r19, 0x3e	; 62
    3354:	28 5f       	subi	r18, 0xF8	; 248
    3356:	3f 4f       	sbci	r19, 0xFF	; 255
    3358:	0f b6       	in	r0, 0x3f	; 63
    335a:	f8 94       	cli
    335c:	3e bf       	out	0x3e, r19	; 62
    335e:	0f be       	out	0x3f, r0	; 63
    3360:	2d bf       	out	0x3d, r18	; 61
          while (1){                                                                                                                // то количество сколько символов передали
               if (button_press (KEY_RIGHT)) { if (caunter_input < 5  ) caunter_input ++; }                                         // кнопка в право, сместить указатель
               if (button_press (KEY_LEFT))  {if (caunter_input > 2)     caunter_input --;}                                         // аналогично сместить в другую сторону если можна
               if (button_press (KEY_UP)) {
                    if (itedger[caunter_input] - '0' < 9) itedger[caunter_input]  ++;                                               // как и в функции времени проверяем какой символ у нас в элементе буфера и по возможности увеличиваем
                    else if(itedger[caunter_input] - '0' == 9) itedger[caunter_input] = '0';
    3362:	0f 2e       	mov	r0, r31
    3364:	f0 e3       	ldi	r31, 0x30	; 48
    3366:	ff 2e       	mov	r15, r31
    3368:	f0 2d       	mov	r31, r0
               }
               if (button_press (KEY_DOWN)) {
                    if (itedger[caunter_input] - '0'  > 0) itedger[caunter_input]  --;
                    else if(itedger[caunter_input] - '0'  == 0) itedger[caunter_input]  = '9';
    336a:	0f 2e       	mov	r0, r31
    336c:	f9 e3       	ldi	r31, 0x39	; 57
    336e:	ef 2e       	mov	r14, r31
    3370:	f0 2d       	mov	r31, r0
               }
               mirror_data = atol (itedger);                                                                                      // тут сканф заменил атол и все работает так же само
               sprintf(send_buf, "  %04lu"  ,(uint32_t) mirror_data );
    3372:	05 e1       	ldi	r16, 0x15	; 21
    3374:	12 e0       	ldi	r17, 0x02	; 2
    3376:	cc e8       	ldi	r28, 0x8C	; 140
    3378:	d4 e0       	ldi	r29, 0x04	; 4
          static uint8_t  caunter_input;               // создаем счетчик
          static char itedger [10] ;                   // создаем буффер
          caunter_input = 2;
          sprintf(itedger, "%06lu"  ,(uint32_t) mirror_data );
          while (1){                                                                                                                // то количество сколько символов передали
               if (button_press (KEY_RIGHT)) { if (caunter_input < 5  ) caunter_input ++; }                                         // кнопка в право, сместить указатель
    337a:	8f e2       	ldi	r24, 0x2F	; 47
    337c:	0e 94 c6 09 	call	0x138c	; 0x138c <_Z12button_pressh>
    3380:	88 23       	and	r24, r24
    3382:	39 f0       	breq	.+14     	; 0x3392 <_Z19enter_password_initv+0x88>
    3384:	80 91 59 03 	lds	r24, 0x0359	; 0x800359 <_ZZ19enter_password_initvE13caunter_input>
    3388:	85 30       	cpi	r24, 0x05	; 5
    338a:	18 f4       	brcc	.+6      	; 0x3392 <_Z19enter_password_initv+0x88>
    338c:	8f 5f       	subi	r24, 0xFF	; 255
    338e:	80 93 59 03 	sts	0x0359, r24	; 0x800359 <_ZZ19enter_password_initvE13caunter_input>
               if (button_press (KEY_LEFT))  {if (caunter_input > 2)     caunter_input --;}                                         // аналогично сместить в другую сторону если можна
    3392:	87 e3       	ldi	r24, 0x37	; 55
    3394:	0e 94 c6 09 	call	0x138c	; 0x138c <_Z12button_pressh>
    3398:	88 23       	and	r24, r24
    339a:	39 f0       	breq	.+14     	; 0x33aa <_Z19enter_password_initv+0xa0>
    339c:	80 91 59 03 	lds	r24, 0x0359	; 0x800359 <_ZZ19enter_password_initvE13caunter_input>
    33a0:	83 30       	cpi	r24, 0x03	; 3
    33a2:	18 f0       	brcs	.+6      	; 0x33aa <_Z19enter_password_initv+0xa0>
    33a4:	81 50       	subi	r24, 0x01	; 1
    33a6:	80 93 59 03 	sts	0x0359, r24	; 0x800359 <_ZZ19enter_password_initvE13caunter_input>
               if (button_press (KEY_UP)) {
    33aa:	8e e3       	ldi	r24, 0x3E	; 62
    33ac:	0e 94 c6 09 	call	0x138c	; 0x138c <_Z12button_pressh>
    33b0:	88 23       	and	r24, r24
    33b2:	d1 f0       	breq	.+52     	; 0x33e8 <_Z19enter_password_initv+0xde>
                    if (itedger[caunter_input] - '0' < 9) itedger[caunter_input]  ++;                                               // как и в функции времени проверяем какой символ у нас в элементе буфера и по возможности увеличиваем
    33b4:	80 91 59 03 	lds	r24, 0x0359	; 0x800359 <_ZZ19enter_password_initvE13caunter_input>
    33b8:	90 e0       	ldi	r25, 0x00	; 0
    33ba:	fc 01       	movw	r30, r24
    33bc:	e5 5b       	subi	r30, 0xB5	; 181
    33be:	fc 4f       	sbci	r31, 0xFC	; 252
    33c0:	20 81       	ld	r18, Z
    33c2:	42 2f       	mov	r20, r18
    33c4:	50 e0       	ldi	r21, 0x00	; 0
    33c6:	40 53       	subi	r20, 0x30	; 48
    33c8:	51 09       	sbc	r21, r1
    33ca:	49 30       	cpi	r20, 0x09	; 9
    33cc:	51 05       	cpc	r21, r1
    33ce:	34 f4       	brge	.+12     	; 0x33dc <_Z19enter_password_initv+0xd2>
    33d0:	fc 01       	movw	r30, r24
    33d2:	e5 5b       	subi	r30, 0xB5	; 181
    33d4:	fc 4f       	sbci	r31, 0xFC	; 252
    33d6:	2f 5f       	subi	r18, 0xFF	; 255
    33d8:	20 83       	st	Z, r18
    33da:	06 c0       	rjmp	.+12     	; 0x33e8 <_Z19enter_password_initv+0xde>
                    else if(itedger[caunter_input] - '0' == 9) itedger[caunter_input] = '0';
    33dc:	29 33       	cpi	r18, 0x39	; 57
    33de:	21 f4       	brne	.+8      	; 0x33e8 <_Z19enter_password_initv+0xde>
    33e0:	fc 01       	movw	r30, r24
    33e2:	e5 5b       	subi	r30, 0xB5	; 181
    33e4:	fc 4f       	sbci	r31, 0xFC	; 252
    33e6:	f0 82       	st	Z, r15
               }
               if (button_press (KEY_DOWN)) {
    33e8:	8f e1       	ldi	r24, 0x1F	; 31
    33ea:	0e 94 c6 09 	call	0x138c	; 0x138c <_Z12button_pressh>
    33ee:	88 23       	and	r24, r24
    33f0:	d1 f0       	breq	.+52     	; 0x3426 <_Z19enter_password_initv+0x11c>
                    if (itedger[caunter_input] - '0'  > 0) itedger[caunter_input]  --;
    33f2:	80 91 59 03 	lds	r24, 0x0359	; 0x800359 <_ZZ19enter_password_initvE13caunter_input>
    33f6:	90 e0       	ldi	r25, 0x00	; 0
    33f8:	fc 01       	movw	r30, r24
    33fa:	e5 5b       	subi	r30, 0xB5	; 181
    33fc:	fc 4f       	sbci	r31, 0xFC	; 252
    33fe:	20 81       	ld	r18, Z
    3400:	42 2f       	mov	r20, r18
    3402:	50 e0       	ldi	r21, 0x00	; 0
    3404:	40 53       	subi	r20, 0x30	; 48
    3406:	51 09       	sbc	r21, r1
    3408:	14 16       	cp	r1, r20
    340a:	15 06       	cpc	r1, r21
    340c:	34 f4       	brge	.+12     	; 0x341a <_Z19enter_password_initv+0x110>
    340e:	fc 01       	movw	r30, r24
    3410:	e5 5b       	subi	r30, 0xB5	; 181
    3412:	fc 4f       	sbci	r31, 0xFC	; 252
    3414:	21 50       	subi	r18, 0x01	; 1
    3416:	20 83       	st	Z, r18
    3418:	06 c0       	rjmp	.+12     	; 0x3426 <_Z19enter_password_initv+0x11c>
                    else if(itedger[caunter_input] - '0'  == 0) itedger[caunter_input]  = '9';
    341a:	20 33       	cpi	r18, 0x30	; 48
    341c:	21 f4       	brne	.+8      	; 0x3426 <_Z19enter_password_initv+0x11c>
    341e:	fc 01       	movw	r30, r24
    3420:	e5 5b       	subi	r30, 0xB5	; 181
    3422:	fc 4f       	sbci	r31, 0xFC	; 252
    3424:	e0 82       	st	Z, r14
               }
               mirror_data = atol (itedger);                                                                                      // тут сканф заменил атол и все работает так же само
    3426:	8b e4       	ldi	r24, 0x4B	; 75
    3428:	93 e0       	ldi	r25, 0x03	; 3
    342a:	0e 94 06 45 	call	0x8a0c	; 0x8a0c <atol>
    342e:	60 93 55 03 	sts	0x0355, r22	; 0x800355 <_ZZ19enter_password_initvE11mirror_data>
    3432:	70 93 56 03 	sts	0x0356, r23	; 0x800356 <_ZZ19enter_password_initvE11mirror_data+0x1>
    3436:	80 93 57 03 	sts	0x0357, r24	; 0x800357 <_ZZ19enter_password_initvE11mirror_data+0x2>
    343a:	90 93 58 03 	sts	0x0358, r25	; 0x800358 <_ZZ19enter_password_initvE11mirror_data+0x3>
               sprintf(send_buf, "  %04lu"  ,(uint32_t) mirror_data );
    343e:	9f 93       	push	r25
    3440:	8f 93       	push	r24
    3442:	7f 93       	push	r23
    3444:	6f 93       	push	r22
    3446:	1f 93       	push	r17
    3448:	0f 93       	push	r16
    344a:	df 93       	push	r29
    344c:	cf 93       	push	r28
    344e:	0e 94 79 46 	call	0x8cf2	; 0x8cf2 <sprintf>
               blink_simbol (caunter_input);                                                                                      // моргаем изменяемым символом
    3452:	80 91 59 03 	lds	r24, 0x0359	; 0x800359 <_ZZ19enter_password_initvE13caunter_input>
    3456:	7f d3       	rcall	.+1790   	; 0x3b56 <_Z12blink_simbolh>
               if (button_press (KEY_ENTER))
    3458:	8b e3       	ldi	r24, 0x3B	; 59
    345a:	0e 94 c6 09 	call	0x138c	; 0x138c <_Z12button_pressh>
    345e:	2d b7       	in	r18, 0x3d	; 61
    3460:	3e b7       	in	r19, 0x3e	; 62
    3462:	28 5f       	subi	r18, 0xF8	; 248
    3464:	3f 4f       	sbci	r19, 0xFF	; 255
    3466:	0f b6       	in	r0, 0x3f	; 63
    3468:	f8 94       	cli
    346a:	3e bf       	out	0x3e, r19	; 62
    346c:	0f be       	out	0x3f, r0	; 63
    346e:	2d bf       	out	0x3d, r18	; 61
    3470:	88 23       	and	r24, r24
    3472:	19 f1       	breq	.+70     	; 0x34ba <_Z19enter_password_initv+0x1b0>
               {
                    if (mirror_data == PASWORD_INIT)  {  init_EEprom (); error_func (NOERROR); break;}
    3474:	80 91 55 03 	lds	r24, 0x0355	; 0x800355 <_ZZ19enter_password_initvE11mirror_data>
    3478:	90 91 56 03 	lds	r25, 0x0356	; 0x800356 <_ZZ19enter_password_initvE11mirror_data+0x1>
    347c:	a0 91 57 03 	lds	r26, 0x0357	; 0x800357 <_ZZ19enter_password_initvE11mirror_data+0x2>
    3480:	b0 91 58 03 	lds	r27, 0x0358	; 0x800358 <_ZZ19enter_password_initvE11mirror_data+0x3>
    3484:	85 36       	cpi	r24, 0x65	; 101
    3486:	34 e0       	ldi	r19, 0x04	; 4
    3488:	93 07       	cpc	r25, r19
    348a:	a1 05       	cpc	r26, r1
    348c:	b1 05       	cpc	r27, r1
    348e:	31 f4       	brne	.+12     	; 0x349c <_Z19enter_password_initv+0x192>
    3490:	0e 94 e3 04 	call	0x9c6	; 0x9c6 <_Z11init_EEpromv>
    3494:	88 e0       	ldi	r24, 0x08	; 8
    3496:	0e 94 c1 24 	call	0x4982	; 0x4982 <_Z10error_funch>
    349a:	15 c0       	rjmp	.+42     	; 0x34c6 <_Z19enter_password_initv+0x1bc>
                    if (mirror_data == PASWORD_ERR36) {  init_err36 (); error_func (NOERROR);  break;}
    349c:	87 35       	cpi	r24, 0x57	; 87
    349e:	92 42       	sbci	r25, 0x22	; 34
    34a0:	a1 05       	cpc	r26, r1
    34a2:	b1 05       	cpc	r27, r1
    34a4:	31 f4       	brne	.+12     	; 0x34b2 <_Z19enter_password_initv+0x1a8>
    34a6:	0e 94 b7 07 	call	0xf6e	; 0xf6e <_Z10init_err36v>
    34aa:	88 e0       	ldi	r24, 0x08	; 8
    34ac:	0e 94 c1 24 	call	0x4982	; 0x4982 <_Z10error_funch>
    34b0:	0a c0       	rjmp	.+20     	; 0x34c6 <_Z19enter_password_initv+0x1bc>
                    if (mirror_data != PASWORD_INIT && mirror_data != PASWORD_ERR36) {error_func (ERROR5); break;}                // если пароль не соответствует то еррор
    34b2:	85 e0       	ldi	r24, 0x05	; 5
    34b4:	0e 94 c1 24 	call	0x4982	; 0x4982 <_Z10error_funch>
    34b8:	06 c0       	rjmp	.+12     	; 0x34c6 <_Z19enter_password_initv+0x1bc>
               }
               if (button_press (KEY_ESC)) {break;}
    34ba:	8d e3       	ldi	r24, 0x3D	; 61
    34bc:	0e 94 c6 09 	call	0x138c	; 0x138c <_Z12button_pressh>
    34c0:	88 23       	and	r24, r24
    34c2:	09 f4       	brne	.+2      	; 0x34c6 <_Z19enter_password_initv+0x1bc>
    34c4:	5a cf       	rjmp	.-332    	; 0x337a <_Z19enter_password_initv+0x70>
          }
     }
}
    34c6:	df 91       	pop	r29
    34c8:	cf 91       	pop	r28
    34ca:	1f 91       	pop	r17
    34cc:	0f 91       	pop	r16
    34ce:	ff 90       	pop	r15
    34d0:	ef 90       	pop	r14
    34d2:	08 95       	ret

000034d4 <_Z17init_after_EEpromv>:

void init_after_EEprom (void)                // инициализация после чтения еепром
{
     init_light ();                             // яркость матрицы
    34d4:	89 d2       	rcall	.+1298   	; 0x39e8 <_Z10init_lightv>
     init_UART_0_1 (param.baud1, param.baud2);  // скорость юартов
    34d6:	e9 e9       	ldi	r30, 0x99	; 153
    34d8:	f5 e0       	ldi	r31, 0x05	; 5
    34da:	66 89       	ldd	r22, Z+22	; 0x16
    34dc:	85 89       	ldd	r24, Z+21	; 0x15
    34de:	0e 94 bc 33 	call	0x6778	; 0x6778 <_Z13init_UART_0_1hh>
     eror_sens_up = 0;                          // переместимся на 0 кейс ошибок датчиокв
    34e2:	10 92 7e 04 	sts	0x047E, r1	; 0x80047e <eror_sens_up>
     tim_6 = 8000;                              // задерка на показ символов
    34e6:	80 e4       	ldi	r24, 0x40	; 64
    34e8:	9f e1       	ldi	r25, 0x1F	; 31
    34ea:	90 93 2f 03 	sts	0x032F, r25	; 0x80032f <tim_6+0x1>
    34ee:	80 93 2e 03 	sts	0x032E, r24	; 0x80032e <tim_6>
     mein_display = 3;                          // а это чтоб не показывать при старте фигню. ерор и тд
    34f2:	83 e0       	ldi	r24, 0x03	; 3
    34f4:	80 93 7f 04 	sts	0x047F, r24	; 0x80047f <mein_display>
    34f8:	08 95       	ret

000034fa <main>:



int main(void)
{
     init_atmega ();                 // инициализируем всю переферию
    34fa:	1d de       	rcall	.-966    	; 0x3136 <_Z11init_atmegav>
     init_max7219 ();                // инициализируем матрицу, сюда надо добавить включение с разным уровнем яркости
    34fc:	64 d2       	rcall	.+1224   	; 0x39c6 <_Z12init_max7219v>
    34fe:	ec e8       	ldi	r30, 0x8C	; 140
    3500:	f4 e0       	ldi	r31, 0x04	; 4
    3502:	83 e9       	ldi	r24, 0x93	; 147
    3504:	94 e0       	ldi	r25, 0x04	; 4
    3506:	11 92       	st	Z+, r1
     for (int t = 0; t < 7; t++)     // тупая функция для того чтоб экран при включении не показывал всякую дичь!
     {send_buf [t] = 0x00;}
    3508:	8e 17       	cp	r24, r30

int main(void)
{
     init_atmega ();                 // инициализируем всю переферию
     init_max7219 ();                // инициализируем матрицу, сюда надо добавить включение с разным уровнем яркости
     for (int t = 0; t < 7; t++)     // тупая функция для того чтоб экран при включении не показывал всякую дичь!
    350a:	9f 07       	cpc	r25, r31
    350c:	e1 f7       	brne	.-8      	; 0x3506 <main+0xc>
     {send_buf [t] = 0x00;}
     indication ();
    350e:	94 d2       	rcall	.+1320   	; 0x3a38 <_Z10indicationv>
     #ifndef DEBUG_MOD                // отключаем в дебаге
     start ();                        // кнопка включения
    3510:	43 de       	rcall	.-890    	; 0x3198 <_Z5startv>
    3512:	6b de       	rcall	.-810    	; 0x31ea <_Z8zastavkav>
     zastavka ();                     // и рисовалка символов
    3514:	0e 94 25 32 	call	0x644a	; 0x644a <_Z8I2C_initv>
     #endif
     I2C_init();                      // инициализируем скорость I2C
    3518:	78 94       	sei
     sei ();                          // разрешаем прерывания. раньше нельзя, так как тогда провалимся в SPI прерывание от стартового рисунка
    351a:	0e 94 6d 33 	call	0x66da	; 0x66da <_Z18DS_Write_init_datev>
     DS_Write_init_date();            // если часы были сброшены, то перевести их на 90 год и запустить
     enter_password_init();           // ввод пароля на инициализацию или сброс ерр36
    351e:	f5 de       	rcall	.-534    	; 0x330a <_Z19enter_password_initv>
    3520:	0e 94 5d 06 	call	0xcba	; 0xcba <_Z15read_ALL_EEpromv>
     read_ALL_EEprom();               // читаем из eeprom все переменные
    3524:	d7 df       	rcall	.-82     	; 0x34d4 <_Z17init_after_EEpromv>
     init_after_EEprom();             // инициализируем те параметры что зависят от еепром
    3526:	08 e8       	ldi	r16, 0x88	; 136
    3528:	16 e0       	ldi	r17, 0x06	; 6
     for (;;)
     {
          
       if (!boolean.main_menu_bool) {                    // если нет ошибок и ерр36 то передаем в табло  а так же отслеживаем кнопку включения и проверяем не сработал ли ерр36
    352a:	c9 e8       	ldi	r28, 0x89	; 137
    352c:	d6 e0       	ldi	r29, 0x06	; 6
           if(boolean.funck1){boolean.funck1 = false;  if (!boolean.errors && !param.err36){TABLO_print(massa_after_filtr); }}  // с одной переодичностью делать вот это
    352e:	0f 2e       	mov	r0, r31
    3530:	f9 e9       	ldi	r31, 0x99	; 153
           if(boolean.funck2){boolean.funck2 = false; DS_Read(); off_key(); parser_visl(); }
           if(boolean.funck3){boolean.funck3 = false; adc_read_of();  no_pay_wizard();  reply_visl(); }     
           get_zemik_sensors(param.sensor_number);      //                                                          // с другой переодичностью опрашивать датчики
    3532:	ef 2e       	mov	r14, r31
    3534:	f5 e0       	ldi	r31, 0x05	; 5
    3536:	ff 2e       	mov	r15, r31
    3538:	f0 2d       	mov	r31, r0
    353a:	0f 2e       	mov	r0, r31
    353c:	f7 e8       	ldi	r31, 0x87	; 135
           if (button_press (KEY_DOWN)) {  (mein_display < 2) ? mein_display ++ : mein_display = 0; }      // кнопки вверх и вниз показать основные экраны
           if (button_press (KEY_UP))   {  (mein_display > 0) ? mein_display -- : mein_display = 2;}       // впервые тернарный оператор. если больше нуля отнимаем, если ноль то делаем 2 
           if (button_press (KEY_ENTER)) {boolean.main_menu_bool = 1; init_menu();   }                     // если нажали ентер переходим в меню  
           if (!boolean.errors) {                                                                          // если еерр датчиков то не отслеживать тару и ноль      
    353e:	cf 2e       	mov	r12, r31
    3540:	f6 e0       	ldi	r31, 0x06	; 6
    3542:	df 2e       	mov	r13, r31
    3544:	f0 2d       	mov	r31, r0
    3546:	0f 2e       	mov	r0, r31
    3548:	fa ed       	ldi	r31, 0xDA	; 218
           if (!param.err36 && !boolean.err_adc){         // если нет ошибок основные дисплеи             

                switch (mein_display)                     // основные дисплеи
               {
                    case 0: filtr_massa(param.filtr);   break;
                    case 1: sprintf(send_buf, "%02d.%02d.%02d." ,  DS.hour,DS.min,DS.sec);    error_buzzer(false);       break;
    354a:	8f 2e       	mov	r8, r31
    354c:	f5 e0       	ldi	r31, 0x05	; 5
    354e:	9f 2e       	mov	r9, r31
    3550:	f0 2d       	mov	r31, r0
    3552:	0f 2e       	mov	r0, r31
    3554:	fa e8       	ldi	r31, 0x8A	; 138
             if ((button_press (KEY_RIGHT)) || boolean.uart_tara){  if (!boolean.tara_ok) { metrology.tara = massa_after_filtr;} boolean.tara_ok = !boolean.tara_ok; boolean.uart_tara = false;} 
             // если нажали тару, тарируем, и поднимаем флаг что тарировано
             if ((button_press (KEY_LEFT)) || boolean.uart_zero) {  if (!boolean.first_zero) { if ((param.NPV / 4) > labs(massa_after_filtr + metrology.tara)) {zero_funk(0);boolean.first_zero = true;boolean.state_zero = 2;metrology.tara = 0;}\
             else {error_func (NO);boolean.state_zero = 1;}} else {if((param.NPV / 25 )> labs(massa_after_filtr + metrology.tara)) {zero_funk(0);boolean.state_zero = 2;metrology.tara = 0;} else {error_func (NO);boolean.state_zero = 1;}}  boolean.uart_zero = false;}
             // функция обнуления, если опущен флаг первого обнуления то проверяем меньше ли текущая масса чем 25%, если да то обнуляем и поднимаем флаг первого обнуления. а если флаг поднят то проверяем уже на 4%
             if(!boolean.avto_zero) {if (param.zero_start && boolean.data_ok) { if (!boolean.first_zero) { if ((param.NPV / 4) > labs(massa_after_filtr)) {zero_funk(0);} boolean.first_zero = true; boolean.avto_zero = true;}}}
    3556:	af 2e       	mov	r10, r31
    3558:	f6 e0       	ldi	r31, 0x06	; 6
    355a:	bf 2e       	mov	r11, r31
    355c:	f0 2d       	mov	r31, r0
    355e:	0f 2e       	mov	r0, r31
    3560:	f5 e0       	ldi	r31, 0x05	; 5
           if (button_press (KEY_ENTER)) {boolean.main_menu_bool = 1; init_menu();   }                     // если нажали ентер переходим в меню  
           if (!boolean.errors) {                                                                          // если еерр датчиков то не отслеживать тару и ноль      
             if ((button_press (KEY_RIGHT)) || boolean.uart_tara){  if (!boolean.tara_ok) { metrology.tara = massa_after_filtr;} boolean.tara_ok = !boolean.tara_ok; boolean.uart_tara = false;} 
             // если нажали тару, тарируем, и поднимаем флаг что тарировано
             if ((button_press (KEY_LEFT)) || boolean.uart_zero) {  if (!boolean.first_zero) { if ((param.NPV / 4) > labs(massa_after_filtr + metrology.tara)) {zero_funk(0);boolean.first_zero = true;boolean.state_zero = 2;metrology.tara = 0;}\
             else {error_func (NO);boolean.state_zero = 1;}} else {if((param.NPV / 25 )> labs(massa_after_filtr + metrology.tara)) {zero_funk(0);boolean.state_zero = 2;metrology.tara = 0;} else {error_func (NO);boolean.state_zero = 1;}}  boolean.uart_zero = false;}
    3562:	6f 2e       	mov	r6, r31
    3564:	f5 e0       	ldi	r31, 0x05	; 5
    3566:	7f 2e       	mov	r7, r31
    3568:	f0 2d       	mov	r31, r0
    356a:	f8 01       	movw	r30, r16
    356c:	80 81       	ld	r24, Z
     read_ALL_EEprom();               // читаем из eeprom все переменные
     init_after_EEprom();             // инициализируем те параметры что зависят от еепром
     for (;;)
     {
          
       if (!boolean.main_menu_bool) {                    // если нет ошибок и ерр36 то передаем в табло  а так же отслеживаем кнопку включения и проверяем не сработал ли ерр36
    356e:	80 fd       	sbrc	r24, 0
    3570:	fa c1       	rjmp	.+1012   	; 0x3966 <main+0x46c>
    3572:	88 81       	ld	r24, Y
    3574:	84 ff       	sbrs	r24, 4
           if(boolean.funck1){boolean.funck1 = false;  if (!boolean.errors && !param.err36){TABLO_print(massa_after_filtr); }}  // с одной переодичностью делать вот это
    3576:	13 c0       	rjmp	.+38     	; 0x359e <main+0xa4>
    3578:	8f 7e       	andi	r24, 0xEF	; 239
    357a:	88 83       	st	Y, r24
    357c:	f6 01       	movw	r30, r12
    357e:	80 81       	ld	r24, Z
    3580:	80 fd       	sbrc	r24, 0
    3582:	0d c0       	rjmp	.+26     	; 0x359e <main+0xa4>
    3584:	f7 01       	movw	r30, r14
    3586:	84 8d       	ldd	r24, Z+28	; 0x1c
    3588:	81 11       	cpse	r24, r1
    358a:	09 c0       	rjmp	.+18     	; 0x359e <main+0xa4>
    358c:	60 91 72 04 	lds	r22, 0x0472	; 0x800472 <massa_after_filtr>
    3590:	70 91 73 04 	lds	r23, 0x0473	; 0x800473 <massa_after_filtr+0x1>
    3594:	80 91 74 04 	lds	r24, 0x0474	; 0x800474 <massa_after_filtr+0x2>
    3598:	90 91 75 04 	lds	r25, 0x0475	; 0x800475 <massa_after_filtr+0x3>
    359c:	82 dd       	rcall	.-1276   	; 0x30a2 <_Z11TABLO_printl>
    359e:	88 81       	ld	r24, Y
    35a0:	85 ff       	sbrs	r24, 5
           if(boolean.funck2){boolean.funck2 = false; DS_Read(); off_key(); parser_visl(); }
    35a2:	07 c0       	rjmp	.+14     	; 0x35b2 <main+0xb8>
    35a4:	8f 7d       	andi	r24, 0xDF	; 223
    35a6:	88 83       	st	Y, r24
    35a8:	0e 94 15 33 	call	0x662a	; 0x662a <_Z7DS_Readv>
    35ac:	5c de       	rcall	.-840    	; 0x3266 <_Z7off_keyv>
    35ae:	0e 94 3e 34 	call	0x687c	; 0x687c <_Z11parser_vislv>
    35b2:	88 81       	ld	r24, Y
    35b4:	86 ff       	sbrs	r24, 6
    35b6:	08 c0       	rjmp	.+16     	; 0x35c8 <main+0xce>
           if(boolean.funck3){boolean.funck3 = false; adc_read_of();  no_pay_wizard();  reply_visl(); }     
    35b8:	8f 7b       	andi	r24, 0xBF	; 191
    35ba:	88 83       	st	Y, r24
    35bc:	0e 94 2c 0a 	call	0x1458	; 0x1458 <_Z11adc_read_ofv>
    35c0:	0e 94 9c 12 	call	0x2538	; 0x2538 <_Z13no_pay_wizardv>
    35c4:	0e 94 10 36 	call	0x6c20	; 0x6c20 <_Z10reply_vislv>
    35c8:	f7 01       	movw	r30, r14
    35ca:	87 85       	ldd	r24, Z+15	; 0x0f
    35cc:	0e 94 a9 37 	call	0x6f52	; 0x6f52 <_Z17get_zemik_sensorsh>
           get_zemik_sensors(param.sensor_number);      //                                                          // с другой переодичностью опрашивать датчики
    35d0:	8f e1       	ldi	r24, 0x1F	; 31
    35d2:	0e 94 c6 09 	call	0x138c	; 0x138c <_Z12button_pressh>
           if (button_press (KEY_DOWN)) {  (mein_display < 2) ? mein_display ++ : mein_display = 0; }      // кнопки вверх и вниз показать основные экраны
    35d6:	88 23       	and	r24, r24
    35d8:	51 f0       	breq	.+20     	; 0x35ee <main+0xf4>
    35da:	80 91 7f 04 	lds	r24, 0x047F	; 0x80047f <mein_display>
    35de:	82 30       	cpi	r24, 0x02	; 2
    35e0:	20 f4       	brcc	.+8      	; 0x35ea <main+0xf0>
    35e2:	8f 5f       	subi	r24, 0xFF	; 255
    35e4:	80 93 7f 04 	sts	0x047F, r24	; 0x80047f <mein_display>
    35e8:	02 c0       	rjmp	.+4      	; 0x35ee <main+0xf4>
    35ea:	10 92 7f 04 	sts	0x047F, r1	; 0x80047f <mein_display>
    35ee:	8e e3       	ldi	r24, 0x3E	; 62
    35f0:	0e 94 c6 09 	call	0x138c	; 0x138c <_Z12button_pressh>
           if (button_press (KEY_UP))   {  (mein_display > 0) ? mein_display -- : mein_display = 2;}       // впервые тернарный оператор. если больше нуля отнимаем, если ноль то делаем 2 
    35f4:	88 23       	and	r24, r24
    35f6:	59 f0       	breq	.+22     	; 0x360e <main+0x114>
    35f8:	80 91 7f 04 	lds	r24, 0x047F	; 0x80047f <mein_display>
    35fc:	88 23       	and	r24, r24
    35fe:	21 f0       	breq	.+8      	; 0x3608 <main+0x10e>
    3600:	81 50       	subi	r24, 0x01	; 1
    3602:	80 93 7f 04 	sts	0x047F, r24	; 0x80047f <mein_display>
    3606:	03 c0       	rjmp	.+6      	; 0x360e <main+0x114>
    3608:	82 e0       	ldi	r24, 0x02	; 2
    360a:	80 93 7f 04 	sts	0x047F, r24	; 0x80047f <mein_display>
    360e:	8b e3       	ldi	r24, 0x3B	; 59
    3610:	0e 94 c6 09 	call	0x138c	; 0x138c <_Z12button_pressh>
           if (button_press (KEY_ENTER)) {boolean.main_menu_bool = 1; init_menu();   }                     // если нажали ентер переходим в меню  
    3614:	88 23       	and	r24, r24
    3616:	31 f0       	breq	.+12     	; 0x3624 <main+0x12a>
    3618:	f8 01       	movw	r30, r16
    361a:	80 81       	ld	r24, Z
    361c:	81 60       	ori	r24, 0x01	; 1
    361e:	80 83       	st	Z, r24
    3620:	0e 94 ba 24 	call	0x4974	; 0x4974 <_Z9init_menuv>
    3624:	f6 01       	movw	r30, r12
    3626:	80 81       	ld	r24, Z
    3628:	80 fd       	sbrc	r24, 0
           if (!boolean.errors) {                                                                          // если еерр датчиков то не отслеживать тару и ноль      
    362a:	0f c1       	rjmp	.+542    	; 0x384a <main+0x350>
    362c:	8f e2       	ldi	r24, 0x2F	; 47
    362e:	0e 94 c6 09 	call	0x138c	; 0x138c <_Z12button_pressh>
             if ((button_press (KEY_RIGHT)) || boolean.uart_tara){  if (!boolean.tara_ok) { metrology.tara = massa_after_filtr;} boolean.tara_ok = !boolean.tara_ok; boolean.uart_tara = false;} 
    3632:	81 11       	cpse	r24, r1
    3634:	04 c0       	rjmp	.+8      	; 0x363e <main+0x144>
    3636:	f5 01       	movw	r30, r10
    3638:	80 81       	ld	r24, Z
    363a:	81 ff       	sbrs	r24, 1
    363c:	1f c0       	rjmp	.+62     	; 0x367c <main+0x182>
    363e:	f6 01       	movw	r30, r12
    3640:	80 81       	ld	r24, Z
    3642:	28 2f       	mov	r18, r24
    3644:	20 71       	andi	r18, 0x10	; 16
    3646:	84 fd       	sbrc	r24, 4
    3648:	0d c0       	rjmp	.+26     	; 0x3664 <main+0x16a>
    364a:	80 91 72 04 	lds	r24, 0x0472	; 0x800472 <massa_after_filtr>
    364e:	90 91 73 04 	lds	r25, 0x0473	; 0x800473 <massa_after_filtr+0x1>
    3652:	a0 91 74 04 	lds	r26, 0x0474	; 0x800474 <massa_after_filtr+0x2>
    3656:	b0 91 75 04 	lds	r27, 0x0475	; 0x800475 <massa_after_filtr+0x3>
    365a:	f3 01       	movw	r30, r6
    365c:	80 83       	st	Z, r24
    365e:	91 83       	std	Z+1, r25	; 0x01
    3660:	a2 83       	std	Z+2, r26	; 0x02
    3662:	b3 83       	std	Z+3, r27	; 0x03
    3664:	91 e0       	ldi	r25, 0x01	; 1
    3666:	21 11       	cpse	r18, r1
    3668:	90 e0       	ldi	r25, 0x00	; 0
    366a:	f6 01       	movw	r30, r12
    366c:	80 81       	ld	r24, Z
    366e:	90 fb       	bst	r25, 0
    3670:	84 f9       	bld	r24, 4
    3672:	80 83       	st	Z, r24
    3674:	f5 01       	movw	r30, r10
    3676:	80 81       	ld	r24, Z
    3678:	8d 7f       	andi	r24, 0xFD	; 253
    367a:	80 83       	st	Z, r24
    367c:	87 e3       	ldi	r24, 0x37	; 55
    367e:	0e 94 c6 09 	call	0x138c	; 0x138c <_Z12button_pressh>
             // если нажали тару, тарируем, и поднимаем флаг что тарировано
             if ((button_press (KEY_LEFT)) || boolean.uart_zero) {  if (!boolean.first_zero) { if ((param.NPV / 4) > labs(massa_after_filtr + metrology.tara)) {zero_funk(0);boolean.first_zero = true;boolean.state_zero = 2;metrology.tara = 0;}\
    3682:	81 11       	cpse	r24, r1
    3684:	04 c0       	rjmp	.+8      	; 0x368e <main+0x194>
    3686:	f5 01       	movw	r30, r10
    3688:	80 81       	ld	r24, Z
    368a:	82 ff       	sbrs	r24, 2
    368c:	a0 c0       	rjmp	.+320    	; 0x37ce <main+0x2d4>
    368e:	f6 01       	movw	r30, r12
    3690:	80 81       	ld	r24, Z
    3692:	85 fd       	sbrc	r24, 5
    3694:	52 c0       	rjmp	.+164    	; 0x373a <main+0x240>
    3696:	f7 01       	movw	r30, r14
    3698:	81 89       	ldd	r24, Z+17	; 0x11
    369a:	92 89       	ldd	r25, Z+18	; 0x12
    369c:	a3 89       	ldd	r26, Z+19	; 0x13
    369e:	b4 89       	ldd	r27, Z+20	; 0x14
    36a0:	bb 23       	and	r27, r27
    36a2:	1c f4       	brge	.+6      	; 0x36aa <main+0x1b0>
    36a4:	03 96       	adiw	r24, 0x03	; 3
    36a6:	a1 1d       	adc	r26, r1
    36a8:	b1 1d       	adc	r27, r1
    36aa:	b5 95       	asr	r27
    36ac:	a7 95       	ror	r26
    36ae:	97 95       	ror	r25
    36b0:	87 95       	ror	r24
    36b2:	b5 95       	asr	r27
    36b4:	a7 95       	ror	r26
    36b6:	97 95       	ror	r25
    36b8:	87 95       	ror	r24
    36ba:	f3 01       	movw	r30, r6
    36bc:	20 80       	ld	r2, Z
    36be:	31 80       	ldd	r3, Z+1	; 0x01
    36c0:	42 80       	ldd	r4, Z+2	; 0x02
    36c2:	53 80       	ldd	r5, Z+3	; 0x03
    36c4:	40 91 72 04 	lds	r20, 0x0472	; 0x800472 <massa_after_filtr>
    36c8:	50 91 73 04 	lds	r21, 0x0473	; 0x800473 <massa_after_filtr+0x1>
    36cc:	60 91 74 04 	lds	r22, 0x0474	; 0x800474 <massa_after_filtr+0x2>
    36d0:	70 91 75 04 	lds	r23, 0x0475	; 0x800475 <massa_after_filtr+0x3>
    36d4:	42 0d       	add	r20, r2
    36d6:	53 1d       	adc	r21, r3
    36d8:	64 1d       	adc	r22, r4
    36da:	75 1d       	adc	r23, r5
    36dc:	1a 01       	movw	r2, r20
    36de:	2b 01       	movw	r4, r22
    36e0:	77 23       	and	r23, r23
    36e2:	3c f4       	brge	.+14     	; 0x36f2 <main+0x1f8>
    36e4:	22 24       	eor	r2, r2
    36e6:	33 24       	eor	r3, r3
    36e8:	21 01       	movw	r4, r2
    36ea:	24 1a       	sub	r2, r20
    36ec:	35 0a       	sbc	r3, r21
    36ee:	46 0a       	sbc	r4, r22
    36f0:	57 0a       	sbc	r5, r23
    36f2:	28 16       	cp	r2, r24
    36f4:	39 06       	cpc	r3, r25
    36f6:	4a 06       	cpc	r4, r26
    36f8:	5b 06       	cpc	r5, r27
    36fa:	a4 f4       	brge	.+40     	; 0x3724 <main+0x22a>
    36fc:	80 e0       	ldi	r24, 0x00	; 0
    36fe:	0e 94 7c 11 	call	0x22f8	; 0x22f8 <_Z9zero_funkh>
    3702:	f6 01       	movw	r30, r12
    3704:	80 81       	ld	r24, Z
    3706:	80 62       	ori	r24, 0x20	; 32
    3708:	80 83       	st	Z, r24
    370a:	88 81       	ld	r24, Y
    370c:	8f 77       	andi	r24, 0x7F	; 127
    370e:	88 83       	st	Y, r24
    3710:	f5 01       	movw	r30, r10
    3712:	80 81       	ld	r24, Z
    3714:	81 60       	ori	r24, 0x01	; 1
    3716:	80 83       	st	Z, r24
    3718:	f3 01       	movw	r30, r6
    371a:	10 82       	st	Z, r1
    371c:	11 82       	std	Z+1, r1	; 0x01
    371e:	12 82       	std	Z+2, r1	; 0x02
    3720:	13 82       	std	Z+3, r1	; 0x03
    3722:	51 c0       	rjmp	.+162    	; 0x37c6 <main+0x2cc>
    3724:	89 e0       	ldi	r24, 0x09	; 9
    3726:	0e 94 c1 24 	call	0x4982	; 0x4982 <_Z10error_funch>
             else {error_func (NO);boolean.state_zero = 1;}} else {if((param.NPV / 25 )> labs(massa_after_filtr + metrology.tara)) {zero_funk(0);boolean.state_zero = 2;metrology.tara = 0;} else {error_func (NO);boolean.state_zero = 1;}}  boolean.uart_zero = false;}
    372a:	88 81       	ld	r24, Y
    372c:	80 68       	ori	r24, 0x80	; 128
    372e:	88 83       	st	Y, r24
    3730:	f5 01       	movw	r30, r10
    3732:	80 81       	ld	r24, Z
    3734:	8e 7f       	andi	r24, 0xFE	; 254
    3736:	80 83       	st	Z, r24
    3738:	46 c0       	rjmp	.+140    	; 0x37c6 <main+0x2cc>
    373a:	f7 01       	movw	r30, r14
    373c:	61 89       	ldd	r22, Z+17	; 0x11
    373e:	72 89       	ldd	r23, Z+18	; 0x12
    3740:	83 89       	ldd	r24, Z+19	; 0x13
    3742:	94 89       	ldd	r25, Z+20	; 0x14
    3744:	29 e1       	ldi	r18, 0x19	; 25
    3746:	30 e0       	ldi	r19, 0x00	; 0
    3748:	40 e0       	ldi	r20, 0x00	; 0
    374a:	50 e0       	ldi	r21, 0x00	; 0
    374c:	0e 94 c6 44 	call	0x898c	; 0x898c <__divmodsi4>
    3750:	f3 01       	movw	r30, r6
    3752:	20 80       	ld	r2, Z
    3754:	31 80       	ldd	r3, Z+1	; 0x01
    3756:	42 80       	ldd	r4, Z+2	; 0x02
    3758:	53 80       	ldd	r5, Z+3	; 0x03
    375a:	80 91 72 04 	lds	r24, 0x0472	; 0x800472 <massa_after_filtr>
    375e:	90 91 73 04 	lds	r25, 0x0473	; 0x800473 <massa_after_filtr+0x1>
    3762:	a0 91 74 04 	lds	r26, 0x0474	; 0x800474 <massa_after_filtr+0x2>
    3766:	b0 91 75 04 	lds	r27, 0x0475	; 0x800475 <massa_after_filtr+0x3>
    376a:	82 0d       	add	r24, r2
    376c:	93 1d       	adc	r25, r3
    376e:	a4 1d       	adc	r26, r4
    3770:	b5 1d       	adc	r27, r5
    3772:	1c 01       	movw	r2, r24
    3774:	2d 01       	movw	r4, r26
    3776:	bb 23       	and	r27, r27
    3778:	3c f4       	brge	.+14     	; 0x3788 <main+0x28e>
    377a:	22 24       	eor	r2, r2
    377c:	33 24       	eor	r3, r3
    377e:	21 01       	movw	r4, r2
    3780:	28 1a       	sub	r2, r24
    3782:	39 0a       	sbc	r3, r25
    3784:	4a 0a       	sbc	r4, r26
    3786:	5b 0a       	sbc	r5, r27
    3788:	22 16       	cp	r2, r18
    378a:	33 06       	cpc	r3, r19
    378c:	44 06       	cpc	r4, r20
    378e:	55 06       	cpc	r5, r21
    3790:	84 f4       	brge	.+32     	; 0x37b2 <main+0x2b8>
    3792:	80 e0       	ldi	r24, 0x00	; 0
    3794:	0e 94 7c 11 	call	0x22f8	; 0x22f8 <_Z9zero_funkh>
    3798:	88 81       	ld	r24, Y
    379a:	8f 77       	andi	r24, 0x7F	; 127
    379c:	88 83       	st	Y, r24
    379e:	f5 01       	movw	r30, r10
    37a0:	80 81       	ld	r24, Z
    37a2:	81 60       	ori	r24, 0x01	; 1
    37a4:	80 83       	st	Z, r24
    37a6:	f3 01       	movw	r30, r6
    37a8:	10 82       	st	Z, r1
    37aa:	11 82       	std	Z+1, r1	; 0x01
    37ac:	12 82       	std	Z+2, r1	; 0x02
    37ae:	13 82       	std	Z+3, r1	; 0x03
    37b0:	0a c0       	rjmp	.+20     	; 0x37c6 <main+0x2cc>
    37b2:	89 e0       	ldi	r24, 0x09	; 9
    37b4:	0e 94 c1 24 	call	0x4982	; 0x4982 <_Z10error_funch>
    37b8:	88 81       	ld	r24, Y
    37ba:	80 68       	ori	r24, 0x80	; 128
    37bc:	88 83       	st	Y, r24
    37be:	f5 01       	movw	r30, r10
    37c0:	80 81       	ld	r24, Z
    37c2:	8e 7f       	andi	r24, 0xFE	; 254
    37c4:	80 83       	st	Z, r24
    37c6:	f5 01       	movw	r30, r10
    37c8:	80 81       	ld	r24, Z
    37ca:	8b 7f       	andi	r24, 0xFB	; 251
    37cc:	80 83       	st	Z, r24
    37ce:	f6 01       	movw	r30, r12
    37d0:	80 81       	ld	r24, Z
    37d2:	86 fd       	sbrc	r24, 6
             // функция обнуления, если опущен флаг первого обнуления то проверяем меньше ли текущая масса чем 25%, если да то обнуляем и поднимаем флаг первого обнуления. а если флаг поднят то проверяем уже на 4%
             if(!boolean.avto_zero) {if (param.zero_start && boolean.data_ok) { if (!boolean.first_zero) { if ((param.NPV / 4) > labs(massa_after_filtr)) {zero_funk(0);} boolean.first_zero = true; boolean.avto_zero = true;}}}
    37d4:	3a c0       	rjmp	.+116    	; 0x384a <main+0x350>
    37d6:	f7 01       	movw	r30, r14
    37d8:	93 8d       	ldd	r25, Z+27	; 0x1b
    37da:	99 23       	and	r25, r25
    37dc:	b1 f1       	breq	.+108    	; 0x384a <main+0x350>
    37de:	f5 01       	movw	r30, r10
    37e0:	90 81       	ld	r25, Z
    37e2:	93 ff       	sbrs	r25, 3
    37e4:	32 c0       	rjmp	.+100    	; 0x384a <main+0x350>
    37e6:	85 fd       	sbrc	r24, 5
    37e8:	30 c0       	rjmp	.+96     	; 0x384a <main+0x350>
    37ea:	f7 01       	movw	r30, r14
    37ec:	81 89       	ldd	r24, Z+17	; 0x11
    37ee:	92 89       	ldd	r25, Z+18	; 0x12
    37f0:	a3 89       	ldd	r26, Z+19	; 0x13
    37f2:	b4 89       	ldd	r27, Z+20	; 0x14
    37f4:	bb 23       	and	r27, r27
    37f6:	1c f4       	brge	.+6      	; 0x37fe <main+0x304>
    37f8:	03 96       	adiw	r24, 0x03	; 3
    37fa:	a1 1d       	adc	r26, r1
    37fc:	b1 1d       	adc	r27, r1
    37fe:	b5 95       	asr	r27
    3800:	a7 95       	ror	r26
    3802:	97 95       	ror	r25
    3804:	87 95       	ror	r24
    3806:	b5 95       	asr	r27
    3808:	a7 95       	ror	r26
    380a:	97 95       	ror	r25
    380c:	87 95       	ror	r24
    380e:	40 91 72 04 	lds	r20, 0x0472	; 0x800472 <massa_after_filtr>
    3812:	50 91 73 04 	lds	r21, 0x0473	; 0x800473 <massa_after_filtr+0x1>
    3816:	60 91 74 04 	lds	r22, 0x0474	; 0x800474 <massa_after_filtr+0x2>
    381a:	70 91 75 04 	lds	r23, 0x0475	; 0x800475 <massa_after_filtr+0x3>
    381e:	77 23       	and	r23, r23
    3820:	3c f4       	brge	.+14     	; 0x3830 <main+0x336>
    3822:	70 95       	com	r23
    3824:	60 95       	com	r22
    3826:	50 95       	com	r21
    3828:	41 95       	neg	r20
    382a:	5f 4f       	sbci	r21, 0xFF	; 255
    382c:	6f 4f       	sbci	r22, 0xFF	; 255
    382e:	7f 4f       	sbci	r23, 0xFF	; 255
    3830:	48 17       	cp	r20, r24
    3832:	59 07       	cpc	r21, r25
    3834:	6a 07       	cpc	r22, r26
    3836:	7b 07       	cpc	r23, r27
    3838:	1c f4       	brge	.+6      	; 0x3840 <main+0x346>
    383a:	80 e0       	ldi	r24, 0x00	; 0
    383c:	0e 94 7c 11 	call	0x22f8	; 0x22f8 <_Z9zero_funkh>
    3840:	f6 01       	movw	r30, r12
    3842:	80 81       	ld	r24, Z
    3844:	80 62       	ori	r24, 0x20	; 32
    3846:	80 64       	ori	r24, 0x40	; 64
    3848:	80 83       	st	Z, r24
    384a:	f7 01       	movw	r30, r14
    384c:	84 8d       	ldd	r24, Z+28	; 0x1c
    384e:	81 11       	cpse	r24, r1
             // тоже самое только для авто нуля.                  
           }       
           if (!param.err36 && !boolean.err_adc){         // если нет ошибок основные дисплеи             
    3850:	91 c0       	rjmp	.+290    	; 0x3974 <main+0x47a>
    3852:	f8 01       	movw	r30, r16
    3854:	80 81       	ld	r24, Z
    3856:	86 fd       	sbrc	r24, 6
    3858:	71 c0       	rjmp	.+226    	; 0x393c <main+0x442>
    385a:	80 91 7f 04 	lds	r24, 0x047F	; 0x80047f <mein_display>
    385e:	81 30       	cpi	r24, 0x01	; 1

                switch (mein_display)                     // основные дисплеи
    3860:	61 f0       	breq	.+24     	; 0x387a <main+0x380>
    3862:	30 f0       	brcs	.+12     	; 0x3870 <main+0x376>
    3864:	82 30       	cpi	r24, 0x02	; 2
    3866:	61 f1       	breq	.+88     	; 0x38c0 <main+0x3c6>
    3868:	83 30       	cpi	r24, 0x03	; 3
    386a:	09 f4       	brne	.+2      	; 0x386e <main+0x374>
    386c:	4c c0       	rjmp	.+152    	; 0x3906 <main+0x40c>
    386e:	77 c0       	rjmp	.+238    	; 0x395e <main+0x464>
    3870:	f7 01       	movw	r30, r14
    3872:	81 8d       	ldd	r24, Z+25	; 0x19
    3874:	0e 94 1a 13 	call	0x2634	; 0x2634 <_Z11filtr_massah>
               {
                    case 0: filtr_massa(param.filtr);   break;
    3878:	72 c0       	rjmp	.+228    	; 0x395e <main+0x464>
    387a:	f4 01       	movw	r30, r8
    387c:	81 81       	ldd	r24, Z+1	; 0x01
    387e:	8f 93       	push	r24
                    case 1: sprintf(send_buf, "%02d.%02d.%02d." ,  DS.hour,DS.min,DS.sec);    error_buzzer(false);       break;
    3880:	80 81       	ld	r24, Z
    3882:	8f 93       	push	r24
    3884:	83 81       	ldd	r24, Z+3	; 0x03
    3886:	8f 93       	push	r24
    3888:	82 81       	ldd	r24, Z+2	; 0x02
    388a:	8f 93       	push	r24
    388c:	85 81       	ldd	r24, Z+5	; 0x05
    388e:	8f 93       	push	r24
    3890:	84 81       	ldd	r24, Z+4	; 0x04
    3892:	8f 93       	push	r24
    3894:	8d e1       	ldi	r24, 0x1D	; 29
    3896:	92 e0       	ldi	r25, 0x02	; 2
    3898:	9f 93       	push	r25
    389a:	8f 93       	push	r24
    389c:	8c e8       	ldi	r24, 0x8C	; 140
    389e:	94 e0       	ldi	r25, 0x04	; 4
    38a0:	9f 93       	push	r25
    38a2:	8f 93       	push	r24
    38a4:	0e 94 79 46 	call	0x8cf2	; 0x8cf2 <sprintf>
    38a8:	80 e0       	ldi	r24, 0x00	; 0
    38aa:	0e 94 6e 09 	call	0x12dc	; 0x12dc <_Z12error_buzzerb>
    38ae:	8d b7       	in	r24, 0x3d	; 61
    38b0:	9e b7       	in	r25, 0x3e	; 62
    38b2:	0a 96       	adiw	r24, 0x0a	; 10
    38b4:	0f b6       	in	r0, 0x3f	; 63
    38b6:	f8 94       	cli
    38b8:	9e bf       	out	0x3e, r25	; 62
    38ba:	0f be       	out	0x3f, r0	; 63
    38bc:	8d bf       	out	0x3d, r24	; 61
    38be:	4f c0       	rjmp	.+158    	; 0x395e <main+0x464>
    38c0:	f4 01       	movw	r30, r8
    38c2:	85 85       	ldd	r24, Z+13	; 0x0d
    38c4:	8f 93       	push	r24
                    case 2: sprintf(send_buf, "%02d.%02d.%02d." ,  DS.date,DS.month,DS.year); error_buzzer(false);       break;
    38c6:	84 85       	ldd	r24, Z+12	; 0x0c
    38c8:	8f 93       	push	r24
    38ca:	83 85       	ldd	r24, Z+11	; 0x0b
    38cc:	8f 93       	push	r24
    38ce:	82 85       	ldd	r24, Z+10	; 0x0a
    38d0:	8f 93       	push	r24
    38d2:	81 85       	ldd	r24, Z+9	; 0x09
    38d4:	8f 93       	push	r24
    38d6:	80 85       	ldd	r24, Z+8	; 0x08
    38d8:	8f 93       	push	r24
    38da:	8d e1       	ldi	r24, 0x1D	; 29
    38dc:	92 e0       	ldi	r25, 0x02	; 2
    38de:	9f 93       	push	r25
    38e0:	8f 93       	push	r24
    38e2:	8c e8       	ldi	r24, 0x8C	; 140
    38e4:	94 e0       	ldi	r25, 0x04	; 4
    38e6:	9f 93       	push	r25
    38e8:	8f 93       	push	r24
    38ea:	0e 94 79 46 	call	0x8cf2	; 0x8cf2 <sprintf>
    38ee:	80 e0       	ldi	r24, 0x00	; 0
    38f0:	0e 94 6e 09 	call	0x12dc	; 0x12dc <_Z12error_buzzerb>
    38f4:	8d b7       	in	r24, 0x3d	; 61
    38f6:	9e b7       	in	r25, 0x3e	; 62
    38f8:	0a 96       	adiw	r24, 0x0a	; 10
    38fa:	0f b6       	in	r0, 0x3f	; 63
    38fc:	f8 94       	cli
    38fe:	9e bf       	out	0x3e, r25	; 62
    3900:	0f be       	out	0x3f, r0	; 63
    3902:	8d bf       	out	0x3d, r24	; 61
    3904:	2c c0       	rjmp	.+88     	; 0x395e <main+0x464>
    3906:	80 91 2e 03 	lds	r24, 0x032E	; 0x80032e <tim_6>
    390a:	90 91 2f 03 	lds	r25, 0x032F	; 0x80032f <tim_6+0x1>
                    case 3: if(!tim_6) { mein_display = 0; boolean.start_delay = 1; }strcpy_P(send_buf, (PGM_P)pgm_read_word(&(er_sens[12]))); adc_read_of(); filtr_massa(param.filtr); break;     // при старте показать вот это чтоб все успело включится
    390e:	89 2b       	or	r24, r25
    3910:	31 f4       	brne	.+12     	; 0x391e <main+0x424>
    3912:	10 92 7f 04 	sts	0x047F, r1	; 0x80047f <mein_display>
    3916:	f8 01       	movw	r30, r16
    3918:	80 81       	ld	r24, Z
    391a:	80 68       	ori	r24, 0x80	; 128
    391c:	80 83       	st	Z, r24
    391e:	e9 e5       	ldi	r30, 0x59	; 89
    3920:	f3 e0       	ldi	r31, 0x03	; 3
    3922:	65 91       	lpm	r22, Z+
    3924:	74 91       	lpm	r23, Z
    3926:	8c e8       	ldi	r24, 0x8C	; 140
    3928:	94 e0       	ldi	r25, 0x04	; 4
    392a:	0e 94 04 46 	call	0x8c08	; 0x8c08 <strcpy_P>
    392e:	0e 94 2c 0a 	call	0x1458	; 0x1458 <_Z11adc_read_ofv>
    3932:	f7 01       	movw	r30, r14
    3934:	81 8d       	ldd	r24, Z+25	; 0x19
    3936:	0e 94 1a 13 	call	0x2634	; 0x2634 <_Z11filtr_massah>
    393a:	11 c0       	rjmp	.+34     	; 0x395e <main+0x464>
    393c:	e1 e0       	ldi	r30, 0x01	; 1
    393e:	f3 e0       	ldi	r31, 0x03	; 3
    3940:	65 91       	lpm	r22, Z+
               }              
           } 
           else {                                        // если есть то показывать их
                   while (1)
                   {
                       if (boolean.err_adc) { strcpy_P(send_buf, (PGM_P)pgm_read_word(&(error_string[BAT])));  break; }     // акум
    3942:	74 91       	lpm	r23, Z
    3944:	8c e8       	ldi	r24, 0x8C	; 140
    3946:	94 e0       	ldi	r25, 0x04	; 4
    3948:	0e 94 04 46 	call	0x8c08	; 0x8c08 <strcpy_P>
    394c:	08 c0       	rjmp	.+16     	; 0x395e <main+0x464>
    394e:	eb ef       	ldi	r30, 0xFB	; 251
    3950:	f2 e0       	ldi	r31, 0x02	; 2
    3952:	65 91       	lpm	r22, Z+
                       if (param.err36) {strcpy_P(send_buf, (PGM_P)pgm_read_word(&(error_string[ERROR36])));  break;  }     // ерр36
    3954:	74 91       	lpm	r23, Z
    3956:	8c e8       	ldi	r24, 0x8C	; 140
    3958:	94 e0       	ldi	r25, 0x04	; 4
    395a:	0e 94 04 46 	call	0x8c08	; 0x8c08 <strcpy_P>
    395e:	f8 01       	movw	r30, r16
    3960:	80 81       	ld	r24, Z
                       break;       
                   }                          
                }
      }            
        if (boolean.main_menu_bool) { main_menu (); error_buzzer(false);}       // если мы в меню, то показываем только его. 
    3962:	80 ff       	sbrs	r24, 0
    3964:	04 c0       	rjmp	.+8      	; 0x396e <main+0x474>
    3966:	98 d5       	rcall	.+2864   	; 0x4498 <_Z9main_menuv>
    3968:	80 e0       	ldi	r24, 0x00	; 0
    396a:	0e 94 6e 09 	call	0x12dc	; 0x12dc <_Z12error_buzzerb>
    396e:	0e 94 bf 0a 	call	0x157e	; 0x157e <_Z11err_and_ledv>
    3972:	fb cd       	rjmp	.-1034   	; 0x356a <main+0x70>
        err_and_led (); // следим за выключением светиков  
    3974:	f8 01       	movw	r30, r16
    3976:	80 81       	ld	r24, Z
     sei ();                          // разрешаем прерывания. раньше нельзя, так как тогда провалимся в SPI прерывание от стартового рисунка
     DS_Write_init_date();            // если часы были сброшены, то перевести их на 90 год и запустить
     enter_password_init();           // ввод пароля на инициализацию или сброс ерр36
     read_ALL_EEprom();               // читаем из eeprom все переменные
     init_after_EEprom();             // инициализируем те параметры что зависят от еепром
     for (;;)
    3978:	86 fd       	sbrc	r24, 6
               }              
           } 
           else {                                        // если есть то показывать их
                   while (1)
                   {
                       if (boolean.err_adc) { strcpy_P(send_buf, (PGM_P)pgm_read_word(&(error_string[BAT])));  break; }     // акум
    397a:	e0 cf       	rjmp	.-64     	; 0x393c <main+0x442>
    397c:	e8 cf       	rjmp	.-48     	; 0x394e <main+0x454>

0000397e <_Z9send_datahh>:
volatile char send_buf [20] = {};
volatile static char buf_max7219 [10] = {};
//---------------функции----------------------------------//

void send_data (uint8_t adress, uint8_t byte){      // функция единичной посылки из двух байт
   if (!spi_stop){              // был глюк с наложением байтов, сделал защиту
    397e:	90 91 a0 04 	lds	r25, 0x04A0	; 0x8004a0 <spi_stop>
    3982:	91 11       	cpse	r25, r1
    3984:	1f c0       	rjmp	.+62     	; 0x39c4 <_Z9send_datahh+0x46>
     boolean.stop_spi = true;   // и еще одну
    3986:	e9 e8       	ldi	r30, 0x89	; 137
    3988:	f6 e0       	ldi	r31, 0x06	; 6
    398a:	90 81       	ld	r25, Z
    398c:	94 60       	ori	r25, 0x04	; 4
    398e:	90 83       	st	Z, r25
     SPCR &=  ~0x80;            // тут выключим прерывания SPI
    3990:	9c b5       	in	r25, 0x2c	; 44
    3992:	9f 77       	andi	r25, 0x7F	; 127
    3994:	9c bd       	out	0x2c, r25	; 44
     SSOFF;                     // чип селект в ноль
    3996:	28 98       	cbi	0x05, 0	; 5
     SPDR = adress;	            // загрузили данные
    3998:	8e bd       	out	0x2e, r24	; 46
     while(!(SPSR & (1<<SPIF)));//подождем пока данные передадутся
    399a:	0d b4       	in	r0, 0x2d	; 45
    399c:	07 fe       	sbrs	r0, 7
    399e:	fd cf       	rjmp	.-6      	; 0x399a <_Z9send_datahh+0x1c>
     SPDR = byte;               // загрузили следующие данные
    39a0:	6e bd       	out	0x2e, r22	; 46
     while(!(SPSR & (1<<SPIF)));//подождем пока данные передадутся
    39a2:	0d b4       	in	r0, 0x2d	; 45
    39a4:	07 fe       	sbrs	r0, 7
    39a6:	fd cf       	rjmp	.-6      	; 0x39a2 <_Z9send_datahh+0x24>
     send_buf[10] = SPDR;       // таким образом происходит сброс регистра флага прерывания SPI, без сброса можем попасть в прерывание и все
    39a8:	8e b5       	in	r24, 0x2e	; 46
    39aa:	80 93 96 04 	sts	0x0496, r24	; 0x800496 <send_buf+0xa>
     SSON;                      // чип селект в единицу
    39ae:	28 9a       	sbi	0x05, 0	; 5
     spi_two_send = false;      //?? 
    39b0:	10 92 a3 04 	sts	0x04A3, r1	; 0x8004a3 <_ZL12spi_two_send>
     boolean.stop_spi = false;         
    39b4:	e9 e8       	ldi	r30, 0x89	; 137
    39b6:	f6 e0       	ldi	r31, 0x06	; 6
    39b8:	80 81       	ld	r24, Z
    39ba:	8b 7f       	andi	r24, 0xFB	; 251
    39bc:	80 83       	st	Z, r24
     SPCR |= 0x80;              // тут включим прерывания SPI
    39be:	8c b5       	in	r24, 0x2c	; 44
    39c0:	80 68       	ori	r24, 0x80	; 128
    39c2:	8c bd       	out	0x2c, r24	; 44
    39c4:	08 95       	ret

000039c6 <_Z12init_max7219v>:
   }    
}

void init_max7219 (void){         // инициализация индикаторов
     asm("nop");
    39c6:	00 00       	nop
     send_data ( 0x0F,  0x00);        // регистр тестирования индикатора
    39c8:	60 e0       	ldi	r22, 0x00	; 0
    39ca:	8f e0       	ldi	r24, 0x0F	; 15
    39cc:	d8 df       	rcall	.-80     	; 0x397e <_Z9send_datahh>
     send_data ( 0x0C,  0x01);        // регистр спящего режима
    39ce:	61 e0       	ldi	r22, 0x01	; 1
    39d0:	8c e0       	ldi	r24, 0x0C	; 12
    39d2:	d5 df       	rcall	.-86     	; 0x397e <_Z9send_datahh>
     send_data ( 0x0A,  0x0F);        // настройка яркости свечения
    39d4:	6f e0       	ldi	r22, 0x0F	; 15
    39d6:	8a e0       	ldi	r24, 0x0A	; 10
    39d8:	d2 df       	rcall	.-92     	; 0x397e <_Z9send_datahh>
     send_data ( 0x09,  0x00);        // регистр включения декодирования данных
    39da:	60 e0       	ldi	r22, 0x00	; 0
    39dc:	89 e0       	ldi	r24, 0x09	; 9
    39de:	cf df       	rcall	.-98     	; 0x397e <_Z9send_datahh>
     send_data ( 0x0B,  0x06);        // настройка количества активных элементов
    39e0:	66 e0       	ldi	r22, 0x06	; 6
    39e2:	8b e0       	ldi	r24, 0x0B	; 11
    39e4:	cc cf       	rjmp	.-104    	; 0x397e <_Z9send_datahh>
    39e6:	08 95       	ret

000039e8 <_Z10init_lightv>:
    39e8:	80 91 b3 05 	lds	r24, 0x05B3	; 0x8005b3 <param+0x1a>
}

void init_light (void)
{
     switch (param.lighte){           // настройка яркости свечения
    39ec:	81 30       	cpi	r24, 0x01	; 1
    39ee:	61 f0       	breq	.+24     	; 0x3a08 <_Z10init_lightv+0x20>
    39f0:	18 f0       	brcs	.+6      	; 0x39f8 <_Z10init_lightv+0x10>
    39f2:	82 30       	cpi	r24, 0x02	; 2
    39f4:	89 f0       	breq	.+34     	; 0x3a18 <_Z10init_lightv+0x30>
    39f6:	18 c0       	rjmp	.+48     	; 0x3a28 <_Z10init_lightv+0x40>
          case 0:  if (!spi_stop) send_data ( 0x0A,  0x04);break;
    39f8:	80 91 a0 04 	lds	r24, 0x04A0	; 0x8004a0 <spi_stop>
    39fc:	81 11       	cpse	r24, r1
    39fe:	1b c0       	rjmp	.+54     	; 0x3a36 <_Z10init_lightv+0x4e>
    3a00:	64 e0       	ldi	r22, 0x04	; 4
    3a02:	8a e0       	ldi	r24, 0x0A	; 10
    3a04:	bc cf       	rjmp	.-136    	; 0x397e <_Z9send_datahh>
    3a06:	08 95       	ret
          case 1:  if (!spi_stop) send_data ( 0x0A,  0x07);break;
    3a08:	80 91 a0 04 	lds	r24, 0x04A0	; 0x8004a0 <spi_stop>
    3a0c:	81 11       	cpse	r24, r1
    3a0e:	13 c0       	rjmp	.+38     	; 0x3a36 <_Z10init_lightv+0x4e>
    3a10:	67 e0       	ldi	r22, 0x07	; 7
    3a12:	8a e0       	ldi	r24, 0x0A	; 10
    3a14:	b4 cf       	rjmp	.-152    	; 0x397e <_Z9send_datahh>
    3a16:	08 95       	ret
          case 2:  if (!spi_stop) send_data ( 0x0A,  0x0F);break;
    3a18:	80 91 a0 04 	lds	r24, 0x04A0	; 0x8004a0 <spi_stop>
    3a1c:	81 11       	cpse	r24, r1
    3a1e:	0b c0       	rjmp	.+22     	; 0x3a36 <_Z10init_lightv+0x4e>
    3a20:	6f e0       	ldi	r22, 0x0F	; 15
    3a22:	8a e0       	ldi	r24, 0x0A	; 10
    3a24:	ac cf       	rjmp	.-168    	; 0x397e <_Z9send_datahh>
    3a26:	08 95       	ret
          default: if (!spi_stop) send_data ( 0x0A,  0x0F);break;
    3a28:	80 91 a0 04 	lds	r24, 0x04A0	; 0x8004a0 <spi_stop>
    3a2c:	81 11       	cpse	r24, r1
    3a2e:	03 c0       	rjmp	.+6      	; 0x3a36 <_Z10init_lightv+0x4e>
    3a30:	6f e0       	ldi	r22, 0x0F	; 15
    3a32:	8a e0       	ldi	r24, 0x0A	; 10
    3a34:	a4 cf       	rjmp	.-184    	; 0x397e <_Z9send_datahh>
    3a36:	08 95       	ret

00003a38 <_Z10indicationv>:
     }
}

void indication (void) {                      // индикация, сюда передаем буффер с символами которые нужно отобразить на экране
    3a38:	cf 93       	push	r28
    3a3a:	df 93       	push	r29
     send_data ( 0x01,  send_buf [4]);         // в разнобой потому что так разведена плата
    3a3c:	cc e8       	ldi	r28, 0x8C	; 140
    3a3e:	d4 e0       	ldi	r29, 0x04	; 4
    3a40:	6c 81       	ldd	r22, Y+4	; 0x04
    3a42:	81 e0       	ldi	r24, 0x01	; 1
    3a44:	9c df       	rcall	.-200    	; 0x397e <_Z9send_datahh>
     send_data ( 0x02,  send_buf [0]);
    3a46:	68 81       	ld	r22, Y
    3a48:	82 e0       	ldi	r24, 0x02	; 2
    3a4a:	99 df       	rcall	.-206    	; 0x397e <_Z9send_datahh>
     send_data ( 0x03,  send_buf [3]);
    3a4c:	6b 81       	ldd	r22, Y+3	; 0x03
    3a4e:	83 e0       	ldi	r24, 0x03	; 3
    3a50:	96 df       	rcall	.-212    	; 0x397e <_Z9send_datahh>
     send_data ( 0x04,  send_buf [2]);
    3a52:	6a 81       	ldd	r22, Y+2	; 0x02
    3a54:	84 e0       	ldi	r24, 0x04	; 4
    3a56:	93 df       	rcall	.-218    	; 0x397e <_Z9send_datahh>
     send_data ( 0x05,  send_buf [5]);
    3a58:	6d 81       	ldd	r22, Y+5	; 0x05
    3a5a:	85 e0       	ldi	r24, 0x05	; 5
    3a5c:	90 df       	rcall	.-224    	; 0x397e <_Z9send_datahh>
     send_data ( 0x06,  send_buf [1]);
    3a5e:	69 81       	ldd	r22, Y+1	; 0x01
    3a60:	86 e0       	ldi	r24, 0x06	; 6
    3a62:	8d df       	rcall	.-230    	; 0x397e <_Z9send_datahh>
     send_data ( 0x07,  send_buf [6]);          // это светики внизу
    3a64:	6e 81       	ldd	r22, Y+6	; 0x06
    3a66:	87 e0       	ldi	r24, 0x07	; 7
    3a68:	8a df       	rcall	.-236    	; 0x397e <_Z9send_datahh>
    3a6a:	df 91       	pop	r29
}
    3a6c:	cf 91       	pop	r28
    3a6e:	08 95       	ret

00003a70 <_Z11to_send_ledv>:
    3a70:	10 92 81 04 	sts	0x0481, r1	; 0x800481 <_ZZ11to_send_ledvE7caunter>
void to_send_led (void){                       // заменяем символы в буфере на понятные мах7219 символы и переносим их в другой буффер (это позволит вставлять точку куда попало)
     static uint8_t bufer;
     static uint8_t caunter;
     caunter = 0;
     for (int i = 0; i < 6; i ++){            // каждый раз очищаем буфер, чтоб не делать это в других местах
          buf_max7219 [i] = 0x00;
    3a74:	e2 e8       	ldi	r30, 0x82	; 130
    3a76:	f4 e0       	ldi	r31, 0x04	; 4
    3a78:	10 82       	st	Z, r1
    3a7a:	11 82       	std	Z+1, r1	; 0x01
    3a7c:	12 82       	std	Z+2, r1	; 0x02
    3a7e:	13 82       	std	Z+3, r1	; 0x03
    3a80:	14 82       	std	Z+4, r1	; 0x04
    3a82:	15 82       	std	Z+5, r1	; 0x05
     }
     for (int i = 0; i < 10; i ++){            // в цикле записываем новые данные в буффер
          bufer = send_buf[i];
    3a84:	e0 91 8c 04 	lds	r30, 0x048C	; 0x80048c <send_buf>
          if (bufer == 0) break;                                                             // если это ноль выйти из цикла
    3a88:	ee 23       	and	r30, r30
    3a8a:	09 f4       	brne	.+2      	; 0x3a8e <_Z11to_send_ledv+0x1e>
    3a8c:	55 c0       	rjmp	.+170    	; 0x3b38 <_Z11to_send_ledv+0xc8>
    3a8e:	21 e0       	ldi	r18, 0x01	; 1
    3a90:	30 e0       	ldi	r19, 0x00	; 0
    3a92:	40 e0       	ldi	r20, 0x00	; 0
    3a94:	50 e0       	ldi	r21, 0x00	; 0
    3a96:	60 e0       	ldi	r22, 0x00	; 0
    3a98:	0d c0       	rjmp	.+26     	; 0x3ab4 <_Z11to_send_ledv+0x44>
     caunter = 0;
     for (int i = 0; i < 6; i ++){            // каждый раз очищаем буфер, чтоб не делать это в других местах
          buf_max7219 [i] = 0x00;
     }
     for (int i = 0; i < 10; i ++){            // в цикле записываем новые данные в буффер
          bufer = send_buf[i];
    3a9a:	fc 01       	movw	r30, r24
    3a9c:	e4 57       	subi	r30, 0x74	; 116
    3a9e:	fb 4f       	sbci	r31, 0xFB	; 251
    3aa0:	e0 81       	ld	r30, Z
    3aa2:	4f 5f       	subi	r20, 0xFF	; 255
    3aa4:	5f 4f       	sbci	r21, 0xFF	; 255
    3aa6:	2f 5f       	subi	r18, 0xFF	; 255
    3aa8:	3f 4f       	sbci	r19, 0xFF	; 255
          if (bufer == 0) break;                                                             // если это ноль выйти из цикла
    3aaa:	e1 11       	cpse	r30, r1
    3aac:	03 c0       	rjmp	.+6      	; 0x3ab4 <_Z11to_send_ledv+0x44>
    3aae:	60 93 81 04 	sts	0x0481, r22	; 0x800481 <_ZZ11to_send_ledvE7caunter>
    3ab2:	42 c0       	rjmp	.+132    	; 0x3b38 <_Z11to_send_ledv+0xc8>
          if (bufer == 0x2E && i > 0) {buf_max7219[caunter-1] |= 0x80;  continue;}           // для спринтф если символ точка и он стоит не в нулевом сиволе то ставим точку предыдущему символу
    3ab4:	ee 32       	cpi	r30, 0x2E	; 46
    3ab6:	b9 f4       	brne	.+46     	; 0x3ae6 <_Z11to_send_ledv+0x76>
    3ab8:	ca 01       	movw	r24, r20
    3aba:	14 16       	cp	r1, r20
    3abc:	15 06       	cpc	r1, r21
    3abe:	44 f4       	brge	.+16     	; 0x3ad0 <_Z11to_send_ledv+0x60>
    3ac0:	e6 2f       	mov	r30, r22
    3ac2:	f0 e0       	ldi	r31, 0x00	; 0
    3ac4:	ef 57       	subi	r30, 0x7F	; 127
    3ac6:	fb 4f       	sbci	r31, 0xFB	; 251
    3ac8:	80 81       	ld	r24, Z
    3aca:	80 68       	ori	r24, 0x80	; 128
    3acc:	80 83       	st	Z, r24
    3ace:	1b c0       	rjmp	.+54     	; 0x3b06 <_Z11to_send_ledv+0x96>
          if (bufer == 0x2E && i == 0) {buf_max7219[caunter] |= 0x80;  continue;}	           // а если это нулевой символ то добавляем ему
    3ad0:	89 2b       	or	r24, r25
    3ad2:	49 f4       	brne	.+18     	; 0x3ae6 <_Z11to_send_ledv+0x76>
    3ad4:	e6 2f       	mov	r30, r22
    3ad6:	f0 e0       	ldi	r31, 0x00	; 0
    3ad8:	ee 57       	subi	r30, 0x7E	; 126
    3ada:	fb 4f       	sbci	r31, 0xFB	; 251
    3adc:	80 81       	ld	r24, Z
    3ade:	80 68       	ori	r24, 0x80	; 128
    3ae0:	80 83       	st	Z, r24
     static uint8_t caunter;
     caunter = 0;
     for (int i = 0; i < 6; i ++){            // каждый раз очищаем буфер, чтоб не делать это в других местах
          buf_max7219 [i] = 0x00;
     }
     for (int i = 0; i < 10; i ++){            // в цикле записываем новые данные в буффер
    3ae2:	c9 01       	movw	r24, r18
    3ae4:	da cf       	rjmp	.-76     	; 0x3a9a <_Z11to_send_ledv+0x2a>
          bufer = send_buf[i];
          if (bufer == 0) break;                                                             // если это ноль выйти из цикла
          if (bufer == 0x2E && i > 0) {buf_max7219[caunter-1] |= 0x80;  continue;}           // для спринтф если символ точка и он стоит не в нулевом сиволе то ставим точку предыдущему символу
          if (bufer == 0x2E && i == 0) {buf_max7219[caunter] |= 0x80;  continue;}	           // а если это нулевой символ то добавляем ему
          buf_max7219[caunter] = pgm_read_byte_near(&(tab_seg [bufer - 0x20]));              // минус код пробела
    3ae6:	86 2f       	mov	r24, r22
    3ae8:	90 e0       	ldi	r25, 0x00	; 0
    3aea:	f0 e0       	ldi	r31, 0x00	; 0
    3aec:	ed 55       	subi	r30, 0x5D	; 93
    3aee:	fc 4f       	sbci	r31, 0xFC	; 252
    3af0:	e4 91       	lpm	r30, Z
    3af2:	dc 01       	movw	r26, r24
    3af4:	ae 57       	subi	r26, 0x7E	; 126
    3af6:	bb 4f       	sbci	r27, 0xFB	; 251
    3af8:	ec 93       	st	X, r30
          if (caunter < 5)  caunter ++;                                                      // пока меньше 5 итерируем
    3afa:	65 30       	cpi	r22, 0x05	; 5
    3afc:	18 f0       	brcs	.+6      	; 0x3b04 <_Z11to_send_ledv+0x94>
    3afe:	60 93 81 04 	sts	0x0481, r22	; 0x800481 <_ZZ11to_send_ledvE7caunter>
    3b02:	1a c0       	rjmp	.+52     	; 0x3b38 <_Z11to_send_ledv+0xc8>
    3b04:	6f 5f       	subi	r22, 0xFF	; 255
     static uint8_t caunter;
     caunter = 0;
     for (int i = 0; i < 6; i ++){            // каждый раз очищаем буфер, чтоб не делать это в других местах
          buf_max7219 [i] = 0x00;
     }
     for (int i = 0; i < 10; i ++){            // в цикле записываем новые данные в буффер
    3b06:	c9 01       	movw	r24, r18
    3b08:	2a 30       	cpi	r18, 0x0A	; 10
    3b0a:	31 05       	cpc	r19, r1
    3b0c:	34 f2       	brlt	.-116    	; 0x3a9a <_Z11to_send_ledv+0x2a>
    3b0e:	60 93 81 04 	sts	0x0481, r22	; 0x800481 <_ZZ11to_send_ledvE7caunter>
    3b12:	12 c0       	rjmp	.+36     	; 0x3b38 <_Z11to_send_ledv+0xc8>
          if (caunter < 5)  caunter ++;                                                      // пока меньше 5 итерируем
          else break;                                                                        // в противном случае ливаем
     }
     if (tim_0 <=5000 && tim_0 > 0){                                                        // это моргание пока мы в диапазоне 0-5000 символ погашен
          for (int i = 0; i < 6; i ++){                                                      // в цикле сдвигаем биты в право и проверяем на 1. если это так то гасим этот символ
               if ((blink_led >> i) & 0x01 ) {buf_max7219 [i] =  0x00;}                      // сдвигаем в другую сторону так как символы с лева на право
    3b14:	9a 01       	movw	r18, r20
    3b16:	08 2e       	mov	r0, r24
    3b18:	02 c0       	rjmp	.+4      	; 0x3b1e <_Z11to_send_ledv+0xae>
    3b1a:	35 95       	asr	r19
    3b1c:	27 95       	ror	r18
    3b1e:	0a 94       	dec	r0
    3b20:	e2 f7       	brpl	.-8      	; 0x3b1a <_Z11to_send_ledv+0xaa>
    3b22:	20 ff       	sbrs	r18, 0
    3b24:	04 c0       	rjmp	.+8      	; 0x3b2e <_Z11to_send_ledv+0xbe>
    3b26:	fc 01       	movw	r30, r24
    3b28:	ee 57       	subi	r30, 0x7E	; 126
    3b2a:	fb 4f       	sbci	r31, 0xFB	; 251
    3b2c:	10 82       	st	Z, r1
          buf_max7219[caunter] = pgm_read_byte_near(&(tab_seg [bufer - 0x20]));              // минус код пробела
          if (caunter < 5)  caunter ++;                                                      // пока меньше 5 итерируем
          else break;                                                                        // в противном случае ливаем
     }
     if (tim_0 <=5000 && tim_0 > 0){                                                        // это моргание пока мы в диапазоне 0-5000 символ погашен
          for (int i = 0; i < 6; i ++){                                                      // в цикле сдвигаем биты в право и проверяем на 1. если это так то гасим этот символ
    3b2e:	01 96       	adiw	r24, 0x01	; 1
    3b30:	86 30       	cpi	r24, 0x06	; 6
    3b32:	91 05       	cpc	r25, r1
    3b34:	79 f7       	brne	.-34     	; 0x3b14 <_Z11to_send_ledv+0xa4>
    3b36:	08 95       	ret
          if (bufer == 0x2E && i == 0) {buf_max7219[caunter] |= 0x80;  continue;}	           // а если это нулевой символ то добавляем ему
          buf_max7219[caunter] = pgm_read_byte_near(&(tab_seg [bufer - 0x20]));              // минус код пробела
          if (caunter < 5)  caunter ++;                                                      // пока меньше 5 итерируем
          else break;                                                                        // в противном случае ливаем
     }
     if (tim_0 <=5000 && tim_0 > 0){                                                        // это моргание пока мы в диапазоне 0-5000 символ погашен
    3b38:	80 91 38 03 	lds	r24, 0x0338	; 0x800338 <tim_0>
    3b3c:	90 91 39 03 	lds	r25, 0x0339	; 0x800339 <tim_0+0x1>
    3b40:	01 97       	sbiw	r24, 0x01	; 1
    3b42:	88 38       	cpi	r24, 0x88	; 136
    3b44:	93 41       	sbci	r25, 0x13	; 19
    3b46:	30 f4       	brcc	.+12     	; 0x3b54 <_Z11to_send_ledv+0xe4>
          for (int i = 0; i < 6; i ++){                                                      // в цикле сдвигаем биты в право и проверяем на 1. если это так то гасим этот символ
               if ((blink_led >> i) & 0x01 ) {buf_max7219 [i] =  0x00;}                      // сдвигаем в другую сторону так как символы с лева на право
    3b48:	40 91 a1 04 	lds	r20, 0x04A1	; 0x8004a1 <_ZL9blink_led>
    3b4c:	50 e0       	ldi	r21, 0x00	; 0
    3b4e:	80 e0       	ldi	r24, 0x00	; 0
    3b50:	90 e0       	ldi	r25, 0x00	; 0
    3b52:	e0 cf       	rjmp	.-64     	; 0x3b14 <_Z11to_send_ledv+0xa4>
    3b54:	08 95       	ret

00003b56 <_Z12blink_simbolh>:

void blink_simbol (uint8_t namber)                                                        // моргание одним символом
{
     static uint8_t bias;                                                                  // создали переменную
     bias = 0x01;                                                                          // самый младший бит возвели в еденицу
     blink_led = bias << namber;                                                           // сдвинули его на такое количество как передали в функцию
    3b56:	91 e0       	ldi	r25, 0x01	; 1
    3b58:	01 c0       	rjmp	.+2      	; 0x3b5c <_Z12blink_simbolh+0x6>
    3b5a:	99 0f       	add	r25, r25
    3b5c:	8a 95       	dec	r24
    3b5e:	ea f7       	brpl	.-6      	; 0x3b5a <_Z12blink_simbolh+0x4>
    3b60:	90 93 a1 04 	sts	0x04A1, r25	; 0x8004a1 <_ZL9blink_led>
     if (tim_0 == 0) tim_0 = 10000;                                                        // сбросили таймер
    3b64:	80 91 38 03 	lds	r24, 0x0338	; 0x800338 <tim_0>
    3b68:	90 91 39 03 	lds	r25, 0x0339	; 0x800339 <tim_0+0x1>
    3b6c:	89 2b       	or	r24, r25
    3b6e:	31 f4       	brne	.+12     	; 0x3b7c <_Z12blink_simbolh+0x26>
    3b70:	80 e1       	ldi	r24, 0x10	; 16
    3b72:	97 e2       	ldi	r25, 0x27	; 39
    3b74:	90 93 39 03 	sts	0x0339, r25	; 0x800339 <tim_0+0x1>
    3b78:	80 93 38 03 	sts	0x0338, r24	; 0x800338 <tim_0>
    3b7c:	08 95       	ret

00003b7e <_Z17blink_many_simbolh>:
}

void blink_many_simbol (uint8_t namber)                                                   // моргание несколькими символами
{
     if (tim_0 == 0) tim_0 = 10000;                                                        // сбросили таймер
    3b7e:	20 91 38 03 	lds	r18, 0x0338	; 0x800338 <tim_0>
    3b82:	30 91 39 03 	lds	r19, 0x0339	; 0x800339 <tim_0+0x1>
    3b86:	23 2b       	or	r18, r19
    3b88:	31 f4       	brne	.+12     	; 0x3b96 <_Z17blink_many_simbolh+0x18>
    3b8a:	20 e1       	ldi	r18, 0x10	; 16
    3b8c:	37 e2       	ldi	r19, 0x27	; 39
    3b8e:	30 93 39 03 	sts	0x0339, r19	; 0x800339 <tim_0+0x1>
    3b92:	20 93 38 03 	sts	0x0338, r18	; 0x800338 <tim_0>
     blink_led = namber;                                                                   // записали нужные биты в переменную моргания
    3b96:	80 93 a1 04 	sts	0x04A1, r24	; 0x8004a1 <_ZL9blink_led>
    3b9a:	08 95       	ret

00003b9c <_Z10send_pointh>:
}

void send_point (uint8_t point)
{
     buf_max7219 [6] |= pgm_read_byte_near(&(tab_seg [point]));           // поставить точку под экраном (считываем из памяти нужный символ и загружаем сюда)
    3b9c:	e8 2f       	mov	r30, r24
    3b9e:	f0 e0       	ldi	r31, 0x00	; 0
    3ba0:	ed 53       	subi	r30, 0x3D	; 61
    3ba2:	fc 4f       	sbci	r31, 0xFC	; 252
    3ba4:	e4 91       	lpm	r30, Z
    3ba6:	a2 e8       	ldi	r26, 0x82	; 130
    3ba8:	b4 e0       	ldi	r27, 0x04	; 4
    3baa:	16 96       	adiw	r26, 0x06	; 6
    3bac:	8c 91       	ld	r24, X
    3bae:	16 97       	sbiw	r26, 0x06	; 6
    3bb0:	e8 2b       	or	r30, r24
    3bb2:	16 96       	adiw	r26, 0x06	; 6
    3bb4:	ec 93       	st	X, r30
    3bb6:	08 95       	ret

00003bb8 <_Z14send_non_pointh>:
}

void send_non_point (uint8_t point)
{
     buf_max7219 [6] &= ~ pgm_read_byte_near(&(tab_seg [point]));	     // убрать точку под экраном 
    3bb8:	e8 2f       	mov	r30, r24
    3bba:	f0 e0       	ldi	r31, 0x00	; 0
    3bbc:	ed 53       	subi	r30, 0x3D	; 61
    3bbe:	fc 4f       	sbci	r31, 0xFC	; 252
    3bc0:	e4 91       	lpm	r30, Z
    3bc2:	a2 e8       	ldi	r26, 0x82	; 130
    3bc4:	b4 e0       	ldi	r27, 0x04	; 4
    3bc6:	16 96       	adiw	r26, 0x06	; 6
    3bc8:	8c 91       	ld	r24, X
    3bca:	16 97       	sbiw	r26, 0x06	; 6
    3bcc:	e0 95       	com	r30
    3bce:	e8 23       	and	r30, r24
    3bd0:	16 96       	adiw	r26, 0x06	; 6
    3bd2:	ec 93       	st	X, r30
    3bd4:	08 95       	ret

00003bd6 <_Z7led_ledv>:
}

void led_led (void)                                                      // погасить все точки
{
     buf_max7219 [6] = 0x00;  
    3bd6:	10 92 88 04 	sts	0x0488, r1	; 0x800488 <_ZL11buf_max7219+0x6>
    3bda:	08 95       	ret

00003bdc <_Z13interupt_sendv>:


void interupt_send (void)            // функция для передачи посылки мах7219 через прерывания SPI
{
     static uint8_t spi_caunter ;     // счетчик для перемещения по кейсам
     if (!spi_stop && !boolean.stop_spi) {                 // если у нас еще не отправлен второй байт то запрещаем сюда заходить
    3bdc:	80 91 a0 04 	lds	r24, 0x04A0	; 0x8004a0 <spi_stop>
    3be0:	81 11       	cpse	r24, r1
    3be2:	65 c0       	rjmp	.+202    	; 0x3cae <_Z13interupt_sendv+0xd2>
    3be4:	80 91 89 06 	lds	r24, 0x0689	; 0x800689 <boolean+0x2>
    3be8:	82 ff       	sbrs	r24, 2
    3bea:	51 c0       	rjmp	.+162    	; 0x3c8e <_Z13interupt_sendv+0xb2>
    3bec:	08 95       	ret
          spi_stop = true;             // если зашли то поднимаем флаг чтоб не заходить пока он не сбросится в прерывании
          switch (spi_caunter){        // свитч для передачи символов, каждый раз передается новый
               case (0):
               spi_two_send = false;    // опустили флаг чтоб в прерывании передать фторой байт
    3bee:	10 92 a3 04 	sts	0x04A3, r1	; 0x8004a3 <_ZL12spi_two_send>
               SSOFF;                   // чип селект в ноль
    3bf2:	28 98       	cbi	0x05, 0	; 5
               SPDR = 0x01;             // загружаем данные для первого символа
    3bf4:	81 e0       	ldi	r24, 0x01	; 1
    3bf6:	8e bd       	out	0x2e, r24	; 46
               spi_send = buf_max7219 [4]; // и в память заносим данные для передачи первому регистру
    3bf8:	80 91 86 04 	lds	r24, 0x0486	; 0x800486 <_ZL11buf_max7219+0x4>
    3bfc:	80 93 a2 04 	sts	0x04A2, r24	; 0x8004a2 <_ZL8spi_send>
               break;
    3c00:	3b c0       	rjmp	.+118    	; 0x3c78 <_Z13interupt_sendv+0x9c>
               case (1):
               spi_two_send = false;
    3c02:	10 92 a3 04 	sts	0x04A3, r1	; 0x8004a3 <_ZL12spi_two_send>
               SSOFF;
    3c06:	28 98       	cbi	0x05, 0	; 5
               SPDR = 0x02;
    3c08:	82 e0       	ldi	r24, 0x02	; 2
    3c0a:	8e bd       	out	0x2e, r24	; 46
               spi_send = buf_max7219 [0];
    3c0c:	80 91 82 04 	lds	r24, 0x0482	; 0x800482 <_ZL11buf_max7219>
    3c10:	80 93 a2 04 	sts	0x04A2, r24	; 0x8004a2 <_ZL8spi_send>
               break;
    3c14:	31 c0       	rjmp	.+98     	; 0x3c78 <_Z13interupt_sendv+0x9c>
               case (2):
               spi_two_send = false;
    3c16:	10 92 a3 04 	sts	0x04A3, r1	; 0x8004a3 <_ZL12spi_two_send>
               SSOFF;
    3c1a:	28 98       	cbi	0x05, 0	; 5
               SPDR = 0x03;
    3c1c:	83 e0       	ldi	r24, 0x03	; 3
    3c1e:	8e bd       	out	0x2e, r24	; 46
               spi_send = buf_max7219 [3];
    3c20:	80 91 85 04 	lds	r24, 0x0485	; 0x800485 <_ZL11buf_max7219+0x3>
    3c24:	80 93 a2 04 	sts	0x04A2, r24	; 0x8004a2 <_ZL8spi_send>
               break;
    3c28:	27 c0       	rjmp	.+78     	; 0x3c78 <_Z13interupt_sendv+0x9c>
               case (3):
               spi_two_send = false;
    3c2a:	10 92 a3 04 	sts	0x04A3, r1	; 0x8004a3 <_ZL12spi_two_send>
               SSOFF;
    3c2e:	28 98       	cbi	0x05, 0	; 5
               SPDR = 0x04;
    3c30:	84 e0       	ldi	r24, 0x04	; 4
    3c32:	8e bd       	out	0x2e, r24	; 46
               spi_send = buf_max7219 [2];
    3c34:	80 91 84 04 	lds	r24, 0x0484	; 0x800484 <_ZL11buf_max7219+0x2>
    3c38:	80 93 a2 04 	sts	0x04A2, r24	; 0x8004a2 <_ZL8spi_send>
               break;
    3c3c:	1d c0       	rjmp	.+58     	; 0x3c78 <_Z13interupt_sendv+0x9c>
               case (4):
               spi_two_send = false;
    3c3e:	10 92 a3 04 	sts	0x04A3, r1	; 0x8004a3 <_ZL12spi_two_send>
               SSOFF;
    3c42:	28 98       	cbi	0x05, 0	; 5
               SPDR = 0x05;
    3c44:	85 e0       	ldi	r24, 0x05	; 5
    3c46:	8e bd       	out	0x2e, r24	; 46
               spi_send = buf_max7219 [5];
    3c48:	80 91 87 04 	lds	r24, 0x0487	; 0x800487 <_ZL11buf_max7219+0x5>
    3c4c:	80 93 a2 04 	sts	0x04A2, r24	; 0x8004a2 <_ZL8spi_send>
               break;
    3c50:	13 c0       	rjmp	.+38     	; 0x3c78 <_Z13interupt_sendv+0x9c>
               case (5):
               spi_two_send = false;
    3c52:	10 92 a3 04 	sts	0x04A3, r1	; 0x8004a3 <_ZL12spi_two_send>
               SSOFF;
    3c56:	28 98       	cbi	0x05, 0	; 5
               SPDR = 0x06;
    3c58:	86 e0       	ldi	r24, 0x06	; 6
    3c5a:	8e bd       	out	0x2e, r24	; 46
               spi_send = buf_max7219 [1];
    3c5c:	80 91 83 04 	lds	r24, 0x0483	; 0x800483 <_ZL11buf_max7219+0x1>
    3c60:	80 93 a2 04 	sts	0x04A2, r24	; 0x8004a2 <_ZL8spi_send>
               break;
    3c64:	09 c0       	rjmp	.+18     	; 0x3c78 <_Z13interupt_sendv+0x9c>
               case (6):
               spi_two_send = false;
    3c66:	10 92 a3 04 	sts	0x04A3, r1	; 0x8004a3 <_ZL12spi_two_send>
               SSOFF;
    3c6a:	28 98       	cbi	0x05, 0	; 5
               SPDR = 0x07;
    3c6c:	87 e0       	ldi	r24, 0x07	; 7
    3c6e:	8e bd       	out	0x2e, r24	; 46
               spi_send = buf_max7219 [6];
    3c70:	80 91 88 04 	lds	r24, 0x0488	; 0x800488 <_ZL11buf_max7219+0x6>
    3c74:	80 93 a2 04 	sts	0x04A2, r24	; 0x8004a2 <_ZL8spi_send>
               break;
          }
          spi_caunter ++;           // увеличиваем счетчик
    3c78:	80 91 80 04 	lds	r24, 0x0480	; 0x800480 <_ZZ13interupt_sendvE11spi_caunter>
    3c7c:	8f 5f       	subi	r24, 0xFF	; 255
          if (spi_caunter > 6) spi_caunter = 0;
    3c7e:	87 30       	cpi	r24, 0x07	; 7
    3c80:	18 f4       	brcc	.+6      	; 0x3c88 <_Z13interupt_sendv+0xac>
               SSOFF;
               SPDR = 0x07;
               spi_send = buf_max7219 [6];
               break;
          }
          spi_caunter ++;           // увеличиваем счетчик
    3c82:	80 93 80 04 	sts	0x0480, r24	; 0x800480 <_ZZ13interupt_sendvE11spi_caunter>
    3c86:	08 95       	ret
          if (spi_caunter > 6) spi_caunter = 0;
    3c88:	10 92 80 04 	sts	0x0480, r1	; 0x800480 <_ZZ13interupt_sendvE11spi_caunter>
     }
}
    3c8c:	08 95       	ret

void interupt_send (void)            // функция для передачи посылки мах7219 через прерывания SPI
{
     static uint8_t spi_caunter ;     // счетчик для перемещения по кейсам
     if (!spi_stop && !boolean.stop_spi) {                 // если у нас еще не отправлен второй байт то запрещаем сюда заходить
          spi_stop = true;             // если зашли то поднимаем флаг чтоб не заходить пока он не сбросится в прерывании
    3c8e:	81 e0       	ldi	r24, 0x01	; 1
    3c90:	80 93 a0 04 	sts	0x04A0, r24	; 0x8004a0 <spi_stop>
          switch (spi_caunter){        // свитч для передачи символов, каждый раз передается новый
    3c94:	80 91 80 04 	lds	r24, 0x0480	; 0x800480 <_ZZ13interupt_sendvE11spi_caunter>
    3c98:	90 e0       	ldi	r25, 0x00	; 0
    3c9a:	87 30       	cpi	r24, 0x07	; 7
    3c9c:	91 05       	cpc	r25, r1
    3c9e:	60 f7       	brcc	.-40     	; 0x3c78 <_Z13interupt_sendv+0x9c>
    3ca0:	fc 01       	movw	r30, r24
    3ca2:	88 27       	eor	r24, r24
    3ca4:	e2 58       	subi	r30, 0x82	; 130
    3ca6:	ff 4f       	sbci	r31, 0xFF	; 255
    3ca8:	8f 4f       	sbci	r24, 0xFF	; 255
    3caa:	0c 94 e2 44 	jmp	0x89c4	; 0x89c4 <__tablejump2__>
    3cae:	08 95       	ret

00003cb0 <__vector_24>:
          spi_caunter ++;           // увеличиваем счетчик
          if (spi_caunter > 6) spi_caunter = 0;
     }
}

ISR (SPI_STC_vect) {
    3cb0:	1f 92       	push	r1
    3cb2:	0f 92       	push	r0
    3cb4:	0f b6       	in	r0, 0x3f	; 63
    3cb6:	0f 92       	push	r0
    3cb8:	11 24       	eor	r1, r1
    3cba:	8f 93       	push	r24
     if (!spi_two_send){          // если опущен флаг второй посылки, значит нужно ее отправить
    3cbc:	80 91 a3 04 	lds	r24, 0x04A3	; 0x8004a3 <_ZL12spi_two_send>
    3cc0:	81 11       	cpse	r24, r1
    3cc2:	07 c0       	rjmp	.+14     	; 0x3cd2 <__vector_24+0x22>
          SPDR = spi_send;
    3cc4:	80 91 a2 04 	lds	r24, 0x04A2	; 0x8004a2 <_ZL8spi_send>
    3cc8:	8e bd       	out	0x2e, r24	; 46
          spi_two_send = true;     // и поднять флаг что это сделали
    3cca:	81 e0       	ldi	r24, 0x01	; 1
    3ccc:	80 93 a3 04 	sts	0x04A3, r24	; 0x8004a3 <_ZL12spi_two_send>
    3cd0:	03 c0       	rjmp	.+6      	; 0x3cd8 <__vector_24+0x28>
     }
     else { SSON; spi_stop = false;}   // если мы попадаем в прерывание второй раз то поднимаем чип селект и поднимаем флаг что можно отправлять следующий символ
    3cd2:	28 9a       	sbi	0x05, 0	; 5
    3cd4:	10 92 a0 04 	sts	0x04A0, r1	; 0x8004a0 <spi_stop>
}
    3cd8:	8f 91       	pop	r24
    3cda:	0f 90       	pop	r0
    3cdc:	0f be       	out	0x3f, r0	; 63
    3cde:	0f 90       	pop	r0
    3ce0:	1f 90       	pop	r1
    3ce2:	18 95       	reti

00003ce4 <_Z9void_funcv>:
        }
	}	
}

void void_func (void)                   // пустая функция-затычка для структуры меню
{
    3ce4:	08 95       	ret

00003ce6 <_Z6ver_pov>:
	}
}

void ver_po (void)                   // показать версию ПО. пока топорно
{
	sprintf(send_buf, "UER1.00" );   // печатаем версию
    3ce6:	88 e0       	ldi	r24, 0x08	; 8
    3ce8:	ed e2       	ldi	r30, 0x2D	; 45
    3cea:	f2 e0       	ldi	r31, 0x02	; 2
    3cec:	ac e8       	ldi	r26, 0x8C	; 140
    3cee:	b4 e0       	ldi	r27, 0x04	; 4
    3cf0:	01 90       	ld	r0, Z+
    3cf2:	0d 92       	st	X+, r0
    3cf4:	8a 95       	dec	r24
    3cf6:	e1 f7       	brne	.-8      	; 0x3cf0 <_Z6ver_pov+0xa>
    3cf8:	08 95       	ret

00003cfa <_Z8send_adcv>:
}

void send_adc (void)                 // показать напряжение АКБ в вольтах
{
    3cfa:	ff 92       	push	r15
    3cfc:	0f 93       	push	r16
    3cfe:	1f 93       	push	r17
    3d00:	cf 93       	push	r28
    3d02:	df 93       	push	r29
    static uint8_t caunter_filtr;
    static double filtrs_adc [10];
    static double n;        // создали дабл переменную для хранения промежуточного вычисления
	if (tim_1 == 0) {  
    3d04:	80 91 36 03 	lds	r24, 0x0336	; 0x800336 <tim_1>
    3d08:	90 91 37 03 	lds	r25, 0x0337	; 0x800337 <tim_1+0x1>
    3d0c:	89 2b       	or	r24, r25
    3d0e:	09 f0       	breq	.+2      	; 0x3d12 <_Z8send_adcv+0x18>
    3d10:	80 c0       	rjmp	.+256    	; 0x3e12 <_Z8send_adcv+0x118>
    filtrs_adc[caunter_filtr] = (double) adc / 71;   
    3d12:	f0 90 00 05 	lds	r15, 0x0500	; 0x800500 <_ZZ8send_adcvE13caunter_filtr>
    3d16:	cf 2d       	mov	r28, r15
    3d18:	d0 e0       	ldi	r29, 0x00	; 0
    3d1a:	cc 0f       	add	r28, r28
    3d1c:	dd 1f       	adc	r29, r29
    3d1e:	cc 0f       	add	r28, r28
    3d20:	dd 1f       	adc	r29, r29
    3d22:	c8 52       	subi	r28, 0x28	; 40
    3d24:	db 4f       	sbci	r29, 0xFB	; 251
    3d26:	60 91 3e 03 	lds	r22, 0x033E	; 0x80033e <adc>
    3d2a:	70 91 3f 03 	lds	r23, 0x033F	; 0x80033f <adc+0x1>
    3d2e:	80 e0       	ldi	r24, 0x00	; 0
    3d30:	90 e0       	ldi	r25, 0x00	; 0
    3d32:	0e 94 7c 43 	call	0x86f8	; 0x86f8 <__floatunsisf>
    3d36:	20 e0       	ldi	r18, 0x00	; 0
    3d38:	30 e0       	ldi	r19, 0x00	; 0
    3d3a:	4e e8       	ldi	r20, 0x8E	; 142
    3d3c:	52 e4       	ldi	r21, 0x42	; 66
    3d3e:	0e 94 e3 42 	call	0x85c6	; 0x85c6 <__divsf3>
    3d42:	68 83       	st	Y, r22
    3d44:	79 83       	std	Y+1, r23	; 0x01
    3d46:	8a 83       	std	Y+2, r24	; 0x02
    3d48:	9b 83       	std	Y+3, r25	; 0x03
    3d4a:	60 91 d4 04 	lds	r22, 0x04D4	; 0x8004d4 <_ZZ8send_adcvE1n>
    3d4e:	70 91 d5 04 	lds	r23, 0x04D5	; 0x8004d5 <_ZZ8send_adcvE1n+0x1>
    3d52:	80 91 d6 04 	lds	r24, 0x04D6	; 0x8004d6 <_ZZ8send_adcvE1n+0x2>
    3d56:	90 91 d7 04 	lds	r25, 0x04D7	; 0x8004d7 <_ZZ8send_adcvE1n+0x3>
    3d5a:	c8 ed       	ldi	r28, 0xD8	; 216
    3d5c:	d4 e0       	ldi	r29, 0x04	; 4
    3d5e:	00 e0       	ldi	r16, 0x00	; 0
    3d60:	15 e0       	ldi	r17, 0x05	; 5
    for (int i = 0; i < 10; i ++) { n += filtrs_adc[i];}  
    3d62:	29 91       	ld	r18, Y+
    3d64:	39 91       	ld	r19, Y+
    3d66:	49 91       	ld	r20, Y+
    3d68:	59 91       	ld	r21, Y+
    3d6a:	0e 94 7b 42 	call	0x84f6	; 0x84f6 <__addsf3>
    3d6e:	c0 17       	cp	r28, r16
    3d70:	d1 07       	cpc	r29, r17
    3d72:	b9 f7       	brne	.-18     	; 0x3d62 <_Z8send_adcv+0x68>
    n = n / 10;  
    3d74:	20 e0       	ldi	r18, 0x00	; 0
    3d76:	30 e0       	ldi	r19, 0x00	; 0
    3d78:	40 e2       	ldi	r20, 0x20	; 32
    3d7a:	51 e4       	ldi	r21, 0x41	; 65
    3d7c:	0e 94 e3 42 	call	0x85c6	; 0x85c6 <__divsf3>
    3d80:	36 2f       	mov	r19, r22
    3d82:	e7 2f       	mov	r30, r23
    3d84:	46 2f       	mov	r20, r22
    3d86:	57 2f       	mov	r21, r23
    3d88:	68 2f       	mov	r22, r24
    3d8a:	79 2f       	mov	r23, r25
    3d8c:	40 93 d4 04 	sts	0x04D4, r20	; 0x8004d4 <_ZZ8send_adcvE1n>
    3d90:	50 93 d5 04 	sts	0x04D5, r21	; 0x8004d5 <_ZZ8send_adcvE1n+0x1>
    3d94:	60 93 d6 04 	sts	0x04D6, r22	; 0x8004d6 <_ZZ8send_adcvE1n+0x2>
    3d98:	70 93 d7 04 	sts	0x04D7, r23	; 0x8004d7 <_ZZ8send_adcvE1n+0x3>
    caunter_filtr ++;   
    3d9c:	21 e0       	ldi	r18, 0x01	; 1
    3d9e:	2f 0d       	add	r18, r15
    if (caunter_filtr == 10 )  caunter_filtr = 0;        
    3da0:	2a 30       	cpi	r18, 0x0A	; 10
    3da2:	19 f0       	breq	.+6      	; 0x3daa <_Z8send_adcv+0xb0>
    static double n;        // создали дабл переменную для хранения промежуточного вычисления
	if (tim_1 == 0) {  
    filtrs_adc[caunter_filtr] = (double) adc / 71;   
    for (int i = 0; i < 10; i ++) { n += filtrs_adc[i];}  
    n = n / 10;  
    caunter_filtr ++;   
    3da4:	20 93 00 05 	sts	0x0500, r18	; 0x800500 <_ZZ8send_adcvE13caunter_filtr>
    3da8:	02 c0       	rjmp	.+4      	; 0x3dae <_Z8send_adcv+0xb4>
    if (caunter_filtr == 10 )  caunter_filtr = 0;        
    3daa:	10 92 00 05 	sts	0x0500, r1	; 0x800500 <_ZZ8send_adcvE13caunter_filtr>
	sprintf (send_buf, "BAT%04.1f" ,  n );   // функция вывода 
    3dae:	9f 93       	push	r25
    3db0:	8f 93       	push	r24
    3db2:	ef 93       	push	r30
    3db4:	3f 93       	push	r19
    3db6:	85 e3       	ldi	r24, 0x35	; 53
    3db8:	92 e0       	ldi	r25, 0x02	; 2
    3dba:	9f 93       	push	r25
    3dbc:	8f 93       	push	r24
    3dbe:	8c e8       	ldi	r24, 0x8C	; 140
    3dc0:	94 e0       	ldi	r25, 0x04	; 4
    3dc2:	9f 93       	push	r25
    3dc4:	8f 93       	push	r24
    3dc6:	0e 94 79 46 	call	0x8cf2	; 0x8cf2 <sprintf>
	if(filtrs_adc [9] == 0) {tim_1 = 500;} else {tim_1 = 5000;}}          // пока в последнем символе 0 очень быстро набрать
    3dca:	8d b7       	in	r24, 0x3d	; 61
    3dcc:	9e b7       	in	r25, 0x3e	; 62
    3dce:	08 96       	adiw	r24, 0x08	; 8
    3dd0:	0f b6       	in	r0, 0x3f	; 63
    3dd2:	f8 94       	cli
    3dd4:	9e bf       	out	0x3e, r25	; 62
    3dd6:	0f be       	out	0x3f, r0	; 63
    3dd8:	8d bf       	out	0x3d, r24	; 61
    3dda:	20 e0       	ldi	r18, 0x00	; 0
    3ddc:	30 e0       	ldi	r19, 0x00	; 0
    3dde:	a9 01       	movw	r20, r18
    3de0:	60 91 fc 04 	lds	r22, 0x04FC	; 0x8004fc <_ZZ8send_adcvE10filtrs_adc+0x24>
    3de4:	70 91 fd 04 	lds	r23, 0x04FD	; 0x8004fd <_ZZ8send_adcvE10filtrs_adc+0x25>
    3de8:	80 91 fe 04 	lds	r24, 0x04FE	; 0x8004fe <_ZZ8send_adcvE10filtrs_adc+0x26>
    3dec:	90 91 ff 04 	lds	r25, 0x04FF	; 0x8004ff <_ZZ8send_adcvE10filtrs_adc+0x27>
    3df0:	0e 94 df 42 	call	0x85be	; 0x85be <__cmpsf2>
    3df4:	81 11       	cpse	r24, r1
    3df6:	07 c0       	rjmp	.+14     	; 0x3e06 <_Z8send_adcv+0x10c>
    3df8:	84 ef       	ldi	r24, 0xF4	; 244
    3dfa:	91 e0       	ldi	r25, 0x01	; 1
    3dfc:	90 93 37 03 	sts	0x0337, r25	; 0x800337 <tim_1+0x1>
    3e00:	80 93 36 03 	sts	0x0336, r24	; 0x800336 <tim_1>
    3e04:	06 c0       	rjmp	.+12     	; 0x3e12 <_Z8send_adcv+0x118>
    3e06:	88 e8       	ldi	r24, 0x88	; 136
    3e08:	93 e1       	ldi	r25, 0x13	; 19
    3e0a:	90 93 37 03 	sts	0x0337, r25	; 0x800337 <tim_1+0x1>
    3e0e:	80 93 36 03 	sts	0x0336, r24	; 0x800336 <tim_1>
}
    3e12:	df 91       	pop	r29
    3e14:	cf 91       	pop	r28
    3e16:	1f 91       	pop	r17
    3e18:	0f 91       	pop	r16
    3e1a:	ff 90       	pop	r15
    3e1c:	08 95       	ret

00003e1e <_Z16caunter_weighingv>:

void caunter_weighing (void)         // счетчик взвешиваний пока не реализовано
{
	sprintf(send_buf, "%06lu" , (uint32_t) param.caunter_weight );
    3e1e:	e9 e9       	ldi	r30, 0x99	; 153
    3e20:	f5 e0       	ldi	r31, 0x05	; 5
    3e22:	83 81       	ldd	r24, Z+3	; 0x03
    3e24:	8f 93       	push	r24
    3e26:	82 81       	ldd	r24, Z+2	; 0x02
    3e28:	8f 93       	push	r24
    3e2a:	81 81       	ldd	r24, Z+1	; 0x01
    3e2c:	8f 93       	push	r24
    3e2e:	80 81       	ld	r24, Z
    3e30:	8f 93       	push	r24
    3e32:	8f e0       	ldi	r24, 0x0F	; 15
    3e34:	92 e0       	ldi	r25, 0x02	; 2
    3e36:	9f 93       	push	r25
    3e38:	8f 93       	push	r24
    3e3a:	8c e8       	ldi	r24, 0x8C	; 140
    3e3c:	94 e0       	ldi	r25, 0x04	; 4
    3e3e:	9f 93       	push	r25
    3e40:	8f 93       	push	r24
    3e42:	0e 94 79 46 	call	0x8cf2	; 0x8cf2 <sprintf>
}
    3e46:	8d b7       	in	r24, 0x3d	; 61
    3e48:	9e b7       	in	r25, 0x3e	; 62
    3e4a:	08 96       	adiw	r24, 0x08	; 8
    3e4c:	0f b6       	in	r0, 0x3f	; 63
    3e4e:	f8 94       	cli
    3e50:	9e bf       	out	0x3e, r25	; 62
    3e52:	0f be       	out	0x3f, r0	; 63
    3e54:	8d bf       	out	0x3d, r24	; 61
    3e56:	08 95       	ret

00003e58 <_Z5lightv>:
{
    enter_8bit (1,5,&param.filtr,EE_FILTR,1);  
}

void light (void)                       // настройка яркости
{
    3e58:	cf 93       	push	r28
    3e5a:	df 93       	push	r29
	if (!change_item){
    3e5c:	80 91 d8 05 	lds	r24, 0x05D8	; 0x8005d8 <change_item>
    3e60:	81 11       	cpse	r24, r1
    3e62:	2a c0       	rjmp	.+84     	; 0x3eb8 <_Z5lightv+0x60>
		if (button_press (KEY_ENTER)) {change_item = true;}
    3e64:	8b e3       	ldi	r24, 0x3B	; 59
    3e66:	0e 94 c6 09 	call	0x138c	; 0x138c <_Z12button_pressh>
    3e6a:	88 23       	and	r24, r24
    3e6c:	19 f0       	breq	.+6      	; 0x3e74 <_Z5lightv+0x1c>
    3e6e:	81 e0       	ldi	r24, 0x01	; 1
    3e70:	80 93 d8 05 	sts	0x05D8, r24	; 0x8005d8 <change_item>
		sprintf(send_buf, "     %01lu" , (uint32_t) param.lighte );mirror_data_8bit = param.lighte;
    3e74:	c9 e9       	ldi	r28, 0x99	; 153
    3e76:	d5 e0       	ldi	r29, 0x05	; 5
    3e78:	8a 8d       	ldd	r24, Y+26	; 0x1a
    3e7a:	1f 92       	push	r1
    3e7c:	1f 92       	push	r1
    3e7e:	1f 92       	push	r1
    3e80:	8f 93       	push	r24
    3e82:	8f e3       	ldi	r24, 0x3F	; 63
    3e84:	92 e0       	ldi	r25, 0x02	; 2
    3e86:	9f 93       	push	r25
    3e88:	8f 93       	push	r24
    3e8a:	8c e8       	ldi	r24, 0x8C	; 140
    3e8c:	94 e0       	ldi	r25, 0x04	; 4
    3e8e:	9f 93       	push	r25
    3e90:	8f 93       	push	r24
    3e92:	0e 94 79 46 	call	0x8cf2	; 0x8cf2 <sprintf>
    3e96:	8a 8d       	ldd	r24, Y+26	; 0x1a
    3e98:	80 93 d4 05 	sts	0x05D4, r24	; 0x8005d4 <mirror_data_8bit>
	}
	if (change_item){
    3e9c:	2d b7       	in	r18, 0x3d	; 61
    3e9e:	3e b7       	in	r19, 0x3e	; 62
    3ea0:	28 5f       	subi	r18, 0xF8	; 248
    3ea2:	3f 4f       	sbci	r19, 0xFF	; 255
    3ea4:	0f b6       	in	r0, 0x3f	; 63
    3ea6:	f8 94       	cli
    3ea8:	3e bf       	out	0x3e, r19	; 62
    3eaa:	0f be       	out	0x3f, r0	; 63
    3eac:	2d bf       	out	0x3d, r18	; 61
    3eae:	80 91 d8 05 	lds	r24, 0x05D8	; 0x8005d8 <change_item>
    3eb2:	88 23       	and	r24, r24
    3eb4:	09 f4       	brne	.+2      	; 0x3eb8 <_Z5lightv+0x60>
    3eb6:	5d c0       	rjmp	.+186    	; 0x3f72 <_Z5lightv+0x11a>
		if (button_press (KEY_UP)) { if (mirror_data_8bit < 2) mirror_data_8bit ++;  }
    3eb8:	8e e3       	ldi	r24, 0x3E	; 62
    3eba:	0e 94 c6 09 	call	0x138c	; 0x138c <_Z12button_pressh>
    3ebe:	88 23       	and	r24, r24
    3ec0:	39 f0       	breq	.+14     	; 0x3ed0 <_Z5lightv+0x78>
    3ec2:	80 91 d4 05 	lds	r24, 0x05D4	; 0x8005d4 <mirror_data_8bit>
    3ec6:	82 30       	cpi	r24, 0x02	; 2
    3ec8:	18 f4       	brcc	.+6      	; 0x3ed0 <_Z5lightv+0x78>
    3eca:	8f 5f       	subi	r24, 0xFF	; 255
    3ecc:	80 93 d4 05 	sts	0x05D4, r24	; 0x8005d4 <mirror_data_8bit>
		if (button_press (KEY_DOWN)) {if (mirror_data_8bit > 0) mirror_data_8bit --; }
    3ed0:	8f e1       	ldi	r24, 0x1F	; 31
    3ed2:	0e 94 c6 09 	call	0x138c	; 0x138c <_Z12button_pressh>
    3ed6:	88 23       	and	r24, r24
    3ed8:	39 f0       	breq	.+14     	; 0x3ee8 <_Z5lightv+0x90>
    3eda:	80 91 d4 05 	lds	r24, 0x05D4	; 0x8005d4 <mirror_data_8bit>
    3ede:	88 23       	and	r24, r24
    3ee0:	19 f0       	breq	.+6      	; 0x3ee8 <_Z5lightv+0x90>
    3ee2:	81 50       	subi	r24, 0x01	; 1
    3ee4:	80 93 d4 05 	sts	0x05D4, r24	; 0x8005d4 <mirror_data_8bit>
		blink_simbol (5);
    3ee8:	85 e0       	ldi	r24, 0x05	; 5
    3eea:	35 de       	rcall	.-918    	; 0x3b56 <_Z12blink_simbolh>
		sprintf(send_buf, "     %01lu"  ,(uint32_t) mirror_data_8bit );
    3eec:	80 91 d4 05 	lds	r24, 0x05D4	; 0x8005d4 <mirror_data_8bit>
    3ef0:	1f 92       	push	r1
    3ef2:	1f 92       	push	r1
    3ef4:	1f 92       	push	r1
    3ef6:	8f 93       	push	r24
    3ef8:	8f e3       	ldi	r24, 0x3F	; 63
    3efa:	92 e0       	ldi	r25, 0x02	; 2
    3efc:	9f 93       	push	r25
    3efe:	8f 93       	push	r24
    3f00:	8c e8       	ldi	r24, 0x8C	; 140
    3f02:	94 e0       	ldi	r25, 0x04	; 4
    3f04:	9f 93       	push	r25
    3f06:	8f 93       	push	r24
    3f08:	0e 94 79 46 	call	0x8cf2	; 0x8cf2 <sprintf>
		if (button_press (KEY_ENTER)) {param.lighte = mirror_data_8bit;
    3f0c:	8b e3       	ldi	r24, 0x3B	; 59
    3f0e:	0e 94 c6 09 	call	0x138c	; 0x138c <_Z12button_pressh>
    3f12:	2d b7       	in	r18, 0x3d	; 61
    3f14:	3e b7       	in	r19, 0x3e	; 62
    3f16:	28 5f       	subi	r18, 0xF8	; 248
    3f18:	3f 4f       	sbci	r19, 0xFF	; 255
    3f1a:	0f b6       	in	r0, 0x3f	; 63
    3f1c:	f8 94       	cli
    3f1e:	3e bf       	out	0x3e, r19	; 62
    3f20:	0f be       	out	0x3f, r0	; 63
    3f22:	2d bf       	out	0x3d, r18	; 61
    3f24:	88 23       	and	r24, r24
    3f26:	29 f1       	breq	.+74     	; 0x3f72 <_Z5lightv+0x11a>
    3f28:	80 91 d4 05 	lds	r24, 0x05D4	; 0x8005d4 <mirror_data_8bit>
    3f2c:	80 93 b3 05 	sts	0x05B3, r24	; 0x8005b3 <param+0x1a>
			change_item = false; non_repit = false;
    3f30:	10 92 d8 05 	sts	0x05D8, r1	; 0x8005d8 <change_item>
    3f34:	10 92 d7 05 	sts	0x05D7, r1	; 0x8005d7 <non_repit>
			switch (param.lighte){
    3f38:	81 30       	cpi	r24, 0x01	; 1
    3f3a:	61 f0       	breq	.+24     	; 0x3f54 <_Z5lightv+0xfc>
    3f3c:	18 f0       	brcs	.+6      	; 0x3f44 <_Z5lightv+0xec>
    3f3e:	82 30       	cpi	r24, 0x02	; 2
    3f40:	89 f0       	breq	.+34     	; 0x3f64 <_Z5lightv+0x10c>
    3f42:	17 c0       	rjmp	.+46     	; 0x3f72 <_Z5lightv+0x11a>
				case 0:if (!spi_stop) send_data ( 0x0A,  0x04); break;                // сразу отправляем в микру новое значение яркости
    3f44:	80 91 a0 04 	lds	r24, 0x04A0	; 0x8004a0 <spi_stop>
    3f48:	81 11       	cpse	r24, r1
    3f4a:	13 c0       	rjmp	.+38     	; 0x3f72 <_Z5lightv+0x11a>
    3f4c:	64 e0       	ldi	r22, 0x04	; 4
    3f4e:	8a e0       	ldi	r24, 0x0A	; 10
    3f50:	16 dd       	rcall	.-1492   	; 0x397e <_Z9send_datahh>
    3f52:	0f c0       	rjmp	.+30     	; 0x3f72 <_Z5lightv+0x11a>
				case 1:if (!spi_stop) send_data ( 0x0A,  0x07); break;
    3f54:	80 91 a0 04 	lds	r24, 0x04A0	; 0x8004a0 <spi_stop>
    3f58:	81 11       	cpse	r24, r1
    3f5a:	0b c0       	rjmp	.+22     	; 0x3f72 <_Z5lightv+0x11a>
    3f5c:	67 e0       	ldi	r22, 0x07	; 7
    3f5e:	8a e0       	ldi	r24, 0x0A	; 10
    3f60:	0e dd       	rcall	.-1508   	; 0x397e <_Z9send_datahh>
    3f62:	07 c0       	rjmp	.+14     	; 0x3f72 <_Z5lightv+0x11a>
				case 2:if (!spi_stop) send_data ( 0x0A,  0x0F); break;
    3f64:	80 91 a0 04 	lds	r24, 0x04A0	; 0x8004a0 <spi_stop>
    3f68:	81 11       	cpse	r24, r1
    3f6a:	03 c0       	rjmp	.+6      	; 0x3f72 <_Z5lightv+0x11a>
    3f6c:	6f e0       	ldi	r22, 0x0F	; 15
    3f6e:	8a e0       	ldi	r24, 0x0A	; 10
    3f70:	06 dd       	rcall	.-1524   	; 0x397e <_Z9send_datahh>
			}
		}
	}
}
    3f72:	df 91       	pop	r29
    3f74:	cf 91       	pop	r28
    3f76:	08 95       	ret

00003f78 <_Z10not_changev>:
	else	strcpy_P(send_buf, pointer_menu->format );     // если флаг опущен то показывать имя меню 
}

uint8_t not_change (void)            // проверка на введеные пароли
{
   if (super_parol) {return 1;}      // если это супер пароль, сразу доступ
    3f78:	80 91 d6 05 	lds	r24, 0x05D6	; 0x8005d6 <super_parol>
    3f7c:	81 11       	cpse	r24, r1
    3f7e:	0a c0       	rjmp	.+20     	; 0x3f94 <_Z10not_changev+0x1c>
   else if (admin_parol && BLK) {return 1;}     // если пароль админа то еще проверяем блокировку
    3f80:	80 91 d5 05 	lds	r24, 0x05D5	; 0x8005d5 <admin_parol>
    3f84:	88 23       	and	r24, r24
    3f86:	39 f0       	breq	.+14     	; 0x3f96 <_Z10not_changev+0x1e>
    3f88:	83 b1       	in	r24, 0x03	; 3
    3f8a:	80 95       	com	r24
    3f8c:	88 1f       	adc	r24, r24
    3f8e:	88 27       	eor	r24, r24
    3f90:	88 1f       	adc	r24, r24
    3f92:	08 95       	ret
	else	strcpy_P(send_buf, pointer_menu->format );     // если флаг опущен то показывать имя меню 
}

uint8_t not_change (void)            // проверка на введеные пароли
{
   if (super_parol) {return 1;}      // если это супер пароль, сразу доступ
    3f94:	81 e0       	ldi	r24, 0x01	; 1
   else if (admin_parol && BLK) {return 1;}     // если пароль админа то еще проверяем блокировку
   else {return 0; }                 // если ничего то вернуть 0
}
    3f96:	08 95       	ret

00003f98 <_Z14sensor_numbersv>:
        }
	}
}

void sensor_numbers (void)             // функция для ввода количества датчиков
{
    3f98:	cf 93       	push	r28
    3f9a:	df 93       	push	r29
	if (!change_item){                 // пока не изменяем параметры
    3f9c:	80 91 d8 05 	lds	r24, 0x05D8	; 0x8005d8 <change_item>
    3fa0:	81 11       	cpse	r24, r1
    3fa2:	2d c0       	rjmp	.+90     	; 0x3ffe <_Z14sensor_numbersv+0x66>
		if (not_change()) if (button_press (KEY_ENTER)) {change_item = true;}         // отслеживаем ентер
    3fa4:	e9 df       	rcall	.-46     	; 0x3f78 <_Z10not_changev>
    3fa6:	88 23       	and	r24, r24
    3fa8:	41 f0       	breq	.+16     	; 0x3fba <_Z14sensor_numbersv+0x22>
    3faa:	8b e3       	ldi	r24, 0x3B	; 59
    3fac:	0e 94 c6 09 	call	0x138c	; 0x138c <_Z12button_pressh>
    3fb0:	88 23       	and	r24, r24
    3fb2:	19 f0       	breq	.+6      	; 0x3fba <_Z14sensor_numbersv+0x22>
    3fb4:	81 e0       	ldi	r24, 0x01	; 1
    3fb6:	80 93 d8 05 	sts	0x05D8, r24	; 0x8005d8 <change_item>
		sprintf(send_buf, "    %02lu" , (uint32_t) param.sensor_number );mirror_data_8bit = param.sensor_number;   // и выводим текущее значение на экран
    3fba:	c9 e9       	ldi	r28, 0x99	; 153
    3fbc:	d5 e0       	ldi	r29, 0x05	; 5
    3fbe:	8f 85       	ldd	r24, Y+15	; 0x0f
    3fc0:	1f 92       	push	r1
    3fc2:	1f 92       	push	r1
    3fc4:	1f 92       	push	r1
    3fc6:	8f 93       	push	r24
    3fc8:	8a e4       	ldi	r24, 0x4A	; 74
    3fca:	92 e0       	ldi	r25, 0x02	; 2
    3fcc:	9f 93       	push	r25
    3fce:	8f 93       	push	r24
    3fd0:	8c e8       	ldi	r24, 0x8C	; 140
    3fd2:	94 e0       	ldi	r25, 0x04	; 4
    3fd4:	9f 93       	push	r25
    3fd6:	8f 93       	push	r24
    3fd8:	0e 94 79 46 	call	0x8cf2	; 0x8cf2 <sprintf>
    3fdc:	8f 85       	ldd	r24, Y+15	; 0x0f
    3fde:	80 93 d4 05 	sts	0x05D4, r24	; 0x8005d4 <mirror_data_8bit>
	}
	if (change_item){                                               // когда изменяем значение
    3fe2:	2d b7       	in	r18, 0x3d	; 61
    3fe4:	3e b7       	in	r19, 0x3e	; 62
    3fe6:	28 5f       	subi	r18, 0xF8	; 248
    3fe8:	3f 4f       	sbci	r19, 0xFF	; 255
    3fea:	0f b6       	in	r0, 0x3f	; 63
    3fec:	f8 94       	cli
    3fee:	3e bf       	out	0x3e, r19	; 62
    3ff0:	0f be       	out	0x3f, r0	; 63
    3ff2:	2d bf       	out	0x3d, r18	; 61
    3ff4:	80 91 d8 05 	lds	r24, 0x05D8	; 0x8005d8 <change_item>
    3ff8:	88 23       	and	r24, r24
    3ffa:	09 f4       	brne	.+2      	; 0x3ffe <_Z14sensor_numbersv+0x66>
    3ffc:	44 c0       	rjmp	.+136    	; 0x4086 <_Z14sensor_numbersv+0xee>
		if (button_press (KEY_UP)) { if (mirror_data_8bit < 12) mirror_data_8bit += 2;  }             // если кнопка вверх +2      
    3ffe:	8e e3       	ldi	r24, 0x3E	; 62
    4000:	0e 94 c6 09 	call	0x138c	; 0x138c <_Z12button_pressh>
    4004:	88 23       	and	r24, r24
    4006:	39 f0       	breq	.+14     	; 0x4016 <_Z14sensor_numbersv+0x7e>
    4008:	80 91 d4 05 	lds	r24, 0x05D4	; 0x8005d4 <mirror_data_8bit>
    400c:	8c 30       	cpi	r24, 0x0C	; 12
    400e:	18 f4       	brcc	.+6      	; 0x4016 <_Z14sensor_numbersv+0x7e>
    4010:	8e 5f       	subi	r24, 0xFE	; 254
    4012:	80 93 d4 05 	sts	0x05D4, r24	; 0x8005d4 <mirror_data_8bit>
		if (button_press (KEY_DOWN)) {if (mirror_data_8bit > 2) mirror_data_8bit -=2; }               // кнопка вниз -2   и это все для зеркала а не для функции чтоб если не нажму ентер не сохранилось
    4016:	8f e1       	ldi	r24, 0x1F	; 31
    4018:	0e 94 c6 09 	call	0x138c	; 0x138c <_Z12button_pressh>
    401c:	88 23       	and	r24, r24
    401e:	39 f0       	breq	.+14     	; 0x402e <_Z14sensor_numbersv+0x96>
    4020:	80 91 d4 05 	lds	r24, 0x05D4	; 0x8005d4 <mirror_data_8bit>
    4024:	83 30       	cpi	r24, 0x03	; 3
    4026:	18 f0       	brcs	.+6      	; 0x402e <_Z14sensor_numbersv+0x96>
    4028:	82 50       	subi	r24, 0x02	; 2
    402a:	80 93 d4 05 	sts	0x05D4, r24	; 0x8005d4 <mirror_data_8bit>
		blink_many_simbol (0x30);                                                                     // мигаем двумя правыми символами
    402e:	80 e3       	ldi	r24, 0x30	; 48
    4030:	a6 dd       	rcall	.-1204   	; 0x3b7e <_Z17blink_many_simbolh>
		sprintf(send_buf, "    %02lu"  ,(uint32_t) mirror_data_8bit );                                // выводим зеркало чтоб показать что мы изменили
    4032:	80 91 d4 05 	lds	r24, 0x05D4	; 0x8005d4 <mirror_data_8bit>
    4036:	1f 92       	push	r1
    4038:	1f 92       	push	r1
    403a:	1f 92       	push	r1
    403c:	8f 93       	push	r24
    403e:	8a e4       	ldi	r24, 0x4A	; 74
    4040:	92 e0       	ldi	r25, 0x02	; 2
    4042:	9f 93       	push	r25
    4044:	8f 93       	push	r24
    4046:	8c e8       	ldi	r24, 0x8C	; 140
    4048:	94 e0       	ldi	r25, 0x04	; 4
    404a:	9f 93       	push	r25
    404c:	8f 93       	push	r24
    404e:	0e 94 79 46 	call	0x8cf2	; 0x8cf2 <sprintf>
		if (button_press (KEY_ENTER)) {                                                               // в случае нажатия на ентер сохраняем новое значение
    4052:	8b e3       	ldi	r24, 0x3B	; 59
    4054:	0e 94 c6 09 	call	0x138c	; 0x138c <_Z12button_pressh>
    4058:	2d b7       	in	r18, 0x3d	; 61
    405a:	3e b7       	in	r19, 0x3e	; 62
    405c:	28 5f       	subi	r18, 0xF8	; 248
    405e:	3f 4f       	sbci	r19, 0xFF	; 255
    4060:	0f b6       	in	r0, 0x3f	; 63
    4062:	f8 94       	cli
    4064:	3e bf       	out	0x3e, r19	; 62
    4066:	0f be       	out	0x3f, r0	; 63
    4068:	2d bf       	out	0x3d, r18	; 61
    406a:	88 23       	and	r24, r24
    406c:	61 f0       	breq	.+24     	; 0x4086 <_Z14sensor_numbersv+0xee>
        param.sensor_number = mirror_data_8bit; EEPROM_write(EE_SENNUMBER,param.sensor_number);
    406e:	60 91 d4 05 	lds	r22, 0x05D4	; 0x8005d4 <mirror_data_8bit>
    4072:	60 93 a8 05 	sts	0x05A8, r22	; 0x8005a8 <param+0xf>
    4076:	8c e0       	ldi	r24, 0x0C	; 12
    4078:	90 e0       	ldi	r25, 0x00	; 0
    407a:	0e 94 14 04 	call	0x828	; 0x828 <_Z12EEPROM_writejh>
        change_item = false; non_repit = false;
    407e:	10 92 d8 05 	sts	0x05D8, r1	; 0x8005d8 <change_item>
    4082:	10 92 d7 05 	sts	0x05D7, r1	; 0x8005d7 <non_repit>
        }   
	}
}
    4086:	df 91       	pop	r29
    4088:	cf 91       	pop	r28
    408a:	08 95       	ret

0000408c <_Z10_key_strobv>:
   else {return 0; }                 // если ничего то вернуть 0
}

void _key_strob (void)               // функция обработки клавиш в меню
{
	switch ((pgm_read_byte(&pointer_menu->key_state)))      // сюда передаем считаный из массива структур меню номер, и в зависимости от того какой это номер по разному обрабатываем клавиши
    408c:	e0 91 01 05 	lds	r30, 0x0501	; 0x800501 <pointer_menu>
    4090:	f0 91 02 05 	lds	r31, 0x0502	; 0x800502 <pointer_menu+0x1>
    4094:	71 96       	adiw	r30, 0x11	; 17
    4096:	e4 91       	lpm	r30, Z
    4098:	e2 30       	cpi	r30, 0x02	; 2
    409a:	09 f4       	brne	.+2      	; 0x409e <_Z10_key_strobv+0x12>
    409c:	a4 c0       	rjmp	.+328    	; 0x41e6 <_Z10_key_strobv+0x15a>
    409e:	e3 30       	cpi	r30, 0x03	; 3
    40a0:	09 f4       	brne	.+2      	; 0x40a4 <_Z10_key_strobv+0x18>
    40a2:	6c c1       	rjmp	.+728    	; 0x437c <_Z10_key_strobv+0x2f0>
    40a4:	e1 30       	cpi	r30, 0x01	; 1
    40a6:	09 f0       	breq	.+2      	; 0x40aa <_Z10_key_strobv+0x1e>
    40a8:	f6 c1       	rjmp	.+1004   	; 0x4496 <_Z10_key_strobv+0x40a>
	{
		case (SKROL_MENU):                                  // если это прокрутка меню
		if (button_press (KEY_UP)) {pointer_menu =((MenuItem*)&MenuItems[(pgm_read_byte(&pointer_menu->next_menu))]); }       // при нажатии на кнопку переходим в пункт меню который указан как следующий
    40aa:	8e e3       	ldi	r24, 0x3E	; 62
    40ac:	0e 94 c6 09 	call	0x138c	; 0x138c <_Z12button_pressh>
    40b0:	88 23       	and	r24, r24
    40b2:	c1 f0       	breq	.+48     	; 0x40e4 <_Z10_key_strobv+0x58>
    40b4:	e0 91 01 05 	lds	r30, 0x0501	; 0x800501 <pointer_menu>
    40b8:	f0 91 02 05 	lds	r31, 0x0502	; 0x800502 <pointer_menu+0x1>
    40bc:	3f 96       	adiw	r30, 0x0f	; 15
    40be:	e4 91       	lpm	r30, Z
    40c0:	f0 e0       	ldi	r31, 0x00	; 0
    40c2:	ee 0f       	add	r30, r30
    40c4:	ff 1f       	adc	r31, r31
    40c6:	cf 01       	movw	r24, r30
    40c8:	88 0f       	add	r24, r24
    40ca:	99 1f       	adc	r25, r25
    40cc:	88 0f       	add	r24, r24
    40ce:	99 1f       	adc	r25, r25
    40d0:	88 0f       	add	r24, r24
    40d2:	99 1f       	adc	r25, r25
    40d4:	e8 0f       	add	r30, r24
    40d6:	f9 1f       	adc	r31, r25
    40d8:	e1 50       	subi	r30, 0x01	; 1
    40da:	fc 4f       	sbci	r31, 0xFC	; 252
    40dc:	f0 93 02 05 	sts	0x0502, r31	; 0x800502 <pointer_menu+0x1>
    40e0:	e0 93 01 05 	sts	0x0501, r30	; 0x800501 <pointer_menu>
		if (button_press (KEY_DOWN)) {pointer_menu =((MenuItem*)&MenuItems[(pgm_read_byte(&pointer_menu->previos_menu))]); }  // как предыдущий
    40e4:	8f e1       	ldi	r24, 0x1F	; 31
    40e6:	0e 94 c6 09 	call	0x138c	; 0x138c <_Z12button_pressh>
    40ea:	88 23       	and	r24, r24
    40ec:	c1 f0       	breq	.+48     	; 0x411e <_Z10_key_strobv+0x92>
    40ee:	e0 91 01 05 	lds	r30, 0x0501	; 0x800501 <pointer_menu>
    40f2:	f0 91 02 05 	lds	r31, 0x0502	; 0x800502 <pointer_menu+0x1>
    40f6:	70 96       	adiw	r30, 0x10	; 16
    40f8:	e4 91       	lpm	r30, Z
    40fa:	f0 e0       	ldi	r31, 0x00	; 0
    40fc:	ee 0f       	add	r30, r30
    40fe:	ff 1f       	adc	r31, r31
    4100:	cf 01       	movw	r24, r30
    4102:	88 0f       	add	r24, r24
    4104:	99 1f       	adc	r25, r25
    4106:	88 0f       	add	r24, r24
    4108:	99 1f       	adc	r25, r25
    410a:	88 0f       	add	r24, r24
    410c:	99 1f       	adc	r25, r25
    410e:	e8 0f       	add	r30, r24
    4110:	f9 1f       	adc	r31, r25
    4112:	e1 50       	subi	r30, 0x01	; 1
    4114:	fc 4f       	sbci	r31, 0xFC	; 252
    4116:	f0 93 02 05 	sts	0x0502, r31	; 0x800502 <pointer_menu+0x1>
    411a:	e0 93 01 05 	sts	0x0501, r30	; 0x800501 <pointer_menu>
		if (button_press (KEY_ENTER)) {pointer_menu =((MenuItem*)&MenuItems[(pgm_read_byte(&pointer_menu->child_menu))]);  }  // переходим к ребенку
    411e:	8b e3       	ldi	r24, 0x3B	; 59
    4120:	0e 94 c6 09 	call	0x138c	; 0x138c <_Z12button_pressh>
    4124:	88 23       	and	r24, r24
    4126:	c1 f0       	breq	.+48     	; 0x4158 <_Z10_key_strobv+0xcc>
    4128:	e0 91 01 05 	lds	r30, 0x0501	; 0x800501 <pointer_menu>
    412c:	f0 91 02 05 	lds	r31, 0x0502	; 0x800502 <pointer_menu+0x1>
    4130:	3d 96       	adiw	r30, 0x0d	; 13
    4132:	e4 91       	lpm	r30, Z
    4134:	f0 e0       	ldi	r31, 0x00	; 0
    4136:	ee 0f       	add	r30, r30
    4138:	ff 1f       	adc	r31, r31
    413a:	cf 01       	movw	r24, r30
    413c:	88 0f       	add	r24, r24
    413e:	99 1f       	adc	r25, r25
    4140:	88 0f       	add	r24, r24
    4142:	99 1f       	adc	r25, r25
    4144:	88 0f       	add	r24, r24
    4146:	99 1f       	adc	r25, r25
    4148:	e8 0f       	add	r30, r24
    414a:	f9 1f       	adc	r31, r25
    414c:	e1 50       	subi	r30, 0x01	; 1
    414e:	fc 4f       	sbci	r31, 0xFC	; 252
    4150:	f0 93 02 05 	sts	0x0502, r31	; 0x800502 <pointer_menu+0x1>
    4154:	e0 93 01 05 	sts	0x0501, r30	; 0x800501 <pointer_menu>
		if (button_press (KEY_ESC))  { if(((&MenuItems[(pgm_read_byte(&pointer_menu->parent_menu))]) == (&MenuItems[(pgm_read_byte(&pointer_menu->current_menu))])))\
    4158:	8d e3       	ldi	r24, 0x3D	; 61
    415a:	0e 94 c6 09 	call	0x138c	; 0x138c <_Z12button_pressh>
    415e:	88 23       	and	r24, r24
    4160:	09 f4       	brne	.+2      	; 0x4164 <_Z10_key_strobv+0xd8>
    4162:	99 c1       	rjmp	.+818    	; 0x4496 <_Z10_key_strobv+0x40a>
    4164:	80 91 01 05 	lds	r24, 0x0501	; 0x800501 <pointer_menu>
    4168:	90 91 02 05 	lds	r25, 0x0502	; 0x800502 <pointer_menu+0x1>
    416c:	9c 01       	movw	r18, r24
    416e:	22 5f       	subi	r18, 0xF2	; 242
    4170:	3f 4f       	sbci	r19, 0xFF	; 255
    4172:	f9 01       	movw	r30, r18
    4174:	44 91       	lpm	r20, Z
    4176:	32 97       	sbiw	r30, 0x02	; 2
    4178:	84 91       	lpm	r24, Z
    417a:	50 e0       	ldi	r21, 0x00	; 0
    417c:	44 0f       	add	r20, r20
    417e:	55 1f       	adc	r21, r21
    4180:	ba 01       	movw	r22, r20
    4182:	66 0f       	add	r22, r22
    4184:	77 1f       	adc	r23, r23
    4186:	66 0f       	add	r22, r22
    4188:	77 1f       	adc	r23, r23
    418a:	66 0f       	add	r22, r22
    418c:	77 1f       	adc	r23, r23
    418e:	46 0f       	add	r20, r22
    4190:	57 1f       	adc	r21, r23
    4192:	90 e0       	ldi	r25, 0x00	; 0
    4194:	88 0f       	add	r24, r24
    4196:	99 1f       	adc	r25, r25
    4198:	fc 01       	movw	r30, r24
    419a:	ee 0f       	add	r30, r30
    419c:	ff 1f       	adc	r31, r31
    419e:	ee 0f       	add	r30, r30
    41a0:	ff 1f       	adc	r31, r31
    41a2:	ee 0f       	add	r30, r30
    41a4:	ff 1f       	adc	r31, r31
    41a6:	8e 0f       	add	r24, r30
    41a8:	9f 1f       	adc	r25, r31
    41aa:	48 17       	cp	r20, r24
    41ac:	59 07       	cpc	r21, r25
    41ae:	31 f4       	brne	.+12     	; 0x41bc <_Z10_key_strobv+0x130>
            { boolean.main_menu_bool = 0;  }else {pointer_menu =((MenuItem*)&MenuItems[(pgm_read_byte(&pointer_menu->parent_menu))]) ;}}  
    41b0:	e8 e8       	ldi	r30, 0x88	; 136
    41b2:	f6 e0       	ldi	r31, 0x06	; 6
    41b4:	80 81       	ld	r24, Z
    41b6:	8e 7f       	andi	r24, 0xFE	; 254
    41b8:	80 83       	st	Z, r24
    41ba:	08 95       	ret
    41bc:	f9 01       	movw	r30, r18
    41be:	24 91       	lpm	r18, Z
    41c0:	30 e0       	ldi	r19, 0x00	; 0
    41c2:	22 0f       	add	r18, r18
    41c4:	33 1f       	adc	r19, r19
    41c6:	c9 01       	movw	r24, r18
    41c8:	88 0f       	add	r24, r24
    41ca:	99 1f       	adc	r25, r25
    41cc:	88 0f       	add	r24, r24
    41ce:	99 1f       	adc	r25, r25
    41d0:	88 0f       	add	r24, r24
    41d2:	99 1f       	adc	r25, r25
    41d4:	28 0f       	add	r18, r24
    41d6:	39 1f       	adc	r19, r25
    41d8:	21 50       	subi	r18, 0x01	; 1
    41da:	3c 4f       	sbci	r19, 0xFC	; 252
    41dc:	30 93 02 05 	sts	0x0502, r19	; 0x800502 <pointer_menu+0x1>
    41e0:	20 93 01 05 	sts	0x0501, r18	; 0x800501 <pointer_menu>
    41e4:	08 95       	ret
        // тут мы проверяем если у пункта имя родителя совпадает с именем меню, то выходим из меню, а если не совпадает то переходим к родителю.     
		break;
		case (DATA_INPUT):                                   // если это ввод данных
		if (!go_func){                                       // и функция меню не выполняется
    41e6:	80 91 d9 05 	lds	r24, 0x05D9	; 0x8005d9 <go_func>
    41ea:	81 11       	cpse	r24, r1
    41ec:	84 c0       	rjmp	.+264    	; 0x42f6 <_Z10_key_strobv+0x26a>
			if (button_press (KEY_UP)) {pointer_menu =((MenuItem*)&MenuItems[(pgm_read_byte(&pointer_menu->next_menu))]); }       // при нажатии на кнопку переходим в пункт меню который указан как следующий
    41ee:	8e e3       	ldi	r24, 0x3E	; 62
    41f0:	0e 94 c6 09 	call	0x138c	; 0x138c <_Z12button_pressh>
    41f4:	88 23       	and	r24, r24
    41f6:	c1 f0       	breq	.+48     	; 0x4228 <_Z10_key_strobv+0x19c>
    41f8:	e0 91 01 05 	lds	r30, 0x0501	; 0x800501 <pointer_menu>
    41fc:	f0 91 02 05 	lds	r31, 0x0502	; 0x800502 <pointer_menu+0x1>
    4200:	3f 96       	adiw	r30, 0x0f	; 15
    4202:	84 91       	lpm	r24, Z
    4204:	90 e0       	ldi	r25, 0x00	; 0
    4206:	88 0f       	add	r24, r24
    4208:	99 1f       	adc	r25, r25
    420a:	9c 01       	movw	r18, r24
    420c:	22 0f       	add	r18, r18
    420e:	33 1f       	adc	r19, r19
    4210:	22 0f       	add	r18, r18
    4212:	33 1f       	adc	r19, r19
    4214:	22 0f       	add	r18, r18
    4216:	33 1f       	adc	r19, r19
    4218:	82 0f       	add	r24, r18
    421a:	93 1f       	adc	r25, r19
    421c:	81 50       	subi	r24, 0x01	; 1
    421e:	9c 4f       	sbci	r25, 0xFC	; 252
    4220:	90 93 02 05 	sts	0x0502, r25	; 0x800502 <pointer_menu+0x1>
    4224:	80 93 01 05 	sts	0x0501, r24	; 0x800501 <pointer_menu>
			if (button_press (KEY_DOWN)) {pointer_menu =((MenuItem*)&MenuItems[(pgm_read_byte(&pointer_menu->previos_menu))]); }  // как предыдущий
    4228:	8f e1       	ldi	r24, 0x1F	; 31
    422a:	0e 94 c6 09 	call	0x138c	; 0x138c <_Z12button_pressh>
    422e:	88 23       	and	r24, r24
    4230:	c1 f0       	breq	.+48     	; 0x4262 <_Z10_key_strobv+0x1d6>
    4232:	e0 91 01 05 	lds	r30, 0x0501	; 0x800501 <pointer_menu>
    4236:	f0 91 02 05 	lds	r31, 0x0502	; 0x800502 <pointer_menu+0x1>
    423a:	70 96       	adiw	r30, 0x10	; 16
    423c:	84 91       	lpm	r24, Z
    423e:	90 e0       	ldi	r25, 0x00	; 0
    4240:	88 0f       	add	r24, r24
    4242:	99 1f       	adc	r25, r25
    4244:	9c 01       	movw	r18, r24
    4246:	22 0f       	add	r18, r18
    4248:	33 1f       	adc	r19, r19
    424a:	22 0f       	add	r18, r18
    424c:	33 1f       	adc	r19, r19
    424e:	22 0f       	add	r18, r18
    4250:	33 1f       	adc	r19, r19
    4252:	82 0f       	add	r24, r18
    4254:	93 1f       	adc	r25, r19
    4256:	81 50       	subi	r24, 0x01	; 1
    4258:	9c 4f       	sbci	r25, 0xFC	; 252
    425a:	90 93 02 05 	sts	0x0502, r25	; 0x800502 <pointer_menu+0x1>
    425e:	80 93 01 05 	sts	0x0501, r24	; 0x800501 <pointer_menu>
			if (button_press (KEY_ESC)) {pointer_menu =((MenuItem*)&MenuItems[(pgm_read_byte(&pointer_menu->parent_menu))]); boolean.led_in_menu = false;}     // возвращаемся к родителю
    4262:	8d e3       	ldi	r24, 0x3D	; 61
    4264:	0e 94 c6 09 	call	0x138c	; 0x138c <_Z12button_pressh>
    4268:	88 23       	and	r24, r24
    426a:	e9 f0       	breq	.+58     	; 0x42a6 <_Z10_key_strobv+0x21a>
    426c:	e0 91 01 05 	lds	r30, 0x0501	; 0x800501 <pointer_menu>
    4270:	f0 91 02 05 	lds	r31, 0x0502	; 0x800502 <pointer_menu+0x1>
    4274:	3e 96       	adiw	r30, 0x0e	; 14
    4276:	84 91       	lpm	r24, Z
    4278:	90 e0       	ldi	r25, 0x00	; 0
    427a:	88 0f       	add	r24, r24
    427c:	99 1f       	adc	r25, r25
    427e:	9c 01       	movw	r18, r24
    4280:	22 0f       	add	r18, r18
    4282:	33 1f       	adc	r19, r19
    4284:	22 0f       	add	r18, r18
    4286:	33 1f       	adc	r19, r19
    4288:	22 0f       	add	r18, r18
    428a:	33 1f       	adc	r19, r19
    428c:	82 0f       	add	r24, r18
    428e:	93 1f       	adc	r25, r19
    4290:	81 50       	subi	r24, 0x01	; 1
    4292:	9c 4f       	sbci	r25, 0xFC	; 252
    4294:	90 93 02 05 	sts	0x0502, r25	; 0x800502 <pointer_menu+0x1>
    4298:	80 93 01 05 	sts	0x0501, r24	; 0x800501 <pointer_menu>
    429c:	e9 e8       	ldi	r30, 0x89	; 137
    429e:	f6 e0       	ldi	r31, 0x06	; 6
    42a0:	80 81       	ld	r24, Z
    42a2:	8d 7f       	andi	r24, 0xFD	; 253
    42a4:	80 83       	st	Z, r24
			if (button_press (KEY_ENTER)) {on_clicks = (StateFunc)  pgm_read_ptr(&MenuItems[(pgm_read_byte(&pointer_menu->current_menu))].on_click);  go_func = true;}  // начинаем выполнять функцию меню
    42a6:	8b e3       	ldi	r24, 0x3B	; 59
    42a8:	0e 94 c6 09 	call	0x138c	; 0x138c <_Z12button_pressh>
    42ac:	88 23       	and	r24, r24
    42ae:	f1 f0       	breq	.+60     	; 0x42ec <_Z10_key_strobv+0x260>
    42b0:	e0 91 01 05 	lds	r30, 0x0501	; 0x800501 <pointer_menu>
    42b4:	f0 91 02 05 	lds	r31, 0x0502	; 0x800502 <pointer_menu+0x1>
    42b8:	3c 96       	adiw	r30, 0x0c	; 12
    42ba:	84 91       	lpm	r24, Z
    42bc:	90 e0       	ldi	r25, 0x00	; 0
    42be:	88 0f       	add	r24, r24
    42c0:	99 1f       	adc	r25, r25
    42c2:	fc 01       	movw	r30, r24
    42c4:	ee 0f       	add	r30, r30
    42c6:	ff 1f       	adc	r31, r31
    42c8:	ee 0f       	add	r30, r30
    42ca:	ff 1f       	adc	r31, r31
    42cc:	ee 0f       	add	r30, r30
    42ce:	ff 1f       	adc	r31, r31
    42d0:	e8 0f       	add	r30, r24
    42d2:	f9 1f       	adc	r31, r25
    42d4:	e7 5f       	subi	r30, 0xF7	; 247
    42d6:	fb 4f       	sbci	r31, 0xFB	; 251
    42d8:	85 91       	lpm	r24, Z+
    42da:	94 91       	lpm	r25, Z
    42dc:	90 93 c7 05 	sts	0x05C7, r25	; 0x8005c7 <on_clicks+0x1>
    42e0:	80 93 c6 05 	sts	0x05C6, r24	; 0x8005c6 <on_clicks>
    42e4:	81 e0       	ldi	r24, 0x01	; 1
    42e6:	80 93 d9 05 	sts	0x05D9, r24	; 0x8005d9 <go_func>
    42ea:	05 c0       	rjmp	.+10     	; 0x42f6 <_Z10_key_strobv+0x26a>
		}
		if (go_func){                                                                                                         // если мы находимся в выполнении функции
    42ec:	80 91 d9 05 	lds	r24, 0x05D9	; 0x8005d9 <go_func>
    42f0:	88 23       	and	r24, r24
    42f2:	09 f4       	brne	.+2      	; 0x42f6 <_Z10_key_strobv+0x26a>
    42f4:	d0 c0       	rjmp	.+416    	; 0x4496 <_Z10_key_strobv+0x40a>
			if (change_item) if (button_press (KEY_ESC)) {  change_item = false; non_repit = false; boolean.led_display = 0;*point_metrologi = mirror_double2;boolean.led_in_menu = false;} // если мы изменяли параметры то по ескейпу перестаем это делать
    42f6:	80 91 d8 05 	lds	r24, 0x05D8	; 0x8005d8 <change_item>
    42fa:	88 23       	and	r24, r24
    42fc:	39 f1       	breq	.+78     	; 0x434c <_Z10_key_strobv+0x2c0>
    42fe:	8d e3       	ldi	r24, 0x3D	; 61
    4300:	0e 94 c6 09 	call	0x138c	; 0x138c <_Z12button_pressh>
    4304:	88 23       	and	r24, r24
    4306:	f1 f0       	breq	.+60     	; 0x4344 <_Z10_key_strobv+0x2b8>
    4308:	10 92 d8 05 	sts	0x05D8, r1	; 0x8005d8 <change_item>
    430c:	10 92 d7 05 	sts	0x05D7, r1	; 0x8005d7 <non_repit>
    4310:	e7 e8       	ldi	r30, 0x87	; 135
    4312:	f6 e0       	ldi	r31, 0x06	; 6
    4314:	80 81       	ld	r24, Z
    4316:	81 7f       	andi	r24, 0xF1	; 241
    4318:	80 83       	st	Z, r24
    431a:	e0 91 03 05 	lds	r30, 0x0503	; 0x800503 <point_metrologi>
    431e:	f0 91 04 05 	lds	r31, 0x0504	; 0x800504 <point_metrologi+0x1>
    4322:	80 91 c8 05 	lds	r24, 0x05C8	; 0x8005c8 <mirror_double2>
    4326:	90 91 c9 05 	lds	r25, 0x05C9	; 0x8005c9 <mirror_double2+0x1>
    432a:	a0 91 ca 05 	lds	r26, 0x05CA	; 0x8005ca <mirror_double2+0x2>
    432e:	b0 91 cb 05 	lds	r27, 0x05CB	; 0x8005cb <mirror_double2+0x3>
    4332:	80 83       	st	Z, r24
    4334:	91 83       	std	Z+1, r25	; 0x01
    4336:	a2 83       	std	Z+2, r26	; 0x02
    4338:	b3 83       	std	Z+3, r27	; 0x03
    433a:	e9 e8       	ldi	r30, 0x89	; 137
    433c:	f6 e0       	ldi	r31, 0x06	; 6
    433e:	80 81       	ld	r24, Z
    4340:	8d 7f       	andi	r24, 0xFD	; 253
    4342:	80 83       	st	Z, r24
			if (!change_item){                                                                                                // если мы изменяем параметры
    4344:	80 91 d8 05 	lds	r24, 0x05D8	; 0x8005d8 <change_item>
    4348:	81 11       	cpse	r24, r1
    434a:	a5 c0       	rjmp	.+330    	; 0x4496 <_Z10_key_strobv+0x40a>
				if (button_press (KEY_ESC)) { go_func = false; boolean.non_rep = false;boolean.led_display = 0; boolean.led_in_menu = false;}	          // если мы не изменяем параметры то по ескейпу выходим
    434c:	8d e3       	ldi	r24, 0x3D	; 61
    434e:	0e 94 c6 09 	call	0x138c	; 0x138c <_Z12button_pressh>
    4352:	88 23       	and	r24, r24
    4354:	09 f4       	brne	.+2      	; 0x4358 <_Z10_key_strobv+0x2cc>
    4356:	9f c0       	rjmp	.+318    	; 0x4496 <_Z10_key_strobv+0x40a>
    4358:	10 92 d9 05 	sts	0x05D9, r1	; 0x8005d9 <go_func>
    435c:	e8 e8       	ldi	r30, 0x88	; 136
    435e:	f6 e0       	ldi	r31, 0x06	; 6
    4360:	80 81       	ld	r24, Z
    4362:	8f 7e       	andi	r24, 0xEF	; 239
    4364:	80 83       	st	Z, r24
    4366:	e7 e8       	ldi	r30, 0x87	; 135
    4368:	f6 e0       	ldi	r31, 0x06	; 6
    436a:	80 81       	ld	r24, Z
    436c:	81 7f       	andi	r24, 0xF1	; 241
    436e:	80 83       	st	Z, r24
    4370:	e9 e8       	ldi	r30, 0x89	; 137
    4372:	f6 e0       	ldi	r31, 0x06	; 6
    4374:	80 81       	ld	r24, Z
    4376:	8d 7f       	andi	r24, 0xFD	; 253
    4378:	80 83       	st	Z, r24
    437a:	08 95       	ret
			}                              // плюс два костыля, без них не работает ввод коэф для каждого датчика
		}
		break;
		case (NO_CHILDREN):                                   // если это ввод данных без захода в функцию
		if (!go_func){                                       // и функция меню не выполняется
    437c:	80 91 d9 05 	lds	r24, 0x05D9	; 0x8005d9 <go_func>
    4380:	81 11       	cpse	r24, r1
    4382:	6b c0       	rjmp	.+214    	; 0x445a <_Z10_key_strobv+0x3ce>
     		if (button_press (KEY_UP)) {pointer_menu =((MenuItem*)&MenuItems[(pgm_read_byte(&pointer_menu->next_menu))]); }       // при нажатии на кнопку переходим в пункт меню который указан как следующий
    4384:	8e e3       	ldi	r24, 0x3E	; 62
    4386:	0e 94 c6 09 	call	0x138c	; 0x138c <_Z12button_pressh>
    438a:	88 23       	and	r24, r24
    438c:	c1 f0       	breq	.+48     	; 0x43be <_Z10_key_strobv+0x332>
    438e:	e0 91 01 05 	lds	r30, 0x0501	; 0x800501 <pointer_menu>
    4392:	f0 91 02 05 	lds	r31, 0x0502	; 0x800502 <pointer_menu+0x1>
    4396:	3f 96       	adiw	r30, 0x0f	; 15
    4398:	84 91       	lpm	r24, Z
    439a:	90 e0       	ldi	r25, 0x00	; 0
    439c:	88 0f       	add	r24, r24
    439e:	99 1f       	adc	r25, r25
    43a0:	9c 01       	movw	r18, r24
    43a2:	22 0f       	add	r18, r18
    43a4:	33 1f       	adc	r19, r19
    43a6:	22 0f       	add	r18, r18
    43a8:	33 1f       	adc	r19, r19
    43aa:	22 0f       	add	r18, r18
    43ac:	33 1f       	adc	r19, r19
    43ae:	82 0f       	add	r24, r18
    43b0:	93 1f       	adc	r25, r19
    43b2:	81 50       	subi	r24, 0x01	; 1
    43b4:	9c 4f       	sbci	r25, 0xFC	; 252
    43b6:	90 93 02 05 	sts	0x0502, r25	; 0x800502 <pointer_menu+0x1>
    43ba:	80 93 01 05 	sts	0x0501, r24	; 0x800501 <pointer_menu>
     		if (button_press (KEY_DOWN)) {pointer_menu =((MenuItem*)&MenuItems[(pgm_read_byte(&pointer_menu->previos_menu))]); }  // как предыдущий
    43be:	8f e1       	ldi	r24, 0x1F	; 31
    43c0:	0e 94 c6 09 	call	0x138c	; 0x138c <_Z12button_pressh>
    43c4:	88 23       	and	r24, r24
    43c6:	c1 f0       	breq	.+48     	; 0x43f8 <_Z10_key_strobv+0x36c>
    43c8:	e0 91 01 05 	lds	r30, 0x0501	; 0x800501 <pointer_menu>
    43cc:	f0 91 02 05 	lds	r31, 0x0502	; 0x800502 <pointer_menu+0x1>
    43d0:	70 96       	adiw	r30, 0x10	; 16
    43d2:	84 91       	lpm	r24, Z
    43d4:	90 e0       	ldi	r25, 0x00	; 0
    43d6:	88 0f       	add	r24, r24
    43d8:	99 1f       	adc	r25, r25
    43da:	9c 01       	movw	r18, r24
    43dc:	22 0f       	add	r18, r18
    43de:	33 1f       	adc	r19, r19
    43e0:	22 0f       	add	r18, r18
    43e2:	33 1f       	adc	r19, r19
    43e4:	22 0f       	add	r18, r18
    43e6:	33 1f       	adc	r19, r19
    43e8:	82 0f       	add	r24, r18
    43ea:	93 1f       	adc	r25, r19
    43ec:	81 50       	subi	r24, 0x01	; 1
    43ee:	9c 4f       	sbci	r25, 0xFC	; 252
    43f0:	90 93 02 05 	sts	0x0502, r25	; 0x800502 <pointer_menu+0x1>
    43f4:	80 93 01 05 	sts	0x0501, r24	; 0x800501 <pointer_menu>
     		if (button_press (KEY_ESC))  {boolean.main_menu_bool = 0; }                              // если нажали ескейп покинули меню
    43f8:	8d e3       	ldi	r24, 0x3D	; 61
    43fa:	0e 94 c6 09 	call	0x138c	; 0x138c <_Z12button_pressh>
    43fe:	88 23       	and	r24, r24
    4400:	29 f0       	breq	.+10     	; 0x440c <_Z10_key_strobv+0x380>
    4402:	e8 e8       	ldi	r30, 0x88	; 136
    4404:	f6 e0       	ldi	r31, 0x06	; 6
    4406:	80 81       	ld	r24, Z
    4408:	8e 7f       	andi	r24, 0xFE	; 254
    440a:	80 83       	st	Z, r24
     		if (button_press (KEY_ENTER)) {on_clicks = (StateFunc)  pgm_read_ptr(&MenuItems[(pgm_read_byte(&pointer_menu->current_menu))].on_click);  go_func = true;}  // начинаем выполнять функцию меню
    440c:	8b e3       	ldi	r24, 0x3B	; 59
    440e:	0e 94 c6 09 	call	0x138c	; 0x138c <_Z12button_pressh>
    4412:	88 23       	and	r24, r24
    4414:	f1 f0       	breq	.+60     	; 0x4452 <_Z10_key_strobv+0x3c6>
    4416:	e0 91 01 05 	lds	r30, 0x0501	; 0x800501 <pointer_menu>
    441a:	f0 91 02 05 	lds	r31, 0x0502	; 0x800502 <pointer_menu+0x1>
    441e:	3c 96       	adiw	r30, 0x0c	; 12
    4420:	84 91       	lpm	r24, Z
    4422:	90 e0       	ldi	r25, 0x00	; 0
    4424:	88 0f       	add	r24, r24
    4426:	99 1f       	adc	r25, r25
    4428:	fc 01       	movw	r30, r24
    442a:	ee 0f       	add	r30, r30
    442c:	ff 1f       	adc	r31, r31
    442e:	ee 0f       	add	r30, r30
    4430:	ff 1f       	adc	r31, r31
    4432:	ee 0f       	add	r30, r30
    4434:	ff 1f       	adc	r31, r31
    4436:	e8 0f       	add	r30, r24
    4438:	f9 1f       	adc	r31, r25
    443a:	e7 5f       	subi	r30, 0xF7	; 247
    443c:	fb 4f       	sbci	r31, 0xFB	; 251
    443e:	85 91       	lpm	r24, Z+
    4440:	94 91       	lpm	r25, Z
    4442:	90 93 c7 05 	sts	0x05C7, r25	; 0x8005c7 <on_clicks+0x1>
    4446:	80 93 c6 05 	sts	0x05C6, r24	; 0x8005c6 <on_clicks>
    444a:	81 e0       	ldi	r24, 0x01	; 1
    444c:	80 93 d9 05 	sts	0x05D9, r24	; 0x8005d9 <go_func>
    4450:	04 c0       	rjmp	.+8      	; 0x445a <_Z10_key_strobv+0x3ce>
		}
		if (go_func){                                                                                                         // если мы находимся в выполнении функции
    4452:	80 91 d9 05 	lds	r24, 0x05D9	; 0x8005d9 <go_func>
    4456:	88 23       	and	r24, r24
    4458:	f1 f0       	breq	.+60     	; 0x4496 <_Z10_key_strobv+0x40a>
     		if (change_item) if (button_press (KEY_ESC)) {  change_item = false; non_repit = false; }                         // если мы изменяли параметры то по ескейпу перестаем это делать
    445a:	80 91 d8 05 	lds	r24, 0x05D8	; 0x8005d8 <change_item>
    445e:	88 23       	and	r24, r24
    4460:	71 f0       	breq	.+28     	; 0x447e <_Z10_key_strobv+0x3f2>
    4462:	8d e3       	ldi	r24, 0x3D	; 61
    4464:	0e 94 c6 09 	call	0x138c	; 0x138c <_Z12button_pressh>
    4468:	88 23       	and	r24, r24
    446a:	29 f0       	breq	.+10     	; 0x4476 <_Z10_key_strobv+0x3ea>
    446c:	10 92 d8 05 	sts	0x05D8, r1	; 0x8005d8 <change_item>
    4470:	10 92 d7 05 	sts	0x05D7, r1	; 0x8005d7 <non_repit>
    4474:	04 c0       	rjmp	.+8      	; 0x447e <_Z10_key_strobv+0x3f2>
     		if (!change_item){                                                                                                // если мы изменяем параметры
    4476:	80 91 d8 05 	lds	r24, 0x05D8	; 0x8005d8 <change_item>
    447a:	81 11       	cpse	r24, r1
    447c:	0c c0       	rjmp	.+24     	; 0x4496 <_Z10_key_strobv+0x40a>
          		if (button_press (KEY_ESC)) { go_func = false; boolean.change_item_mirr = false;}	                          // если мы не изменяем параметры то по ескейпу выходим
    447e:	8d e3       	ldi	r24, 0x3D	; 61
    4480:	0e 94 c6 09 	call	0x138c	; 0x138c <_Z12button_pressh>
    4484:	88 23       	and	r24, r24
    4486:	39 f0       	breq	.+14     	; 0x4496 <_Z10_key_strobv+0x40a>
    4488:	10 92 d9 05 	sts	0x05D9, r1	; 0x8005d9 <go_func>
    448c:	e8 e8       	ldi	r30, 0x88	; 136
    448e:	f6 e0       	ldi	r31, 0x06	; 6
    4490:	80 81       	ld	r24, Z
    4492:	8f 7d       	andi	r24, 0xDF	; 223
    4494:	80 83       	st	Z, r24
    4496:	08 95       	ret

00004498 <_Z9main_menuv>:
    [PAR7]       =  {"PAR7",          &enter_no_pay,   	               PAR7,              NUL_PTR,       PAR7 ,          PAR1 ,         PAR6 ,             NO_CHILDREN },         
};

void main_menu (void)                // функция меин меню
{
	_key_strob ();                   // отслеживание кнопок
    4498:	f9 dd       	rcall	.-1038   	; 0x408c <_Z10_key_strobv>
	if (go_func) { on_clicks ();}    // если поднят флаг что мы выполняем функции, то выполнять функцию указатель на которую хранится в массиве структур меню
    449a:	80 91 d9 05 	lds	r24, 0x05D9	; 0x8005d9 <go_func>
    449e:	88 23       	and	r24, r24
    44a0:	31 f0       	breq	.+12     	; 0x44ae <_Z9main_menuv+0x16>
    44a2:	e0 91 c6 05 	lds	r30, 0x05C6	; 0x8005c6 <on_clicks>
    44a6:	f0 91 c7 05 	lds	r31, 0x05C7	; 0x8005c7 <on_clicks+0x1>
    44aa:	19 95       	eicall
    44ac:	08 95       	ret
	else	strcpy_P(send_buf, pointer_menu->format );     // если флаг опущен то показывать имя меню 
    44ae:	60 91 01 05 	lds	r22, 0x0501	; 0x800501 <pointer_menu>
    44b2:	70 91 02 05 	lds	r23, 0x0502	; 0x800502 <pointer_menu+0x1>
    44b6:	8c e8       	ldi	r24, 0x8C	; 140
    44b8:	94 e0       	ldi	r25, 0x04	; 4
    44ba:	0c 94 04 46 	jmp	0x8c08	; 0x8c08 <strcpy_P>
    44be:	08 95       	ret

000044c0 <_Z13input_discretPhh>:
{
   input_discret (&param.discret3,3);
}

void input_discret (uint8_t *inbaud, uint8_t nomer)
{
    44c0:	0f 93       	push	r16
    44c2:	1f 93       	push	r17
    44c4:	cf 93       	push	r28
    44c6:	8c 01       	movw	r16, r24
    44c8:	c6 2f       	mov	r28, r22
      if (!change_item){                    // это флаг того что мы изменяем параметры или нет
    44ca:	80 91 d8 05 	lds	r24, 0x05D8	; 0x8005d8 <change_item>
    44ce:	81 11       	cpse	r24, r1
    44d0:	5b c0       	rjmp	.+182    	; 0x4588 <_Z13input_discretPhh+0xc8>
      if (button_press (KEY_ENTER)) {change_item = true;}         // пока не изменяем параметры отслеживаем кнопку ентер, как только нажали поднимаем флаг что мы изменяем параметры
    44d2:	8b e3       	ldi	r24, 0x3B	; 59
    44d4:	0e 94 c6 09 	call	0x138c	; 0x138c <_Z12button_pressh>
    44d8:	88 23       	and	r24, r24
    44da:	19 f0       	breq	.+6      	; 0x44e2 <_Z13input_discretPhh+0x22>
    44dc:	81 e0       	ldi	r24, 0x01	; 1
    44de:	80 93 d8 05 	sts	0x05D8, r24	; 0x8005d8 <change_item>
           sprintf(send_buf, "   %03lu" , (uint32_t) *inbaud ); // пока не изменяем выводим текущее значение параметра на экран
    44e2:	f8 01       	movw	r30, r16
    44e4:	80 81       	ld	r24, Z
    44e6:	1f 92       	push	r1
    44e8:	1f 92       	push	r1
    44ea:	1f 92       	push	r1
    44ec:	8f 93       	push	r24
    44ee:	84 e5       	ldi	r24, 0x54	; 84
    44f0:	92 e0       	ldi	r25, 0x02	; 2
    44f2:	9f 93       	push	r25
    44f4:	8f 93       	push	r24
    44f6:	8c e8       	ldi	r24, 0x8C	; 140
    44f8:	94 e0       	ldi	r25, 0x04	; 4
    44fa:	9f 93       	push	r25
    44fc:	8f 93       	push	r24
    44fe:	0e 94 79 46 	call	0x8cf2	; 0x8cf2 <sprintf>
           switch (*inbaud){                                    // тупая функция но все же. сюда передаем значение хранящиеся в памяти и в зависимости от этого присваиваем промежуточной переменной   
    4502:	2d b7       	in	r18, 0x3d	; 61
    4504:	3e b7       	in	r19, 0x3e	; 62
    4506:	28 5f       	subi	r18, 0xF8	; 248
    4508:	3f 4f       	sbci	r19, 0xFF	; 255
    450a:	0f b6       	in	r0, 0x3f	; 63
    450c:	f8 94       	cli
    450e:	3e bf       	out	0x3e, r19	; 62
    4510:	0f be       	out	0x3f, r0	; 63
    4512:	2d bf       	out	0x3d, r18	; 61
    4514:	f8 01       	movw	r30, r16
    4516:	80 81       	ld	r24, Z
    4518:	8a 30       	cpi	r24, 0x0A	; 10
    451a:	f1 f0       	breq	.+60     	; 0x4558 <_Z13input_discretPhh+0x98>
    451c:	38 f4       	brcc	.+14     	; 0x452c <_Z13input_discretPhh+0x6c>
    451e:	82 30       	cpi	r24, 0x02	; 2
    4520:	99 f0       	breq	.+38     	; 0x4548 <_Z13input_discretPhh+0x88>
    4522:	85 30       	cpi	r24, 0x05	; 5
    4524:	a9 f0       	breq	.+42     	; 0x4550 <_Z13input_discretPhh+0x90>
    4526:	81 30       	cpi	r24, 0x01	; 1
    4528:	51 f5       	brne	.+84     	; 0x457e <_Z13input_discretPhh+0xbe>
    452a:	0b c0       	rjmp	.+22     	; 0x4542 <_Z13input_discretPhh+0x82>
    452c:	82 33       	cpi	r24, 0x32	; 50
    452e:	e1 f0       	breq	.+56     	; 0x4568 <_Z13input_discretPhh+0xa8>
    4530:	18 f4       	brcc	.+6      	; 0x4538 <_Z13input_discretPhh+0x78>
    4532:	84 31       	cpi	r24, 0x14	; 20
    4534:	a9 f0       	breq	.+42     	; 0x4560 <_Z13input_discretPhh+0xa0>
    4536:	23 c0       	rjmp	.+70     	; 0x457e <_Z13input_discretPhh+0xbe>
    4538:	84 36       	cpi	r24, 0x64	; 100
    453a:	d1 f0       	breq	.+52     	; 0x4570 <_Z13input_discretPhh+0xb0>
    453c:	88 3c       	cpi	r24, 0xC8	; 200
    453e:	e1 f0       	breq	.+56     	; 0x4578 <_Z13input_discretPhh+0xb8>
    4540:	1e c0       	rjmp	.+60     	; 0x457e <_Z13input_discretPhh+0xbe>
                case 1:   mirror_data_8bit = 0; break;          // значение из кейсов для того чтоб при входе в изменение показывали текущий пункт перед изменением а не нулевой!
    4542:	10 92 d4 05 	sts	0x05D4, r1	; 0x8005d4 <mirror_data_8bit>
    4546:	1b c0       	rjmp	.+54     	; 0x457e <_Z13input_discretPhh+0xbe>
                case 2:   mirror_data_8bit = 1; break;
    4548:	81 e0       	ldi	r24, 0x01	; 1
    454a:	80 93 d4 05 	sts	0x05D4, r24	; 0x8005d4 <mirror_data_8bit>
    454e:	17 c0       	rjmp	.+46     	; 0x457e <_Z13input_discretPhh+0xbe>
                case 5:   mirror_data_8bit = 2; break;
    4550:	82 e0       	ldi	r24, 0x02	; 2
    4552:	80 93 d4 05 	sts	0x05D4, r24	; 0x8005d4 <mirror_data_8bit>
    4556:	13 c0       	rjmp	.+38     	; 0x457e <_Z13input_discretPhh+0xbe>
                case 10:  mirror_data_8bit = 3; break;
    4558:	83 e0       	ldi	r24, 0x03	; 3
    455a:	80 93 d4 05 	sts	0x05D4, r24	; 0x8005d4 <mirror_data_8bit>
    455e:	0f c0       	rjmp	.+30     	; 0x457e <_Z13input_discretPhh+0xbe>
                case 20:  mirror_data_8bit = 4; break;
    4560:	84 e0       	ldi	r24, 0x04	; 4
    4562:	80 93 d4 05 	sts	0x05D4, r24	; 0x8005d4 <mirror_data_8bit>
    4566:	0b c0       	rjmp	.+22     	; 0x457e <_Z13input_discretPhh+0xbe>
                case 50:  mirror_data_8bit = 5; break;
    4568:	85 e0       	ldi	r24, 0x05	; 5
    456a:	80 93 d4 05 	sts	0x05D4, r24	; 0x8005d4 <mirror_data_8bit>
    456e:	07 c0       	rjmp	.+14     	; 0x457e <_Z13input_discretPhh+0xbe>
                case 100: mirror_data_8bit = 6; break;
    4570:	86 e0       	ldi	r24, 0x06	; 6
    4572:	80 93 d4 05 	sts	0x05D4, r24	; 0x8005d4 <mirror_data_8bit>
    4576:	03 c0       	rjmp	.+6      	; 0x457e <_Z13input_discretPhh+0xbe>
                case 200: mirror_data_8bit = 7; break;
    4578:	87 e0       	ldi	r24, 0x07	; 7
    457a:	80 93 d4 05 	sts	0x05D4, r24	; 0x8005d4 <mirror_data_8bit>
           }
      }
      if (change_item){                                                // теперь если мы изменяем параметры
    457e:	80 91 d8 05 	lds	r24, 0x05D8	; 0x8005d8 <change_item>
    4582:	88 23       	and	r24, r24
    4584:	09 f4       	brne	.+2      	; 0x4588 <_Z13input_discretPhh+0xc8>
    4586:	d7 c0       	rjmp	.+430    	; 0x4736 <_Z13input_discretPhh+0x276>
           if (button_press (KEY_UP)) { if (mirror_data_8bit < 8) mirror_data_8bit ++;  }   // отслеживаем кнопку вверх и пока промежуточное значение меньше 8 плюсуем его
    4588:	8e e3       	ldi	r24, 0x3E	; 62
    458a:	0e 94 c6 09 	call	0x138c	; 0x138c <_Z12button_pressh>
    458e:	88 23       	and	r24, r24
    4590:	39 f0       	breq	.+14     	; 0x45a0 <_Z13input_discretPhh+0xe0>
    4592:	80 91 d4 05 	lds	r24, 0x05D4	; 0x8005d4 <mirror_data_8bit>
    4596:	88 30       	cpi	r24, 0x08	; 8
    4598:	18 f4       	brcc	.+6      	; 0x45a0 <_Z13input_discretPhh+0xe0>
    459a:	8f 5f       	subi	r24, 0xFF	; 255
    459c:	80 93 d4 05 	sts	0x05D4, r24	; 0x8005d4 <mirror_data_8bit>
           if (button_press (KEY_DOWN)) {if (mirror_data_8bit > 0) mirror_data_8bit --; }   // ну или же минусуем
    45a0:	8f e1       	ldi	r24, 0x1F	; 31
    45a2:	0e 94 c6 09 	call	0x138c	; 0x138c <_Z12button_pressh>
    45a6:	88 23       	and	r24, r24
    45a8:	39 f0       	breq	.+14     	; 0x45b8 <_Z13input_discretPhh+0xf8>
    45aa:	80 91 d4 05 	lds	r24, 0x05D4	; 0x8005d4 <mirror_data_8bit>
    45ae:	88 23       	and	r24, r24
    45b0:	89 f0       	breq	.+34     	; 0x45d4 <_Z13input_discretPhh+0x114>
    45b2:	81 50       	subi	r24, 0x01	; 1
    45b4:	80 93 d4 05 	sts	0x05D4, r24	; 0x8005d4 <mirror_data_8bit>
           switch (mirror_data_8bit){                                                       // в зависимости от того до куда доклацали нашу переменную присваиваем новое значение из кейса
    45b8:	80 91 d4 05 	lds	r24, 0x05D4	; 0x8005d4 <mirror_data_8bit>
    45bc:	90 e0       	ldi	r25, 0x00	; 0
    45be:	88 30       	cpi	r24, 0x08	; 8
    45c0:	91 05       	cpc	r25, r1
    45c2:	08 f0       	brcs	.+2      	; 0x45c6 <_Z13input_discretPhh+0x106>
    45c4:	6e c0       	rjmp	.+220    	; 0x46a2 <_Z13input_discretPhh+0x1e2>
    45c6:	fc 01       	movw	r30, r24
    45c8:	88 27       	eor	r24, r24
    45ca:	eb 57       	subi	r30, 0x7B	; 123
    45cc:	ff 4f       	sbci	r31, 0xFF	; 255
    45ce:	8f 4f       	sbci	r24, 0xFF	; 255
    45d0:	0c 94 e2 44 	jmp	0x89c4	; 0x89c4 <__tablejump2__>
                case 0: mirror_data = 1; break;
    45d4:	81 e0       	ldi	r24, 0x01	; 1
    45d6:	90 e0       	ldi	r25, 0x00	; 0
    45d8:	a0 e0       	ldi	r26, 0x00	; 0
    45da:	b0 e0       	ldi	r27, 0x00	; 0
    45dc:	80 93 d0 05 	sts	0x05D0, r24	; 0x8005d0 <mirror_data>
    45e0:	90 93 d1 05 	sts	0x05D1, r25	; 0x8005d1 <mirror_data+0x1>
    45e4:	a0 93 d2 05 	sts	0x05D2, r26	; 0x8005d2 <mirror_data+0x2>
    45e8:	b0 93 d3 05 	sts	0x05D3, r27	; 0x8005d3 <mirror_data+0x3>
    45ec:	5a c0       	rjmp	.+180    	; 0x46a2 <_Z13input_discretPhh+0x1e2>
                case 1: mirror_data = 2; break;
    45ee:	82 e0       	ldi	r24, 0x02	; 2
    45f0:	90 e0       	ldi	r25, 0x00	; 0
    45f2:	a0 e0       	ldi	r26, 0x00	; 0
    45f4:	b0 e0       	ldi	r27, 0x00	; 0
    45f6:	80 93 d0 05 	sts	0x05D0, r24	; 0x8005d0 <mirror_data>
    45fa:	90 93 d1 05 	sts	0x05D1, r25	; 0x8005d1 <mirror_data+0x1>
    45fe:	a0 93 d2 05 	sts	0x05D2, r26	; 0x8005d2 <mirror_data+0x2>
    4602:	b0 93 d3 05 	sts	0x05D3, r27	; 0x8005d3 <mirror_data+0x3>
    4606:	4d c0       	rjmp	.+154    	; 0x46a2 <_Z13input_discretPhh+0x1e2>
                case 2: mirror_data = 5; break;
    4608:	85 e0       	ldi	r24, 0x05	; 5
    460a:	90 e0       	ldi	r25, 0x00	; 0
    460c:	a0 e0       	ldi	r26, 0x00	; 0
    460e:	b0 e0       	ldi	r27, 0x00	; 0
    4610:	80 93 d0 05 	sts	0x05D0, r24	; 0x8005d0 <mirror_data>
    4614:	90 93 d1 05 	sts	0x05D1, r25	; 0x8005d1 <mirror_data+0x1>
    4618:	a0 93 d2 05 	sts	0x05D2, r26	; 0x8005d2 <mirror_data+0x2>
    461c:	b0 93 d3 05 	sts	0x05D3, r27	; 0x8005d3 <mirror_data+0x3>
    4620:	40 c0       	rjmp	.+128    	; 0x46a2 <_Z13input_discretPhh+0x1e2>
                case 3: mirror_data = 10; break;
    4622:	8a e0       	ldi	r24, 0x0A	; 10
    4624:	90 e0       	ldi	r25, 0x00	; 0
    4626:	a0 e0       	ldi	r26, 0x00	; 0
    4628:	b0 e0       	ldi	r27, 0x00	; 0
    462a:	80 93 d0 05 	sts	0x05D0, r24	; 0x8005d0 <mirror_data>
    462e:	90 93 d1 05 	sts	0x05D1, r25	; 0x8005d1 <mirror_data+0x1>
    4632:	a0 93 d2 05 	sts	0x05D2, r26	; 0x8005d2 <mirror_data+0x2>
    4636:	b0 93 d3 05 	sts	0x05D3, r27	; 0x8005d3 <mirror_data+0x3>
    463a:	33 c0       	rjmp	.+102    	; 0x46a2 <_Z13input_discretPhh+0x1e2>
                case 4: mirror_data = 20; break;
    463c:	84 e1       	ldi	r24, 0x14	; 20
    463e:	90 e0       	ldi	r25, 0x00	; 0
    4640:	a0 e0       	ldi	r26, 0x00	; 0
    4642:	b0 e0       	ldi	r27, 0x00	; 0
    4644:	80 93 d0 05 	sts	0x05D0, r24	; 0x8005d0 <mirror_data>
    4648:	90 93 d1 05 	sts	0x05D1, r25	; 0x8005d1 <mirror_data+0x1>
    464c:	a0 93 d2 05 	sts	0x05D2, r26	; 0x8005d2 <mirror_data+0x2>
    4650:	b0 93 d3 05 	sts	0x05D3, r27	; 0x8005d3 <mirror_data+0x3>
    4654:	26 c0       	rjmp	.+76     	; 0x46a2 <_Z13input_discretPhh+0x1e2>
                case 5: mirror_data = 50; break;
    4656:	82 e3       	ldi	r24, 0x32	; 50
    4658:	90 e0       	ldi	r25, 0x00	; 0
    465a:	a0 e0       	ldi	r26, 0x00	; 0
    465c:	b0 e0       	ldi	r27, 0x00	; 0
    465e:	80 93 d0 05 	sts	0x05D0, r24	; 0x8005d0 <mirror_data>
    4662:	90 93 d1 05 	sts	0x05D1, r25	; 0x8005d1 <mirror_data+0x1>
    4666:	a0 93 d2 05 	sts	0x05D2, r26	; 0x8005d2 <mirror_data+0x2>
    466a:	b0 93 d3 05 	sts	0x05D3, r27	; 0x8005d3 <mirror_data+0x3>
    466e:	19 c0       	rjmp	.+50     	; 0x46a2 <_Z13input_discretPhh+0x1e2>
                case 6: mirror_data = 100; break;
    4670:	84 e6       	ldi	r24, 0x64	; 100
    4672:	90 e0       	ldi	r25, 0x00	; 0
    4674:	a0 e0       	ldi	r26, 0x00	; 0
    4676:	b0 e0       	ldi	r27, 0x00	; 0
    4678:	80 93 d0 05 	sts	0x05D0, r24	; 0x8005d0 <mirror_data>
    467c:	90 93 d1 05 	sts	0x05D1, r25	; 0x8005d1 <mirror_data+0x1>
    4680:	a0 93 d2 05 	sts	0x05D2, r26	; 0x8005d2 <mirror_data+0x2>
    4684:	b0 93 d3 05 	sts	0x05D3, r27	; 0x8005d3 <mirror_data+0x3>
    4688:	0c c0       	rjmp	.+24     	; 0x46a2 <_Z13input_discretPhh+0x1e2>
                case 7: mirror_data = 200; break;
    468a:	88 ec       	ldi	r24, 0xC8	; 200
    468c:	90 e0       	ldi	r25, 0x00	; 0
    468e:	a0 e0       	ldi	r26, 0x00	; 0
    4690:	b0 e0       	ldi	r27, 0x00	; 0
    4692:	80 93 d0 05 	sts	0x05D0, r24	; 0x8005d0 <mirror_data>
    4696:	90 93 d1 05 	sts	0x05D1, r25	; 0x8005d1 <mirror_data+0x1>
    469a:	a0 93 d2 05 	sts	0x05D2, r26	; 0x8005d2 <mirror_data+0x2>
    469e:	b0 93 d3 05 	sts	0x05D3, r27	; 0x8005d3 <mirror_data+0x3>
           }
           blink_many_simbol (0b0111000);	                                                 // мигаем 3мя символами
    46a2:	88 e3       	ldi	r24, 0x38	; 56
    46a4:	6c da       	rcall	.-2856   	; 0x3b7e <_Z17blink_many_simbolh>
           sprintf(send_buf, "   %03lu"  ,(uint32_t) mirror_data );                         // показываем текущее значение со смещением вправо и 3мя знаками. если там пусто показывать нули
    46a6:	80 91 d3 05 	lds	r24, 0x05D3	; 0x8005d3 <mirror_data+0x3>
    46aa:	8f 93       	push	r24
    46ac:	80 91 d2 05 	lds	r24, 0x05D2	; 0x8005d2 <mirror_data+0x2>
    46b0:	8f 93       	push	r24
    46b2:	80 91 d1 05 	lds	r24, 0x05D1	; 0x8005d1 <mirror_data+0x1>
    46b6:	8f 93       	push	r24
    46b8:	80 91 d0 05 	lds	r24, 0x05D0	; 0x8005d0 <mirror_data>
    46bc:	8f 93       	push	r24
    46be:	84 e5       	ldi	r24, 0x54	; 84
    46c0:	92 e0       	ldi	r25, 0x02	; 2
    46c2:	9f 93       	push	r25
    46c4:	8f 93       	push	r24
    46c6:	8c e8       	ldi	r24, 0x8C	; 140
    46c8:	94 e0       	ldi	r25, 0x04	; 4
    46ca:	9f 93       	push	r25
    46cc:	8f 93       	push	r24
    46ce:	0e 94 79 46 	call	0x8cf2	; 0x8cf2 <sprintf>
           if (button_press (KEY_ENTER)) {                                                      // при нажатии ентер применяем значение (нужно добавить еепром)
    46d2:	8b e3       	ldi	r24, 0x3B	; 59
    46d4:	0e 94 c6 09 	call	0x138c	; 0x138c <_Z12button_pressh>
    46d8:	2d b7       	in	r18, 0x3d	; 61
    46da:	3e b7       	in	r19, 0x3e	; 62
    46dc:	28 5f       	subi	r18, 0xF8	; 248
    46de:	3f 4f       	sbci	r19, 0xFF	; 255
    46e0:	0f b6       	in	r0, 0x3f	; 63
    46e2:	f8 94       	cli
    46e4:	3e bf       	out	0x3e, r19	; 62
    46e6:	0f be       	out	0x3f, r0	; 63
    46e8:	2d bf       	out	0x3d, r18	; 61
    46ea:	88 23       	and	r24, r24
    46ec:	21 f1       	breq	.+72     	; 0x4736 <_Z13input_discretPhh+0x276>
                change_item = false; non_repit = false;                                         // выйти из режима изменения параметров, сбросить флаг единоразового выполнения при входе в функцию
    46ee:	10 92 d8 05 	sts	0x05D8, r1	; 0x8005d8 <change_item>
    46f2:	10 92 d7 05 	sts	0x05D7, r1	; 0x8005d7 <non_repit>
                if (nomer == 1){ param.discret1 = mirror_data;  EEPROM_write(EE_DISCKRET1,param.discret1); }            // присвоить измененное значение как новое
    46f6:	c1 30       	cpi	r28, 0x01	; 1
    46f8:	49 f4       	brne	.+18     	; 0x470c <_Z13input_discretPhh+0x24c>
    46fa:	60 91 d0 05 	lds	r22, 0x05D0	; 0x8005d0 <mirror_data>
    46fe:	60 93 9d 05 	sts	0x059D, r22	; 0x80059d <param+0x4>
    4702:	81 e0       	ldi	r24, 0x01	; 1
    4704:	90 e0       	ldi	r25, 0x00	; 0
    4706:	0e 94 14 04 	call	0x828	; 0x828 <_Z12EEPROM_writejh>
    470a:	15 c0       	rjmp	.+42     	; 0x4736 <_Z13input_discretPhh+0x276>
                if (nomer == 2){ param.discret2 = mirror_data;  EEPROM_write(EE_DISCKRET2,param.discret2); }
    470c:	c2 30       	cpi	r28, 0x02	; 2
    470e:	49 f4       	brne	.+18     	; 0x4722 <_Z13input_discretPhh+0x262>
    4710:	60 91 d0 05 	lds	r22, 0x05D0	; 0x8005d0 <mirror_data>
    4714:	60 93 9e 05 	sts	0x059E, r22	; 0x80059e <param+0x5>
    4718:	82 e0       	ldi	r24, 0x02	; 2
    471a:	90 e0       	ldi	r25, 0x00	; 0
    471c:	0e 94 14 04 	call	0x828	; 0x828 <_Z12EEPROM_writejh>
    4720:	0a c0       	rjmp	.+20     	; 0x4736 <_Z13input_discretPhh+0x276>
                if (nomer == 3){ param.discret3 = mirror_data;  EEPROM_write(EE_DISCKRET3,param.discret3); }
    4722:	c3 30       	cpi	r28, 0x03	; 3
    4724:	41 f4       	brne	.+16     	; 0x4736 <_Z13input_discretPhh+0x276>
    4726:	60 91 d0 05 	lds	r22, 0x05D0	; 0x8005d0 <mirror_data>
    472a:	60 93 9f 05 	sts	0x059F, r22	; 0x80059f <param+0x6>
    472e:	83 e0       	ldi	r24, 0x03	; 3
    4730:	90 e0       	ldi	r25, 0x00	; 0
    4732:	0e 94 14 04 	call	0x828	; 0x828 <_Z12EEPROM_writejh>
           }
      }    
}
    4736:	cf 91       	pop	r28
    4738:	1f 91       	pop	r17
    473a:	0f 91       	pop	r16
    473c:	08 95       	ret

0000473e <_Z12diskret1_newv>:
	sprintf(send_buf, "%06lu" , (uint32_t) param.caunter_weight );
}

void diskret1_new (void)             // функция ввода дискрета новая, где можно просто перебирать значения а не вводить
{
   input_discret (&param.discret1,1);
    473e:	61 e0       	ldi	r22, 0x01	; 1
    4740:	8d e9       	ldi	r24, 0x9D	; 157
    4742:	95 e0       	ldi	r25, 0x05	; 5
    4744:	bd ce       	rjmp	.-646    	; 0x44c0 <_Z13input_discretPhh>
    4746:	08 95       	ret

00004748 <_Z8discret2v>:
}

void discret2 (void)
{
   input_discret (&param.discret2,2);
    4748:	62 e0       	ldi	r22, 0x02	; 2
    474a:	8e e9       	ldi	r24, 0x9E	; 158
    474c:	95 e0       	ldi	r25, 0x05	; 5
    474e:	b8 ce       	rjmp	.-656    	; 0x44c0 <_Z13input_discretPhh>
    4750:	08 95       	ret

00004752 <_Z8discret3v>:
}

void discret3 (void)
{
   input_discret (&param.discret3,3);
    4752:	63 e0       	ldi	r22, 0x03	; 3
    4754:	8f e9       	ldi	r24, 0x9F	; 159
    4756:	95 e0       	ldi	r25, 0x05	; 5
    4758:	b3 ce       	rjmp	.-666    	; 0x44c0 <_Z13input_discretPhh>
    475a:	08 95       	ret

0000475c <_Z10input_baudPhh>:
{
     input_baud (&param.baud2,2);
}

void input_baud (uint8_t *inbaud, uint8_t nomer)       // сюда передаем ссылку на переменную
{
    475c:	0f 93       	push	r16
    475e:	1f 93       	push	r17
    4760:	cf 93       	push	r28
    4762:	8c 01       	movw	r16, r24
    4764:	c6 2f       	mov	r28, r22
     if (!change_item){                    // это флаг того что мы изменяем параметры или нет
    4766:	80 91 d8 05 	lds	r24, 0x05D8	; 0x8005d8 <change_item>
    476a:	81 11       	cpse	r24, r1
    476c:	53 c0       	rjmp	.+166    	; 0x4814 <_Z10input_baudPhh+0xb8>
          if (button_press (KEY_ENTER)) {change_item = true;}         // пока не изменяем параметры отслеживаем кнопку ентер, как только нажали поднимаем флаг что мы изменяем параметры
    476e:	8b e3       	ldi	r24, 0x3B	; 59
    4770:	0e 94 c6 09 	call	0x138c	; 0x138c <_Z12button_pressh>
    4774:	88 23       	and	r24, r24
    4776:	69 f0       	breq	.+26     	; 0x4792 <_Z10input_baudPhh+0x36>
    4778:	81 e0       	ldi	r24, 0x01	; 1
    477a:	80 93 d8 05 	sts	0x05D8, r24	; 0x8005d8 <change_item>
          switch (*inbaud){                                           // тупая функция но все же. сюда передаем значение хранящиеся в памяти и в зависимости от этого присваиваем промежуточной переменной
    477e:	f8 01       	movw	r30, r16
    4780:	80 81       	ld	r24, Z
    4782:	81 30       	cpi	r24, 0x01	; 1
    4784:	e1 f0       	breq	.+56     	; 0x47be <_Z10input_baudPhh+0x62>
    4786:	78 f0       	brcs	.+30     	; 0x47a6 <_Z10input_baudPhh+0x4a>
    4788:	82 30       	cpi	r24, 0x02	; 2
    478a:	31 f1       	breq	.+76     	; 0x47d8 <_Z10input_baudPhh+0x7c>
    478c:	83 30       	cpi	r24, 0x03	; 3
    478e:	89 f1       	breq	.+98     	; 0x47f2 <_Z10input_baudPhh+0x96>
    4790:	41 c0       	rjmp	.+130    	; 0x4814 <_Z10input_baudPhh+0xb8>
    4792:	f8 01       	movw	r30, r16
    4794:	80 81       	ld	r24, Z
    4796:	81 30       	cpi	r24, 0x01	; 1
    4798:	91 f0       	breq	.+36     	; 0x47be <_Z10input_baudPhh+0x62>
    479a:	28 f0       	brcs	.+10     	; 0x47a6 <_Z10input_baudPhh+0x4a>
    479c:	82 30       	cpi	r24, 0x02	; 2
    479e:	e1 f0       	breq	.+56     	; 0x47d8 <_Z10input_baudPhh+0x7c>
    47a0:	83 30       	cpi	r24, 0x03	; 3
    47a2:	39 f1       	breq	.+78     	; 0x47f2 <_Z10input_baudPhh+0x96>
    47a4:	32 c0       	rjmp	.+100    	; 0x480a <_Z10input_baudPhh+0xae>
               // значение из кейсов для того чтоб при входе в изменение показывали текущий пункт перед изменением а не нулевой!
               case 0:    mirror_data_8bit = 0;sprintf (send_buf, "   600"    ); break;             
    47a6:	10 92 d4 05 	sts	0x05D4, r1	; 0x8005d4 <mirror_data_8bit>
    47aa:	87 e0       	ldi	r24, 0x07	; 7
    47ac:	ed e5       	ldi	r30, 0x5D	; 93
    47ae:	f2 e0       	ldi	r31, 0x02	; 2
    47b0:	ac e8       	ldi	r26, 0x8C	; 140
    47b2:	b4 e0       	ldi	r27, 0x04	; 4
    47b4:	01 90       	ld	r0, Z+
    47b6:	0d 92       	st	X+, r0
    47b8:	8a 95       	dec	r24
    47ba:	e1 f7       	brne	.-8      	; 0x47b4 <_Z10input_baudPhh+0x58>
    47bc:	26 c0       	rjmp	.+76     	; 0x480a <_Z10input_baudPhh+0xae>
               case 1:    mirror_data_8bit = 1;sprintf (send_buf, "  2400"   ); break;          //плюс выводим по разному для красивого отображения
    47be:	81 e0       	ldi	r24, 0x01	; 1
    47c0:	80 93 d4 05 	sts	0x05D4, r24	; 0x8005d4 <mirror_data_8bit>
    47c4:	87 e0       	ldi	r24, 0x07	; 7
    47c6:	e4 e6       	ldi	r30, 0x64	; 100
    47c8:	f2 e0       	ldi	r31, 0x02	; 2
    47ca:	ac e8       	ldi	r26, 0x8C	; 140
    47cc:	b4 e0       	ldi	r27, 0x04	; 4
    47ce:	01 90       	ld	r0, Z+
    47d0:	0d 92       	st	X+, r0
    47d2:	8a 95       	dec	r24
    47d4:	e1 f7       	brne	.-8      	; 0x47ce <_Z10input_baudPhh+0x72>
    47d6:	19 c0       	rjmp	.+50     	; 0x480a <_Z10input_baudPhh+0xae>
               case 2:    mirror_data_8bit = 2;sprintf (send_buf, "  9600"   ); break;
    47d8:	82 e0       	ldi	r24, 0x02	; 2
    47da:	80 93 d4 05 	sts	0x05D4, r24	; 0x8005d4 <mirror_data_8bit>
    47de:	87 e0       	ldi	r24, 0x07	; 7
    47e0:	eb e6       	ldi	r30, 0x6B	; 107
    47e2:	f2 e0       	ldi	r31, 0x02	; 2
    47e4:	ac e8       	ldi	r26, 0x8C	; 140
    47e6:	b4 e0       	ldi	r27, 0x04	; 4
    47e8:	01 90       	ld	r0, Z+
    47ea:	0d 92       	st	X+, r0
    47ec:	8a 95       	dec	r24
    47ee:	e1 f7       	brne	.-8      	; 0x47e8 <_Z10input_baudPhh+0x8c>
    47f0:	0c c0       	rjmp	.+24     	; 0x480a <_Z10input_baudPhh+0xae>
               case 3:    mirror_data_8bit = 3;sprintf (send_buf, " 19200"  ); break;
    47f2:	83 e0       	ldi	r24, 0x03	; 3
    47f4:	80 93 d4 05 	sts	0x05D4, r24	; 0x8005d4 <mirror_data_8bit>
    47f8:	87 e0       	ldi	r24, 0x07	; 7
    47fa:	e2 e7       	ldi	r30, 0x72	; 114
    47fc:	f2 e0       	ldi	r31, 0x02	; 2
    47fe:	ac e8       	ldi	r26, 0x8C	; 140
    4800:	b4 e0       	ldi	r27, 0x04	; 4
    4802:	01 90       	ld	r0, Z+
    4804:	0d 92       	st	X+, r0
    4806:	8a 95       	dec	r24
    4808:	e1 f7       	brne	.-8      	; 0x4802 <_Z10input_baudPhh+0xa6>
          }
     }
     if (change_item){                                                // теперь если мы изменяем параметры
    480a:	80 91 d8 05 	lds	r24, 0x05D8	; 0x8005d8 <change_item>
    480e:	88 23       	and	r24, r24
    4810:	09 f4       	brne	.+2      	; 0x4814 <_Z10input_baudPhh+0xb8>
    4812:	a2 c0       	rjmp	.+324    	; 0x4958 <_Z10input_baudPhh+0x1fc>
          if (button_press (KEY_UP)) { if (mirror_data_8bit < 3) mirror_data_8bit ++;  }   // отслеживаем кнопку вверх и пока промежуточное значение меньше 8 плюсуем его
    4814:	8e e3       	ldi	r24, 0x3E	; 62
    4816:	0e 94 c6 09 	call	0x138c	; 0x138c <_Z12button_pressh>
    481a:	88 23       	and	r24, r24
    481c:	39 f0       	breq	.+14     	; 0x482c <_Z10input_baudPhh+0xd0>
    481e:	80 91 d4 05 	lds	r24, 0x05D4	; 0x8005d4 <mirror_data_8bit>
    4822:	83 30       	cpi	r24, 0x03	; 3
    4824:	18 f4       	brcc	.+6      	; 0x482c <_Z10input_baudPhh+0xd0>
    4826:	8f 5f       	subi	r24, 0xFF	; 255
    4828:	80 93 d4 05 	sts	0x05D4, r24	; 0x8005d4 <mirror_data_8bit>
          if (button_press (KEY_DOWN)) {if (mirror_data_8bit > 0) mirror_data_8bit --; }   // ну или же минусуем
    482c:	8f e1       	ldi	r24, 0x1F	; 31
    482e:	0e 94 c6 09 	call	0x138c	; 0x138c <_Z12button_pressh>
    4832:	88 23       	and	r24, r24
    4834:	39 f0       	breq	.+14     	; 0x4844 <_Z10input_baudPhh+0xe8>
    4836:	80 91 d4 05 	lds	r24, 0x05D4	; 0x8005d4 <mirror_data_8bit>
    483a:	88 23       	and	r24, r24
    483c:	71 f0       	breq	.+28     	; 0x485a <_Z10input_baudPhh+0xfe>
    483e:	81 50       	subi	r24, 0x01	; 1
    4840:	80 93 d4 05 	sts	0x05D4, r24	; 0x8005d4 <mirror_data_8bit>
          switch (mirror_data_8bit){                                                       // в зависимости от того до куда доклацали нашу переменную присваиваем новое значение из кейса
    4844:	80 91 d4 05 	lds	r24, 0x05D4	; 0x8005d4 <mirror_data_8bit>
    4848:	81 30       	cpi	r24, 0x01	; 1
    484a:	d9 f0       	breq	.+54     	; 0x4882 <_Z10input_baudPhh+0x126>
    484c:	30 f0       	brcs	.+12     	; 0x485a <_Z10input_baudPhh+0xfe>
    484e:	82 30       	cpi	r24, 0x02	; 2
    4850:	81 f1       	breq	.+96     	; 0x48b2 <_Z10input_baudPhh+0x156>
    4852:	83 30       	cpi	r24, 0x03	; 3
    4854:	09 f4       	brne	.+2      	; 0x4858 <_Z10input_baudPhh+0xfc>
    4856:	45 c0       	rjmp	.+138    	; 0x48e2 <_Z10input_baudPhh+0x186>
    4858:	5b c0       	rjmp	.+182    	; 0x4910 <_Z10input_baudPhh+0x1b4>
               case 0: mirror_data = 0;   blink_many_simbol (0b0111111); sprintf(send_buf, "   600"    );  break;         
    485a:	10 92 d0 05 	sts	0x05D0, r1	; 0x8005d0 <mirror_data>
    485e:	10 92 d1 05 	sts	0x05D1, r1	; 0x8005d1 <mirror_data+0x1>
    4862:	10 92 d2 05 	sts	0x05D2, r1	; 0x8005d2 <mirror_data+0x2>
    4866:	10 92 d3 05 	sts	0x05D3, r1	; 0x8005d3 <mirror_data+0x3>
    486a:	8f e3       	ldi	r24, 0x3F	; 63
    486c:	88 d9       	rcall	.-3312   	; 0x3b7e <_Z17blink_many_simbolh>
    486e:	87 e0       	ldi	r24, 0x07	; 7
    4870:	ed e5       	ldi	r30, 0x5D	; 93
    4872:	f2 e0       	ldi	r31, 0x02	; 2
    4874:	ac e8       	ldi	r26, 0x8C	; 140
    4876:	b4 e0       	ldi	r27, 0x04	; 4
    4878:	01 90       	ld	r0, Z+
    487a:	0d 92       	st	X+, r0
    487c:	8a 95       	dec	r24
    487e:	e1 f7       	brne	.-8      	; 0x4878 <_Z10input_baudPhh+0x11c>
    4880:	47 c0       	rjmp	.+142    	; 0x4910 <_Z10input_baudPhh+0x1b4>
               case 1: mirror_data = 1;   blink_many_simbol (0b0111111); sprintf(send_buf, "  2400"   );  break;
    4882:	81 e0       	ldi	r24, 0x01	; 1
    4884:	90 e0       	ldi	r25, 0x00	; 0
    4886:	a0 e0       	ldi	r26, 0x00	; 0
    4888:	b0 e0       	ldi	r27, 0x00	; 0
    488a:	80 93 d0 05 	sts	0x05D0, r24	; 0x8005d0 <mirror_data>
    488e:	90 93 d1 05 	sts	0x05D1, r25	; 0x8005d1 <mirror_data+0x1>
    4892:	a0 93 d2 05 	sts	0x05D2, r26	; 0x8005d2 <mirror_data+0x2>
    4896:	b0 93 d3 05 	sts	0x05D3, r27	; 0x8005d3 <mirror_data+0x3>
    489a:	8f e3       	ldi	r24, 0x3F	; 63
    489c:	70 d9       	rcall	.-3360   	; 0x3b7e <_Z17blink_many_simbolh>
    489e:	87 e0       	ldi	r24, 0x07	; 7
    48a0:	e4 e6       	ldi	r30, 0x64	; 100
    48a2:	f2 e0       	ldi	r31, 0x02	; 2
    48a4:	ac e8       	ldi	r26, 0x8C	; 140
    48a6:	b4 e0       	ldi	r27, 0x04	; 4
    48a8:	01 90       	ld	r0, Z+
    48aa:	0d 92       	st	X+, r0
    48ac:	8a 95       	dec	r24
    48ae:	e1 f7       	brne	.-8      	; 0x48a8 <_Z10input_baudPhh+0x14c>
    48b0:	2f c0       	rjmp	.+94     	; 0x4910 <_Z10input_baudPhh+0x1b4>
               case 2: mirror_data = 2;   blink_many_simbol (0b0111111); sprintf(send_buf, "  9600"   );  break;
    48b2:	82 e0       	ldi	r24, 0x02	; 2
    48b4:	90 e0       	ldi	r25, 0x00	; 0
    48b6:	a0 e0       	ldi	r26, 0x00	; 0
    48b8:	b0 e0       	ldi	r27, 0x00	; 0
    48ba:	80 93 d0 05 	sts	0x05D0, r24	; 0x8005d0 <mirror_data>
    48be:	90 93 d1 05 	sts	0x05D1, r25	; 0x8005d1 <mirror_data+0x1>
    48c2:	a0 93 d2 05 	sts	0x05D2, r26	; 0x8005d2 <mirror_data+0x2>
    48c6:	b0 93 d3 05 	sts	0x05D3, r27	; 0x8005d3 <mirror_data+0x3>
    48ca:	8f e3       	ldi	r24, 0x3F	; 63
    48cc:	58 d9       	rcall	.-3408   	; 0x3b7e <_Z17blink_many_simbolh>
    48ce:	87 e0       	ldi	r24, 0x07	; 7
    48d0:	eb e6       	ldi	r30, 0x6B	; 107
    48d2:	f2 e0       	ldi	r31, 0x02	; 2
    48d4:	ac e8       	ldi	r26, 0x8C	; 140
    48d6:	b4 e0       	ldi	r27, 0x04	; 4
    48d8:	01 90       	ld	r0, Z+
    48da:	0d 92       	st	X+, r0
    48dc:	8a 95       	dec	r24
    48de:	e1 f7       	brne	.-8      	; 0x48d8 <_Z10input_baudPhh+0x17c>
    48e0:	17 c0       	rjmp	.+46     	; 0x4910 <_Z10input_baudPhh+0x1b4>
               case 3: mirror_data = 3;   blink_many_simbol (0b0111111); sprintf(send_buf, " 19200"  );  break;
    48e2:	83 e0       	ldi	r24, 0x03	; 3
    48e4:	90 e0       	ldi	r25, 0x00	; 0
    48e6:	a0 e0       	ldi	r26, 0x00	; 0
    48e8:	b0 e0       	ldi	r27, 0x00	; 0
    48ea:	80 93 d0 05 	sts	0x05D0, r24	; 0x8005d0 <mirror_data>
    48ee:	90 93 d1 05 	sts	0x05D1, r25	; 0x8005d1 <mirror_data+0x1>
    48f2:	a0 93 d2 05 	sts	0x05D2, r26	; 0x8005d2 <mirror_data+0x2>
    48f6:	b0 93 d3 05 	sts	0x05D3, r27	; 0x8005d3 <mirror_data+0x3>
    48fa:	8f e3       	ldi	r24, 0x3F	; 63
    48fc:	40 d9       	rcall	.-3456   	; 0x3b7e <_Z17blink_many_simbolh>
    48fe:	87 e0       	ldi	r24, 0x07	; 7
    4900:	e2 e7       	ldi	r30, 0x72	; 114
    4902:	f2 e0       	ldi	r31, 0x02	; 2
    4904:	ac e8       	ldi	r26, 0x8C	; 140
    4906:	b4 e0       	ldi	r27, 0x04	; 4
    4908:	01 90       	ld	r0, Z+
    490a:	0d 92       	st	X+, r0
    490c:	8a 95       	dec	r24
    490e:	e1 f7       	brne	.-8      	; 0x4908 <_Z10input_baudPhh+0x1ac>
          }
          if (button_press (KEY_ENTER)) {                                                       // при нажатии ентер применяем значение (нужно добавить еепром)
    4910:	8b e3       	ldi	r24, 0x3B	; 59
    4912:	0e 94 c6 09 	call	0x138c	; 0x138c <_Z12button_pressh>
    4916:	88 23       	and	r24, r24
    4918:	f9 f0       	breq	.+62     	; 0x4958 <_Z10input_baudPhh+0x1fc>
               change_item = false; non_repit = false;                                          // выйти из режима изменения параметров, сбросить флаг единоразового выполнения при входе в функцию
    491a:	10 92 d8 05 	sts	0x05D8, r1	; 0x8005d8 <change_item>
    491e:	10 92 d7 05 	sts	0x05D7, r1	; 0x8005d7 <non_repit>
               if (nomer == 1){ param.baud1 = mirror_data_8bit;  EEPROM_write(EE_BAUD1,param.baud1); }            // присвоить измененное значение как новое
    4922:	c1 30       	cpi	r28, 0x01	; 1
    4924:	49 f4       	brne	.+18     	; 0x4938 <_Z10input_baudPhh+0x1dc>
    4926:	60 91 d4 05 	lds	r22, 0x05D4	; 0x8005d4 <mirror_data_8bit>
    492a:	60 93 ae 05 	sts	0x05AE, r22	; 0x8005ae <param+0x15>
    492e:	8e e0       	ldi	r24, 0x0E	; 14
    4930:	90 e0       	ldi	r25, 0x00	; 0
    4932:	0e 94 14 04 	call	0x828	; 0x828 <_Z12EEPROM_writejh>
    4936:	0a c0       	rjmp	.+20     	; 0x494c <_Z10input_baudPhh+0x1f0>
               if (nomer == 2){ param.baud2 = mirror_data_8bit;  EEPROM_write(EE_BAUD2,param.baud2); } 
    4938:	c2 30       	cpi	r28, 0x02	; 2
    493a:	41 f4       	brne	.+16     	; 0x494c <_Z10input_baudPhh+0x1f0>
    493c:	60 91 d4 05 	lds	r22, 0x05D4	; 0x8005d4 <mirror_data_8bit>
    4940:	60 93 af 05 	sts	0x05AF, r22	; 0x8005af <param+0x16>
    4944:	8f e0       	ldi	r24, 0x0F	; 15
    4946:	90 e0       	ldi	r25, 0x00	; 0
    4948:	0e 94 14 04 	call	0x828	; 0x828 <_Z12EEPROM_writejh>
               init_UART_0_1 (param.baud1, param.baud2);    
    494c:	e9 e9       	ldi	r30, 0x99	; 153
    494e:	f5 e0       	ldi	r31, 0x05	; 5
    4950:	66 89       	ldd	r22, Z+22	; 0x16
    4952:	85 89       	ldd	r24, Z+21	; 0x15
    4954:	0e 94 bc 33 	call	0x6778	; 0x6778 <_Z13init_UART_0_1hh>
          }
     }
}
    4958:	cf 91       	pop	r28
    495a:	1f 91       	pop	r17
    495c:	0f 91       	pop	r16
    495e:	08 95       	ret

00004960 <_Z10baud_rate1v>:
     enter_8bit (1,2,&param.tip_cd,EE_TIPCD,1); 
}

void baud_rate1 (void)                 // короче для одинаковых функций ввода решил сделать обобщающую функцию, это экономит память
{
  input_baud (&param.baud1,1);
    4960:	61 e0       	ldi	r22, 0x01	; 1
    4962:	8e ea       	ldi	r24, 0xAE	; 174
    4964:	95 e0       	ldi	r25, 0x05	; 5
    4966:	fa ce       	rjmp	.-524    	; 0x475c <_Z10input_baudPhh>
    4968:	08 95       	ret

0000496a <_Z10baud_rate2v>:
}

void baud_rate2 (void)
{
     input_baud (&param.baud2,2);
    496a:	62 e0       	ldi	r22, 0x02	; 2
    496c:	8f ea       	ldi	r24, 0xAF	; 175
    496e:	95 e0       	ldi	r25, 0x05	; 5
    4970:	f5 ce       	rjmp	.-534    	; 0x475c <_Z10input_baudPhh>
    4972:	08 95       	ret

00004974 <_Z9init_menuv>:
	}
}

void init_menu (void)                   // функция инициализации меню. просто указателю присваиваем нулевой пункт меню.
{
	pointer_menu = ((MenuItem*)&MenuItems[0]);      // так получаю правильный адрес
    4974:	8f ef       	ldi	r24, 0xFF	; 255
    4976:	93 e0       	ldi	r25, 0x03	; 3
    4978:	90 93 02 05 	sts	0x0502, r25	; 0x800502 <pointer_menu+0x1>
    497c:	80 93 01 05 	sts	0x0501, r24	; 0x800501 <pointer_menu>
    4980:	08 95       	ret

00004982 <_Z10error_funch>:
     super_parol = true;
     #endif
}

void error_func (uint8_t error_number)  // фунция для отображения 
{
    4982:	cf 93       	push	r28
    4984:	df 93       	push	r29
	tim_0 = 0;                          // сбрасываем таймер моргания
    4986:	10 92 39 03 	sts	0x0339, r1	; 0x800339 <tim_0+0x1>
    498a:	10 92 38 03 	sts	0x0338, r1	; 0x800338 <tim_0>
	tim_1 = 60000;                      // взводим таймер отображения ерора
    498e:	20 e6       	ldi	r18, 0x60	; 96
    4990:	3a ee       	ldi	r19, 0xEA	; 234
    4992:	30 93 37 03 	sts	0x0337, r19	; 0x800337 <tim_1+0x1>
    4996:	20 93 36 03 	sts	0x0336, r18	; 0x800336 <tim_1>
	while (!tim_1 == 0)                 // и падаем в вайл, а в нем вызываем показ различных строк из флеша
	{strcpy_P(send_buf, (PGM_P)pgm_read_word(&(error_string[error_number])));}     // если компилятор не знает какие именно данные я буду использовать то он не сможет подставить значение. и по этому нужно передавать вот такую дичь
    499a:	c8 2f       	mov	r28, r24
    499c:	d0 e0       	ldi	r29, 0x00	; 0
    499e:	cc 0f       	add	r28, r28
    49a0:	dd 1f       	adc	r29, r29
    49a2:	c1 53       	subi	r28, 0x31	; 49
    49a4:	d9 4f       	sbci	r29, 0xF9	; 249
    49a6:	fe 01       	movw	r30, r28
    49a8:	65 91       	lpm	r22, Z+
    49aa:	74 91       	lpm	r23, Z
    49ac:	8c e8       	ldi	r24, 0x8C	; 140
    49ae:	94 e0       	ldi	r25, 0x04	; 4
    49b0:	0e 94 04 46 	call	0x8c08	; 0x8c08 <strcpy_P>

void error_func (uint8_t error_number)  // фунция для отображения 
{
	tim_0 = 0;                          // сбрасываем таймер моргания
	tim_1 = 60000;                      // взводим таймер отображения ерора
	while (!tim_1 == 0)                 // и падаем в вайл, а в нем вызываем показ различных строк из флеша
    49b4:	20 91 36 03 	lds	r18, 0x0336	; 0x800336 <tim_1>
    49b8:	30 91 37 03 	lds	r19, 0x0337	; 0x800337 <tim_1+0x1>
    49bc:	23 2b       	or	r18, r19
    49be:	99 f7       	brne	.-26     	; 0x49a6 <_Z10error_funch+0x24>
	{strcpy_P(send_buf, (PGM_P)pgm_read_word(&(error_string[error_number])));}     // если компилятор не знает какие именно данные я буду использовать то он не сможет подставить значение. и по этому нужно передавать вот такую дичь
}
    49c0:	df 91       	pop	r29
    49c2:	cf 91       	pop	r28
    49c4:	08 95       	ret

000049c6 <_Z10enter_1307PjS_S_h>:
{
   enter_1307(&DS.date, &DS.month, &DS.year, 1);    
}

void enter_1307 (unsigned int *number1, unsigned int *number2, unsigned int *number3, uint8_t option)    // обобщеная функция ввода времни и даты
{
    49c6:	df 92       	push	r13
    49c8:	ef 92       	push	r14
    49ca:	ff 92       	push	r15
    49cc:	0f 93       	push	r16
    49ce:	1f 93       	push	r17
    49d0:	cf 93       	push	r28
    49d2:	df 93       	push	r29
    49d4:	ec 01       	movw	r28, r24
    49d6:	8b 01       	movw	r16, r22
    49d8:	7a 01       	movw	r14, r20
    49da:	d2 2e       	mov	r13, r18
    if (tim_5 == 0) { tim_5 = 15000;  DS_Read(); } 
    49dc:	80 91 30 03 	lds	r24, 0x0330	; 0x800330 <tim_5>
    49e0:	90 91 31 03 	lds	r25, 0x0331	; 0x800331 <tim_5+0x1>
    49e4:	89 2b       	or	r24, r25
    49e6:	41 f4       	brne	.+16     	; 0x49f8 <_Z10enter_1307PjS_S_h+0x32>
    49e8:	88 e9       	ldi	r24, 0x98	; 152
    49ea:	9a e3       	ldi	r25, 0x3A	; 58
    49ec:	90 93 31 03 	sts	0x0331, r25	; 0x800331 <tim_5+0x1>
    49f0:	80 93 30 03 	sts	0x0330, r24	; 0x800330 <tim_5>
    49f4:	0e 94 15 33 	call	0x662a	; 0x662a <_Z7DS_Readv>
	if (!change_item){
    49f8:	80 91 d8 05 	lds	r24, 0x05D8	; 0x8005d8 <change_item>
    49fc:	81 11       	cpse	r24, r1
    49fe:	3b c0       	rjmp	.+118    	; 0x4a76 <_Z10enter_1307PjS_S_h+0xb0>
     	if (admin_parol|| super_parol || option != 1) if (button_press (KEY_ENTER)) {change_item = true; mirror_data_8bit = 0;}      // это защита от входа в изменение даты без пароля
    4a00:	80 91 d5 05 	lds	r24, 0x05D5	; 0x8005d5 <admin_parol>
    4a04:	81 11       	cpse	r24, r1
    4a06:	07 c0       	rjmp	.+14     	; 0x4a16 <_Z10enter_1307PjS_S_h+0x50>
    4a08:	80 91 d6 05 	lds	r24, 0x05D6	; 0x8005d6 <super_parol>
    4a0c:	81 11       	cpse	r24, r1
    4a0e:	03 c0       	rjmp	.+6      	; 0x4a16 <_Z10enter_1307PjS_S_h+0x50>
    4a10:	21 e0       	ldi	r18, 0x01	; 1
    4a12:	d2 16       	cp	r13, r18
    4a14:	51 f0       	breq	.+20     	; 0x4a2a <_Z10enter_1307PjS_S_h+0x64>
    4a16:	8b e3       	ldi	r24, 0x3B	; 59
    4a18:	0e 94 c6 09 	call	0x138c	; 0x138c <_Z12button_pressh>
    4a1c:	88 23       	and	r24, r24
    4a1e:	29 f0       	breq	.+10     	; 0x4a2a <_Z10enter_1307PjS_S_h+0x64>
    4a20:	81 e0       	ldi	r24, 0x01	; 1
    4a22:	80 93 d8 05 	sts	0x05D8, r24	; 0x8005d8 <change_item>
    4a26:	10 92 d4 05 	sts	0x05D4, r1	; 0x8005d4 <mirror_data_8bit>
     	sprintf(send_buf, "%02d.%02d.%02d." ,  *number1,*number2,*number3);                                                          // тут показываем или время или дату. передаем сюда указатель на данные
    4a2a:	f7 01       	movw	r30, r14
    4a2c:	81 81       	ldd	r24, Z+1	; 0x01
    4a2e:	8f 93       	push	r24
    4a30:	80 81       	ld	r24, Z
    4a32:	8f 93       	push	r24
    4a34:	f8 01       	movw	r30, r16
    4a36:	81 81       	ldd	r24, Z+1	; 0x01
    4a38:	8f 93       	push	r24
    4a3a:	80 81       	ld	r24, Z
    4a3c:	8f 93       	push	r24
    4a3e:	89 81       	ldd	r24, Y+1	; 0x01
    4a40:	8f 93       	push	r24
    4a42:	88 81       	ld	r24, Y
    4a44:	8f 93       	push	r24
    4a46:	8d e1       	ldi	r24, 0x1D	; 29
    4a48:	92 e0       	ldi	r25, 0x02	; 2
    4a4a:	9f 93       	push	r25
    4a4c:	8f 93       	push	r24
    4a4e:	8c e8       	ldi	r24, 0x8C	; 140
    4a50:	94 e0       	ldi	r25, 0x04	; 4
    4a52:	9f 93       	push	r25
    4a54:	8f 93       	push	r24
    4a56:	0e 94 79 46 	call	0x8cf2	; 0x8cf2 <sprintf>
	}
	if (change_item){
    4a5a:	2d b7       	in	r18, 0x3d	; 61
    4a5c:	3e b7       	in	r19, 0x3e	; 62
    4a5e:	26 5f       	subi	r18, 0xF6	; 246
    4a60:	3f 4f       	sbci	r19, 0xFF	; 255
    4a62:	0f b6       	in	r0, 0x3f	; 63
    4a64:	f8 94       	cli
    4a66:	3e bf       	out	0x3e, r19	; 62
    4a68:	0f be       	out	0x3f, r0	; 63
    4a6a:	2d bf       	out	0x3d, r18	; 61
    4a6c:	80 91 d8 05 	lds	r24, 0x05D8	; 0x8005d8 <change_item>
    4a70:	88 23       	and	r24, r24
    4a72:	09 f4       	brne	.+2      	; 0x4a76 <_Z10enter_1307PjS_S_h+0xb0>
    4a74:	21 c1       	rjmp	.+578    	; 0x4cb8 <_Z10enter_1307PjS_S_h+0x2f2>
     	tim_3 = 1000;                                                                                 // сбрасываем таймер чтоб в это время не опрашивались часы
    4a76:	88 ee       	ldi	r24, 0xE8	; 232
    4a78:	93 e0       	ldi	r25, 0x03	; 3
    4a7a:	90 93 33 03 	sts	0x0333, r25	; 0x800333 <tim_3+0x1>
    4a7e:	80 93 32 03 	sts	0x0332, r24	; 0x800332 <tim_3>
     	static char itedger [10] ;                                                                    // буффер для хранения разбитых данных  // по хорошему нужно сделать один большой буффер для всех
     	if (!non_repit){ non_repit = true;  sprintf(itedger, "%02d%02d%02d" ,  *number1,*number2,*number3 ); mirror_data_8bit = 0 ; }     // при первом входе забиваем буффер текущими данными
    4a82:	80 91 d7 05 	lds	r24, 0x05D7	; 0x8005d7 <non_repit>
    4a86:	81 11       	cpse	r24, r1
    4a88:	27 c0       	rjmp	.+78     	; 0x4ad8 <_Z10enter_1307PjS_S_h+0x112>
    4a8a:	81 e0       	ldi	r24, 0x01	; 1
    4a8c:	80 93 d7 05 	sts	0x05D7, r24	; 0x8005d7 <non_repit>
    4a90:	f7 01       	movw	r30, r14
    4a92:	81 81       	ldd	r24, Z+1	; 0x01
    4a94:	8f 93       	push	r24
    4a96:	80 81       	ld	r24, Z
    4a98:	8f 93       	push	r24
    4a9a:	f8 01       	movw	r30, r16
    4a9c:	81 81       	ldd	r24, Z+1	; 0x01
    4a9e:	8f 93       	push	r24
    4aa0:	80 81       	ld	r24, Z
    4aa2:	8f 93       	push	r24
    4aa4:	89 81       	ldd	r24, Y+1	; 0x01
    4aa6:	8f 93       	push	r24
    4aa8:	88 81       	ld	r24, Y
    4aaa:	8f 93       	push	r24
    4aac:	89 e7       	ldi	r24, 0x79	; 121
    4aae:	92 e0       	ldi	r25, 0x02	; 2
    4ab0:	9f 93       	push	r25
    4ab2:	8f 93       	push	r24
    4ab4:	8a ec       	ldi	r24, 0xCA	; 202
    4ab6:	94 e0       	ldi	r25, 0x04	; 4
    4ab8:	9f 93       	push	r25
    4aba:	8f 93       	push	r24
    4abc:	0e 94 79 46 	call	0x8cf2	; 0x8cf2 <sprintf>
    4ac0:	10 92 d4 05 	sts	0x05D4, r1	; 0x8005d4 <mirror_data_8bit>
    4ac4:	2d b7       	in	r18, 0x3d	; 61
    4ac6:	3e b7       	in	r19, 0x3e	; 62
    4ac8:	26 5f       	subi	r18, 0xF6	; 246
    4aca:	3f 4f       	sbci	r19, 0xFF	; 255
    4acc:	0f b6       	in	r0, 0x3f	; 63
    4ace:	f8 94       	cli
    4ad0:	3e bf       	out	0x3e, r19	; 62
    4ad2:	0f be       	out	0x3f, r0	; 63
    4ad4:	2d bf       	out	0x3d, r18	; 61
    4ad6:	f0 c0       	rjmp	.+480    	; 0x4cb8 <_Z10enter_1307PjS_S_h+0x2f2>
     	else {
          	if (button_press (KEY_RIGHT)) { if (mirror_data_8bit < 5  ) mirror_data_8bit ++; }           // кнопка в право увеличивает переменную которая отвечает за номер вводимого символа
    4ad8:	8f e2       	ldi	r24, 0x2F	; 47
    4ada:	0e 94 c6 09 	call	0x138c	; 0x138c <_Z12button_pressh>
    4ade:	88 23       	and	r24, r24
    4ae0:	39 f0       	breq	.+14     	; 0x4af0 <_Z10enter_1307PjS_S_h+0x12a>
    4ae2:	80 91 d4 05 	lds	r24, 0x05D4	; 0x8005d4 <mirror_data_8bit>
    4ae6:	85 30       	cpi	r24, 0x05	; 5
    4ae8:	18 f4       	brcc	.+6      	; 0x4af0 <_Z10enter_1307PjS_S_h+0x12a>
    4aea:	8f 5f       	subi	r24, 0xFF	; 255
    4aec:	80 93 d4 05 	sts	0x05D4, r24	; 0x8005d4 <mirror_data_8bit>
          	if (button_press (KEY_LEFT)) {if (mirror_data_8bit > 0) mirror_data_8bit --;}                // кнопка в лево уменьшает
    4af0:	87 e3       	ldi	r24, 0x37	; 55
    4af2:	0e 94 c6 09 	call	0x138c	; 0x138c <_Z12button_pressh>
    4af6:	88 23       	and	r24, r24
    4af8:	39 f0       	breq	.+14     	; 0x4b08 <_Z10enter_1307PjS_S_h+0x142>
    4afa:	80 91 d4 05 	lds	r24, 0x05D4	; 0x8005d4 <mirror_data_8bit>
    4afe:	88 23       	and	r24, r24
    4b00:	19 f0       	breq	.+6      	; 0x4b08 <_Z10enter_1307PjS_S_h+0x142>
    4b02:	81 50       	subi	r24, 0x01	; 1
    4b04:	80 93 d4 05 	sts	0x05D4, r24	; 0x8005d4 <mirror_data_8bit>
          	if (button_press (KEY_UP)) {                                                                 // кнопка вверх 
    4b08:	8e e3       	ldi	r24, 0x3E	; 62
    4b0a:	0e 94 c6 09 	call	0x138c	; 0x138c <_Z12button_pressh>
    4b0e:	88 23       	and	r24, r24
    4b10:	d9 f0       	breq	.+54     	; 0x4b48 <_Z10enter_1307PjS_S_h+0x182>
               	if (itedger[mirror_data_8bit] - '0' < 9) itedger[mirror_data_8bit]  ++;                  // проверяет какой символ в элементе буффера. если это цифра, и она меньше 9 то можно ее увеличить
    4b12:	80 91 d4 05 	lds	r24, 0x05D4	; 0x8005d4 <mirror_data_8bit>
    4b16:	90 e0       	ldi	r25, 0x00	; 0
    4b18:	fc 01       	movw	r30, r24
    4b1a:	e6 53       	subi	r30, 0x36	; 54
    4b1c:	fb 4f       	sbci	r31, 0xFB	; 251
    4b1e:	20 81       	ld	r18, Z
    4b20:	42 2f       	mov	r20, r18
    4b22:	50 e0       	ldi	r21, 0x00	; 0
    4b24:	40 53       	subi	r20, 0x30	; 48
    4b26:	51 09       	sbc	r21, r1
    4b28:	49 30       	cpi	r20, 0x09	; 9
    4b2a:	51 05       	cpc	r21, r1
    4b2c:	34 f4       	brge	.+12     	; 0x4b3a <_Z10enter_1307PjS_S_h+0x174>
    4b2e:	fc 01       	movw	r30, r24
    4b30:	e6 53       	subi	r30, 0x36	; 54
    4b32:	fb 4f       	sbci	r31, 0xFB	; 251
    4b34:	2f 5f       	subi	r18, 0xFF	; 255
    4b36:	20 83       	st	Z, r18
    4b38:	07 c0       	rjmp	.+14     	; 0x4b48 <_Z10enter_1307PjS_S_h+0x182>
               	else if(itedger[mirror_data_8bit] - '0' == 9) itedger[mirror_data_8bit] = '0';           // если же это 9ка, то сбросить в ноль. типа зациклить. минус символ нуля это для перевода из аски
    4b3a:	29 33       	cpi	r18, 0x39	; 57
    4b3c:	29 f4       	brne	.+10     	; 0x4b48 <_Z10enter_1307PjS_S_h+0x182>
    4b3e:	fc 01       	movw	r30, r24
    4b40:	e6 53       	subi	r30, 0x36	; 54
    4b42:	fb 4f       	sbci	r31, 0xFB	; 251
    4b44:	20 e3       	ldi	r18, 0x30	; 48
    4b46:	20 83       	st	Z, r18
          	}          // щас подумал, по хорошему переделать, и все указать в аски, таким образом даже если там будет мусор то мы его обнаружим
          	if (button_press (KEY_DOWN)) {                                                               // кнопка вверх делает тоже самое но в другом направлении
    4b48:	8f e1       	ldi	r24, 0x1F	; 31
    4b4a:	0e 94 c6 09 	call	0x138c	; 0x138c <_Z12button_pressh>
    4b4e:	88 23       	and	r24, r24
    4b50:	d9 f0       	breq	.+54     	; 0x4b88 <_Z10enter_1307PjS_S_h+0x1c2>
               	if (itedger[mirror_data_8bit] - '0'  > 0) itedger[mirror_data_8bit]  --;
    4b52:	80 91 d4 05 	lds	r24, 0x05D4	; 0x8005d4 <mirror_data_8bit>
    4b56:	90 e0       	ldi	r25, 0x00	; 0
    4b58:	fc 01       	movw	r30, r24
    4b5a:	e6 53       	subi	r30, 0x36	; 54
    4b5c:	fb 4f       	sbci	r31, 0xFB	; 251
    4b5e:	20 81       	ld	r18, Z
    4b60:	42 2f       	mov	r20, r18
    4b62:	50 e0       	ldi	r21, 0x00	; 0
    4b64:	40 53       	subi	r20, 0x30	; 48
    4b66:	51 09       	sbc	r21, r1
    4b68:	14 16       	cp	r1, r20
    4b6a:	15 06       	cpc	r1, r21
    4b6c:	34 f4       	brge	.+12     	; 0x4b7a <_Z10enter_1307PjS_S_h+0x1b4>
    4b6e:	fc 01       	movw	r30, r24
    4b70:	e6 53       	subi	r30, 0x36	; 54
    4b72:	fb 4f       	sbci	r31, 0xFB	; 251
    4b74:	21 50       	subi	r18, 0x01	; 1
    4b76:	20 83       	st	Z, r18
    4b78:	07 c0       	rjmp	.+14     	; 0x4b88 <_Z10enter_1307PjS_S_h+0x1c2>
               	else if(itedger[mirror_data_8bit] - '0'  == 0) itedger[mirror_data_8bit]  = '9';
    4b7a:	20 33       	cpi	r18, 0x30	; 48
    4b7c:	29 f4       	brne	.+10     	; 0x4b88 <_Z10enter_1307PjS_S_h+0x1c2>
    4b7e:	fc 01       	movw	r30, r24
    4b80:	e6 53       	subi	r30, 0x36	; 54
    4b82:	fb 4f       	sbci	r31, 0xFB	; 251
    4b84:	29 e3       	ldi	r18, 0x39	; 57
    4b86:	20 83       	st	Z, r18
          	}
          	sscanf(itedger,"%02u%02u%02u" ,  number1, number2, number3 );                                 // тут мы складываем обратно в переменные наш буфер
    4b88:	ff 92       	push	r15
    4b8a:	ef 92       	push	r14
    4b8c:	1f 93       	push	r17
    4b8e:	0f 93       	push	r16
    4b90:	df 93       	push	r29
    4b92:	cf 93       	push	r28
    4b94:	86 e8       	ldi	r24, 0x86	; 134
    4b96:	92 e0       	ldi	r25, 0x02	; 2
    4b98:	9f 93       	push	r25
    4b9a:	8f 93       	push	r24
    4b9c:	8a ec       	ldi	r24, 0xCA	; 202
    4b9e:	94 e0       	ldi	r25, 0x04	; 4
    4ba0:	9f 93       	push	r25
    4ba2:	8f 93       	push	r24
    4ba4:	0e 94 a7 46 	call	0x8d4e	; 0x8d4e <sscanf>
          	blink_simbol (mirror_data_8bit);                                                              // моргаем тем символом, на который указывает переменная вводимого символа
    4ba8:	80 91 d4 05 	lds	r24, 0x05D4	; 0x8005d4 <mirror_data_8bit>
    4bac:	0e 94 ab 1d 	call	0x3b56	; 0x3b56 <_Z12blink_simbolh>
          	sprintf(send_buf, "%02d.%02d.%02d." ,  *number1,*number2,*number3);                           // тут отображаем на экране уже собранные из буффера переменные
    4bb0:	f7 01       	movw	r30, r14
    4bb2:	81 81       	ldd	r24, Z+1	; 0x01
    4bb4:	8f 93       	push	r24
    4bb6:	80 81       	ld	r24, Z
    4bb8:	8f 93       	push	r24
    4bba:	f8 01       	movw	r30, r16
    4bbc:	81 81       	ldd	r24, Z+1	; 0x01
    4bbe:	8f 93       	push	r24
    4bc0:	80 81       	ld	r24, Z
    4bc2:	8f 93       	push	r24
    4bc4:	89 81       	ldd	r24, Y+1	; 0x01
    4bc6:	8f 93       	push	r24
    4bc8:	88 81       	ld	r24, Y
    4bca:	8f 93       	push	r24
    4bcc:	8d e1       	ldi	r24, 0x1D	; 29
    4bce:	92 e0       	ldi	r25, 0x02	; 2
    4bd0:	9f 93       	push	r25
    4bd2:	8f 93       	push	r24
    4bd4:	8c e8       	ldi	r24, 0x8C	; 140
    4bd6:	94 e0       	ldi	r25, 0x04	; 4
    4bd8:	9f 93       	push	r25
    4bda:	8f 93       	push	r24
    4bdc:	0e 94 79 46 	call	0x8cf2	; 0x8cf2 <sprintf>
          	if (button_press (KEY_ENTER)) {                                                               // по нажатию клавиши ентер
    4be0:	8b e3       	ldi	r24, 0x3B	; 59
    4be2:	0e 94 c6 09 	call	0x138c	; 0x138c <_Z12button_pressh>
    4be6:	2d b7       	in	r18, 0x3d	; 61
    4be8:	3e b7       	in	r19, 0x3e	; 62
    4bea:	2c 5e       	subi	r18, 0xEC	; 236
    4bec:	3f 4f       	sbci	r19, 0xFF	; 255
    4bee:	0f b6       	in	r0, 0x3f	; 63
    4bf0:	f8 94       	cli
    4bf2:	3e bf       	out	0x3e, r19	; 62
    4bf4:	0f be       	out	0x3f, r0	; 63
    4bf6:	2d bf       	out	0x3d, r18	; 61
    4bf8:	88 23       	and	r24, r24
    4bfa:	09 f4       	brne	.+2      	; 0x4bfe <_Z10enter_1307PjS_S_h+0x238>
    4bfc:	5d c0       	rjmp	.+186    	; 0x4cb8 <_Z10enter_1307PjS_S_h+0x2f2>
               	change_item = false; non_repit = false;                                                   // выходим из изменения параметров, и сбрасываем флаг единичного выполнения
    4bfe:	10 92 d8 05 	sts	0x05D8, r1	; 0x8005d8 <change_item>
    4c02:	10 92 d7 05 	sts	0x05D7, r1	; 0x8005d7 <non_repit>
                if (option == 0)   {                                                                      // если передавали 0 то значит это была дата
    4c06:	d1 10       	cpse	r13, r1
    4c08:	18 c0       	rjmp	.+48     	; 0x4c3a <_Z10enter_1307PjS_S_h+0x274>
               	  if ( DS.hour < 25 && DS.min < 60 && DS.sec < 60) {DS_Write_time ();}                    // если мы находимся в диапазоне правильных значений, записать их в микру часов
    4c0a:	80 91 de 05 	lds	r24, 0x05DE	; 0x8005de <DS+0x4>
    4c0e:	90 91 df 05 	lds	r25, 0x05DF	; 0x8005df <DS+0x5>
    4c12:	49 97       	sbiw	r24, 0x19	; 25
    4c14:	78 f4       	brcc	.+30     	; 0x4c34 <_Z10enter_1307PjS_S_h+0x26e>
    4c16:	80 91 dc 05 	lds	r24, 0x05DC	; 0x8005dc <DS+0x2>
    4c1a:	90 91 dd 05 	lds	r25, 0x05DD	; 0x8005dd <DS+0x3>
    4c1e:	cc 97       	sbiw	r24, 0x3c	; 60
    4c20:	48 f4       	brcc	.+18     	; 0x4c34 <_Z10enter_1307PjS_S_h+0x26e>
    4c22:	80 91 da 05 	lds	r24, 0x05DA	; 0x8005da <DS>
    4c26:	90 91 db 05 	lds	r25, 0x05DB	; 0x8005db <DS+0x1>
    4c2a:	cc 97       	sbiw	r24, 0x3c	; 60
    4c2c:	18 f4       	brcc	.+6      	; 0x4c34 <_Z10enter_1307PjS_S_h+0x26e>
    4c2e:	0e 94 69 32 	call	0x64d2	; 0x64d2 <_Z13DS_Write_timev>
    4c32:	42 c0       	rjmp	.+132    	; 0x4cb8 <_Z10enter_1307PjS_S_h+0x2f2>
                  else { error_func(ERROR5);}                                                             // если значения не правильные еррор
    4c34:	85 e0       	ldi	r24, 0x05	; 5
    4c36:	a5 de       	rcall	.-694    	; 0x4982 <_Z10error_funch>
    4c38:	3f c0       	rjmp	.+126    	; 0x4cb8 <_Z10enter_1307PjS_S_h+0x2f2>
                }  
                if (option == 1)   {                                                                      // аналогично для даты
    4c3a:	31 e0       	ldi	r19, 0x01	; 1
    4c3c:	d3 12       	cpse	r13, r19
    4c3e:	19 c0       	rjmp	.+50     	; 0x4c72 <_Z10enter_1307PjS_S_h+0x2ac>
                  if ( DS.date < 31 && DS.month < 13 && DS.year < 99) {DS_Write_date ();}
    4c40:	80 91 e2 05 	lds	r24, 0x05E2	; 0x8005e2 <DS+0x8>
    4c44:	90 91 e3 05 	lds	r25, 0x05E3	; 0x8005e3 <DS+0x9>
    4c48:	4f 97       	sbiw	r24, 0x1f	; 31
    4c4a:	80 f4       	brcc	.+32     	; 0x4c6c <_Z10enter_1307PjS_S_h+0x2a6>
    4c4c:	80 91 e4 05 	lds	r24, 0x05E4	; 0x8005e4 <DS+0xa>
    4c50:	90 91 e5 05 	lds	r25, 0x05E5	; 0x8005e5 <DS+0xb>
    4c54:	0d 97       	sbiw	r24, 0x0d	; 13
    4c56:	50 f4       	brcc	.+20     	; 0x4c6c <_Z10enter_1307PjS_S_h+0x2a6>
    4c58:	80 91 e6 05 	lds	r24, 0x05E6	; 0x8005e6 <DS+0xc>
    4c5c:	90 91 e7 05 	lds	r25, 0x05E7	; 0x8005e7 <DS+0xd>
    4c60:	83 36       	cpi	r24, 0x63	; 99
    4c62:	91 05       	cpc	r25, r1
    4c64:	18 f4       	brcc	.+6      	; 0x4c6c <_Z10enter_1307PjS_S_h+0x2a6>
    4c66:	0e 94 b9 32 	call	0x6572	; 0x6572 <_Z13DS_Write_datev>
    4c6a:	26 c0       	rjmp	.+76     	; 0x4cb8 <_Z10enter_1307PjS_S_h+0x2f2>
                  else { error_func(ERROR5);}                
    4c6c:	85 e0       	ldi	r24, 0x05	; 5
    4c6e:	89 de       	rcall	.-750    	; 0x4982 <_Z10error_funch>
    4c70:	23 c0       	rjmp	.+70     	; 0x4cb8 <_Z10enter_1307PjS_S_h+0x2f2>
                } 
                if (option == 2)   {                                                                      // аналогично для даты err36
    4c72:	82 e0       	ldi	r24, 0x02	; 2
    4c74:	d8 12       	cpse	r13, r24
    4c76:	20 c0       	rjmp	.+64     	; 0x4cb8 <_Z10enter_1307PjS_S_h+0x2f2>
                     if ( *number1 < 31 && *number2 < 13 && *number3 < 99) {write_no_pay ();massa = 2;}   // масса переиспользуется 
    4c78:	88 81       	ld	r24, Y
    4c7a:	99 81       	ldd	r25, Y+1	; 0x01
    4c7c:	4f 97       	sbiw	r24, 0x1f	; 31
    4c7e:	d0 f4       	brcc	.+52     	; 0x4cb4 <_Z10enter_1307PjS_S_h+0x2ee>
    4c80:	f8 01       	movw	r30, r16
    4c82:	80 81       	ld	r24, Z
    4c84:	91 81       	ldd	r25, Z+1	; 0x01
    4c86:	0d 97       	sbiw	r24, 0x0d	; 13
    4c88:	a8 f4       	brcc	.+42     	; 0x4cb4 <_Z10enter_1307PjS_S_h+0x2ee>
    4c8a:	f7 01       	movw	r30, r14
    4c8c:	80 81       	ld	r24, Z
    4c8e:	91 81       	ldd	r25, Z+1	; 0x01
    4c90:	83 36       	cpi	r24, 0x63	; 99
    4c92:	91 05       	cpc	r25, r1
    4c94:	78 f4       	brcc	.+30     	; 0x4cb4 <_Z10enter_1307PjS_S_h+0x2ee>
    4c96:	0e 94 d8 07 	call	0xfb0	; 0xfb0 <_Z12write_no_payv>
    4c9a:	82 e0       	ldi	r24, 0x02	; 2
    4c9c:	90 e0       	ldi	r25, 0x00	; 0
    4c9e:	a0 e0       	ldi	r26, 0x00	; 0
    4ca0:	b0 e0       	ldi	r27, 0x00	; 0
    4ca2:	80 93 7a 04 	sts	0x047A, r24	; 0x80047a <massa>
    4ca6:	90 93 7b 04 	sts	0x047B, r25	; 0x80047b <massa+0x1>
    4caa:	a0 93 7c 04 	sts	0x047C, r26	; 0x80047c <massa+0x2>
    4cae:	b0 93 7d 04 	sts	0x047D, r27	; 0x80047d <massa+0x3>
                     else { error_func(ERROR5);}
    4cb2:	02 c0       	rjmp	.+4      	; 0x4cb8 <_Z10enter_1307PjS_S_h+0x2f2>
    4cb4:	85 e0       	ldi	r24, 0x05	; 5
    4cb6:	65 de       	rcall	.-822    	; 0x4982 <_Z10error_funch>
                }                                                       
          	}
     	}
	}       
}
    4cb8:	df 91       	pop	r29
    4cba:	cf 91       	pop	r28
    4cbc:	1f 91       	pop	r17
    4cbe:	0f 91       	pop	r16
    4cc0:	ff 90       	pop	r15
    4cc2:	ef 90       	pop	r14
    4cc4:	df 90       	pop	r13
    4cc6:	08 95       	ret

00004cc8 <_Z10enter_timev>:
	}
}

void enter_time (void)                  // функция ввода времени    
{
    enter_1307(&DS.hour, &DS.min, &DS.sec, 0);
    4cc8:	20 e0       	ldi	r18, 0x00	; 0
    4cca:	4a ed       	ldi	r20, 0xDA	; 218
    4ccc:	55 e0       	ldi	r21, 0x05	; 5
    4cce:	6c ed       	ldi	r22, 0xDC	; 220
    4cd0:	75 e0       	ldi	r23, 0x05	; 5
    4cd2:	8e ed       	ldi	r24, 0xDE	; 222
    4cd4:	95 e0       	ldi	r25, 0x05	; 5
    4cd6:	77 ce       	rjmp	.-786    	; 0x49c6 <_Z10enter_1307PjS_S_h>
    4cd8:	08 95       	ret

00004cda <_Z10enter_datev>:
}

void enter_date (void)                  // функция ввода даты
{
   enter_1307(&DS.date, &DS.month, &DS.year, 1);    
    4cda:	21 e0       	ldi	r18, 0x01	; 1
    4cdc:	46 ee       	ldi	r20, 0xE6	; 230
    4cde:	55 e0       	ldi	r21, 0x05	; 5
    4ce0:	64 ee       	ldi	r22, 0xE4	; 228
    4ce2:	75 e0       	ldi	r23, 0x05	; 5
    4ce4:	82 ee       	ldi	r24, 0xE2	; 226
    4ce6:	95 e0       	ldi	r25, 0x05	; 5
    4ce8:	6e ce       	rjmp	.-804    	; 0x49c6 <_Z10enter_1307PjS_S_h>
    4cea:	08 95       	ret

00004cec <_Z11adress_sensv>:
}

void adress_sens (void)                             // адресация датчиков
{
     static uint8_t last_adr;                       // предыдущий адрес
     if (!change_item){                              // пока не изменяем
    4cec:	80 91 d8 05 	lds	r24, 0x05D8	; 0x8005d8 <change_item>
    4cf0:	81 11       	cpse	r24, r1
    4cf2:	19 c0       	rjmp	.+50     	; 0x4d26 <_Z11adress_sensv+0x3a>
          if (not_change()) if (button_press (KEY_ENTER)) {change_item = true;}      // ждем пароль доступа
    4cf4:	41 d9       	rcall	.-3454   	; 0x3f78 <_Z10not_changev>
    4cf6:	88 23       	and	r24, r24
    4cf8:	41 f0       	breq	.+16     	; 0x4d0a <_Z11adress_sensv+0x1e>
    4cfa:	8b e3       	ldi	r24, 0x3B	; 59
    4cfc:	0e 94 c6 09 	call	0x138c	; 0x138c <_Z12button_pressh>
    4d00:	88 23       	and	r24, r24
    4d02:	19 f0       	breq	.+6      	; 0x4d0a <_Z11adress_sensv+0x1e>
    4d04:	81 e0       	ldi	r24, 0x01	; 1
    4d06:	80 93 d8 05 	sts	0x05D8, r24	; 0x8005d8 <change_item>
          sprintf(send_buf, " START" );                                              // и показываем старт
    4d0a:	87 e0       	ldi	r24, 0x07	; 7
    4d0c:	e3 e9       	ldi	r30, 0x93	; 147
    4d0e:	f2 e0       	ldi	r31, 0x02	; 2
    4d10:	ac e8       	ldi	r26, 0x8C	; 140
    4d12:	b4 e0       	ldi	r27, 0x04	; 4
    4d14:	01 90       	ld	r0, Z+
    4d16:	0d 92       	st	X+, r0
    4d18:	8a 95       	dec	r24
    4d1a:	e1 f7       	brne	.-8      	; 0x4d14 <_Z11adress_sensv+0x28>
     }
     if (change_item){
    4d1c:	80 91 d8 05 	lds	r24, 0x05D8	; 0x8005d8 <change_item>
    4d20:	88 23       	and	r24, r24
    4d22:	09 f4       	brne	.+2      	; 0x4d26 <_Z11adress_sensv+0x3a>
    4d24:	5d c0       	rjmp	.+186    	; 0x4de0 <_Z11adress_sensv+0xf4>
          if (!non_repit){ non_repit = true;  mirror_data_8bit = get_number_sensor (); last_adr = mirror_data_8bit; }  // при первом заходе сканируем, находим датчик
    4d26:	80 91 d7 05 	lds	r24, 0x05D7	; 0x8005d7 <non_repit>
    4d2a:	81 11       	cpse	r24, r1
    4d2c:	09 c0       	rjmp	.+18     	; 0x4d40 <_Z11adress_sensv+0x54>
    4d2e:	81 e0       	ldi	r24, 0x01	; 1
    4d30:	80 93 d7 05 	sts	0x05D7, r24	; 0x8005d7 <non_repit>
    4d34:	0e 94 f0 3a 	call	0x75e0	; 0x75e0 <_Z17get_number_sensorv>
    4d38:	80 93 d4 05 	sts	0x05D4, r24	; 0x8005d4 <mirror_data_8bit>
    4d3c:	80 93 a4 04 	sts	0x04A4, r24	; 0x8004a4 <_ZZ11adress_sensvE8last_adr>
          if (mirror_data_8bit == 100) {error_func (ERROR4); change_item = false; non_repit = false; }                 // если там 100 значит какая то ошибка
    4d40:	80 91 d4 05 	lds	r24, 0x05D4	; 0x8005d4 <mirror_data_8bit>
    4d44:	84 36       	cpi	r24, 0x64	; 100
    4d46:	39 f4       	brne	.+14     	; 0x4d56 <_Z11adress_sensv+0x6a>
    4d48:	84 e0       	ldi	r24, 0x04	; 4
    4d4a:	1b de       	rcall	.-970    	; 0x4982 <_Z10error_funch>
    4d4c:	10 92 d8 05 	sts	0x05D8, r1	; 0x8005d8 <change_item>
    4d50:	10 92 d7 05 	sts	0x05D7, r1	; 0x8005d7 <non_repit>
    4d54:	08 95       	ret
          else {
               if (button_press (KEY_UP)) { if (mirror_data_8bit < 12) mirror_data_8bit ++;  }                              // или плюсуем или отнимаем
    4d56:	8e e3       	ldi	r24, 0x3E	; 62
    4d58:	0e 94 c6 09 	call	0x138c	; 0x138c <_Z12button_pressh>
    4d5c:	88 23       	and	r24, r24
    4d5e:	39 f0       	breq	.+14     	; 0x4d6e <_Z11adress_sensv+0x82>
    4d60:	80 91 d4 05 	lds	r24, 0x05D4	; 0x8005d4 <mirror_data_8bit>
    4d64:	8c 30       	cpi	r24, 0x0C	; 12
    4d66:	18 f4       	brcc	.+6      	; 0x4d6e <_Z11adress_sensv+0x82>
    4d68:	8f 5f       	subi	r24, 0xFF	; 255
    4d6a:	80 93 d4 05 	sts	0x05D4, r24	; 0x8005d4 <mirror_data_8bit>
               if (button_press (KEY_DOWN)) {if (mirror_data_8bit > 1) mirror_data_8bit --; }                               //
    4d6e:	8f e1       	ldi	r24, 0x1F	; 31
    4d70:	0e 94 c6 09 	call	0x138c	; 0x138c <_Z12button_pressh>
    4d74:	88 23       	and	r24, r24
    4d76:	39 f0       	breq	.+14     	; 0x4d86 <_Z11adress_sensv+0x9a>
    4d78:	80 91 d4 05 	lds	r24, 0x05D4	; 0x8005d4 <mirror_data_8bit>
    4d7c:	82 30       	cpi	r24, 0x02	; 2
    4d7e:	18 f0       	brcs	.+6      	; 0x4d86 <_Z11adress_sensv+0x9a>
    4d80:	81 50       	subi	r24, 0x01	; 1
    4d82:	80 93 d4 05 	sts	0x05D4, r24	; 0x8005d4 <mirror_data_8bit>
               blink_many_simbol (0x30);                                                                     // мигаем двумя правыми символами
    4d86:	80 e3       	ldi	r24, 0x30	; 48
    4d88:	0e 94 bf 1d 	call	0x3b7e	; 0x3b7e <_Z17blink_many_simbolh>
               sprintf(send_buf, "    %02lu"  ,(uint32_t) mirror_data_8bit );                                               // показать то что выбрали (номер датчика)
    4d8c:	80 91 d4 05 	lds	r24, 0x05D4	; 0x8005d4 <mirror_data_8bit>
    4d90:	1f 92       	push	r1
    4d92:	1f 92       	push	r1
    4d94:	1f 92       	push	r1
    4d96:	8f 93       	push	r24
    4d98:	8a e4       	ldi	r24, 0x4A	; 74
    4d9a:	92 e0       	ldi	r25, 0x02	; 2
    4d9c:	9f 93       	push	r25
    4d9e:	8f 93       	push	r24
    4da0:	8c e8       	ldi	r24, 0x8C	; 140
    4da2:	94 e0       	ldi	r25, 0x04	; 4
    4da4:	9f 93       	push	r25
    4da6:	8f 93       	push	r24
    4da8:	0e 94 79 46 	call	0x8cf2	; 0x8cf2 <sprintf>
               if (button_press (KEY_ENTER)) {                                                                              // по нажатию ентер присвоить новое значение
    4dac:	8b e3       	ldi	r24, 0x3B	; 59
    4dae:	0e 94 c6 09 	call	0x138c	; 0x138c <_Z12button_pressh>
    4db2:	2d b7       	in	r18, 0x3d	; 61
    4db4:	3e b7       	in	r19, 0x3e	; 62
    4db6:	28 5f       	subi	r18, 0xF8	; 248
    4db8:	3f 4f       	sbci	r19, 0xFF	; 255
    4dba:	0f b6       	in	r0, 0x3f	; 63
    4dbc:	f8 94       	cli
    4dbe:	3e bf       	out	0x3e, r19	; 62
    4dc0:	0f be       	out	0x3f, r0	; 63
    4dc2:	2d bf       	out	0x3d, r18	; 61
    4dc4:	88 23       	and	r24, r24
    4dc6:	61 f0       	breq	.+24     	; 0x4de0 <_Z11adress_sensv+0xf4>
                    send_new_adr (last_adr,mirror_data_8bit);
    4dc8:	60 91 d4 05 	lds	r22, 0x05D4	; 0x8005d4 <mirror_data_8bit>
    4dcc:	80 91 a4 04 	lds	r24, 0x04A4	; 0x8004a4 <_ZZ11adress_sensvE8last_adr>
    4dd0:	0e 94 d2 3d 	call	0x7ba4	; 0x7ba4 <_Z12send_new_adrhh>
                    change_item = false; non_repit = false;
    4dd4:	10 92 d8 05 	sts	0x05D8, r1	; 0x8005d8 <change_item>
    4dd8:	10 92 d7 05 	sts	0x05D7, r1	; 0x8005d7 <non_repit>
                    error_func (NOERROR);                                                                                     // тут нету обратной связи, по этому вот такое подставное ок
    4ddc:	88 e0       	ldi	r24, 0x08	; 8
    4dde:	d1 cd       	rjmp	.-1118   	; 0x4982 <_Z10error_funch>
    4de0:	08 95       	ret

00004de2 <_Z13enter_numbersh>:
{
	
}

void enter_numbers (uint8_t size )               // можно передавать значение от 0 до 5. это количество значимых цифр
{
    4de2:	cf 93       	push	r28
    4de4:	c8 2f       	mov	r28, r24
	static uint8_t  caunter_input;               // создаем счетчик
	static char itedger [10] ;                   // создаем буффер
	if (!non_repit){ non_repit = true; mirror_data = labs(mirror_data);  sprintf(itedger, "%06ld"  ,(int32_t) mirror_data ); caunter_input = 5 - size; }    // первое выполнение, разбиваем входящее число на элементы в буффер, а так же делаем смещение на 
    4de6:	80 91 d7 05 	lds	r24, 0x05D7	; 0x8005d7 <non_repit>
    4dea:	81 11       	cpse	r24, r1
    4dec:	37 c0       	rjmp	.+110    	; 0x4e5c <_Z13enter_numbersh+0x7a>
    4dee:	81 e0       	ldi	r24, 0x01	; 1
    4df0:	80 93 d7 05 	sts	0x05D7, r24	; 0x8005d7 <non_repit>
    4df4:	80 91 d0 05 	lds	r24, 0x05D0	; 0x8005d0 <mirror_data>
    4df8:	90 91 d1 05 	lds	r25, 0x05D1	; 0x8005d1 <mirror_data+0x1>
    4dfc:	a0 91 d2 05 	lds	r26, 0x05D2	; 0x8005d2 <mirror_data+0x2>
    4e00:	b0 91 d3 05 	lds	r27, 0x05D3	; 0x8005d3 <mirror_data+0x3>
    4e04:	bb 23       	and	r27, r27
    4e06:	3c f4       	brge	.+14     	; 0x4e16 <_Z13enter_numbersh+0x34>
    4e08:	b0 95       	com	r27
    4e0a:	a0 95       	com	r26
    4e0c:	90 95       	com	r25
    4e0e:	81 95       	neg	r24
    4e10:	9f 4f       	sbci	r25, 0xFF	; 255
    4e12:	af 4f       	sbci	r26, 0xFF	; 255
    4e14:	bf 4f       	sbci	r27, 0xFF	; 255
    4e16:	80 93 d0 05 	sts	0x05D0, r24	; 0x8005d0 <mirror_data>
    4e1a:	90 93 d1 05 	sts	0x05D1, r25	; 0x8005d1 <mirror_data+0x1>
    4e1e:	a0 93 d2 05 	sts	0x05D2, r26	; 0x8005d2 <mirror_data+0x2>
    4e22:	b0 93 d3 05 	sts	0x05D3, r27	; 0x8005d3 <mirror_data+0x3>
    4e26:	bf 93       	push	r27
    4e28:	af 93       	push	r26
    4e2a:	9f 93       	push	r25
    4e2c:	8f 93       	push	r24
    4e2e:	8a e9       	ldi	r24, 0x9A	; 154
    4e30:	92 e0       	ldi	r25, 0x02	; 2
    4e32:	9f 93       	push	r25
    4e34:	8f 93       	push	r24
    4e36:	8c eb       	ldi	r24, 0xBC	; 188
    4e38:	94 e0       	ldi	r25, 0x04	; 4
    4e3a:	9f 93       	push	r25
    4e3c:	8f 93       	push	r24
    4e3e:	0e 94 79 46 	call	0x8cf2	; 0x8cf2 <sprintf>
    4e42:	85 e0       	ldi	r24, 0x05	; 5
    4e44:	8c 1b       	sub	r24, r28
    4e46:	80 93 bb 04 	sts	0x04BB, r24	; 0x8004bb <_ZZ13enter_numbershE13caunter_input>
    4e4a:	8d b7       	in	r24, 0x3d	; 61
    4e4c:	9e b7       	in	r25, 0x3e	; 62
    4e4e:	08 96       	adiw	r24, 0x08	; 8
    4e50:	0f b6       	in	r0, 0x3f	; 63
    4e52:	f8 94       	cli
    4e54:	9e bf       	out	0x3e, r25	; 62
    4e56:	0f be       	out	0x3f, r0	; 63
    4e58:	8d bf       	out	0x3d, r24	; 61
    4e5a:	09 c1       	rjmp	.+530    	; 0x506e <_Z13enter_numbersh+0x28c>
	else {                                                                                                                  // то количество сколько символов передали
		if (button_press (KEY_RIGHT)) { if (caunter_input < 5  ) caunter_input ++; }                                        // кнопка в право, сместить указатель
    4e5c:	8f e2       	ldi	r24, 0x2F	; 47
    4e5e:	0e 94 c6 09 	call	0x138c	; 0x138c <_Z12button_pressh>
    4e62:	88 23       	and	r24, r24
    4e64:	39 f0       	breq	.+14     	; 0x4e74 <_Z13enter_numbersh+0x92>
    4e66:	80 91 bb 04 	lds	r24, 0x04BB	; 0x8004bb <_ZZ13enter_numbershE13caunter_input>
    4e6a:	85 30       	cpi	r24, 0x05	; 5
    4e6c:	18 f4       	brcc	.+6      	; 0x4e74 <_Z13enter_numbersh+0x92>
    4e6e:	8f 5f       	subi	r24, 0xFF	; 255
    4e70:	80 93 bb 04 	sts	0x04BB, r24	; 0x8004bb <_ZZ13enter_numbershE13caunter_input>
		if (button_press (KEY_LEFT)) {if (caunter_input >( 5 - size)) caunter_input --;}                                    // аналогично сместить в другую сторону если можна
    4e74:	87 e3       	ldi	r24, 0x37	; 55
    4e76:	0e 94 c6 09 	call	0x138c	; 0x138c <_Z12button_pressh>
    4e7a:	88 23       	and	r24, r24
    4e7c:	71 f0       	breq	.+28     	; 0x4e9a <_Z13enter_numbersh+0xb8>
    4e7e:	20 91 bb 04 	lds	r18, 0x04BB	; 0x8004bb <_ZZ13enter_numbershE13caunter_input>
    4e82:	42 2f       	mov	r20, r18
    4e84:	50 e0       	ldi	r21, 0x00	; 0
    4e86:	85 e0       	ldi	r24, 0x05	; 5
    4e88:	90 e0       	ldi	r25, 0x00	; 0
    4e8a:	8c 1b       	sub	r24, r28
    4e8c:	91 09       	sbc	r25, r1
    4e8e:	84 17       	cp	r24, r20
    4e90:	95 07       	cpc	r25, r21
    4e92:	1c f4       	brge	.+6      	; 0x4e9a <_Z13enter_numbersh+0xb8>
    4e94:	21 50       	subi	r18, 0x01	; 1
    4e96:	20 93 bb 04 	sts	0x04BB, r18	; 0x8004bb <_ZZ13enter_numbershE13caunter_input>
		if (button_press (KEY_UP)) {
    4e9a:	8e e3       	ldi	r24, 0x3E	; 62
    4e9c:	0e 94 c6 09 	call	0x138c	; 0x138c <_Z12button_pressh>
    4ea0:	88 23       	and	r24, r24
    4ea2:	d9 f0       	breq	.+54     	; 0x4eda <_Z13enter_numbersh+0xf8>
			if (itedger[caunter_input] - '0' < 9) itedger[caunter_input]  ++;                                               // как и в функции времени проверяем какой символ у нас в элементе буфера и по возможности увеличиваем
    4ea4:	80 91 bb 04 	lds	r24, 0x04BB	; 0x8004bb <_ZZ13enter_numbershE13caunter_input>
    4ea8:	90 e0       	ldi	r25, 0x00	; 0
    4eaa:	fc 01       	movw	r30, r24
    4eac:	e4 54       	subi	r30, 0x44	; 68
    4eae:	fb 4f       	sbci	r31, 0xFB	; 251
    4eb0:	20 81       	ld	r18, Z
    4eb2:	42 2f       	mov	r20, r18
    4eb4:	50 e0       	ldi	r21, 0x00	; 0
    4eb6:	40 53       	subi	r20, 0x30	; 48
    4eb8:	51 09       	sbc	r21, r1
    4eba:	49 30       	cpi	r20, 0x09	; 9
    4ebc:	51 05       	cpc	r21, r1
    4ebe:	34 f4       	brge	.+12     	; 0x4ecc <_Z13enter_numbersh+0xea>
    4ec0:	fc 01       	movw	r30, r24
    4ec2:	e4 54       	subi	r30, 0x44	; 68
    4ec4:	fb 4f       	sbci	r31, 0xFB	; 251
    4ec6:	2f 5f       	subi	r18, 0xFF	; 255
    4ec8:	20 83       	st	Z, r18
    4eca:	07 c0       	rjmp	.+14     	; 0x4eda <_Z13enter_numbersh+0xf8>
			else if(itedger[caunter_input] - '0' == 9) itedger[caunter_input] = '0';
    4ecc:	29 33       	cpi	r18, 0x39	; 57
    4ece:	29 f4       	brne	.+10     	; 0x4eda <_Z13enter_numbersh+0xf8>
    4ed0:	fc 01       	movw	r30, r24
    4ed2:	e4 54       	subi	r30, 0x44	; 68
    4ed4:	fb 4f       	sbci	r31, 0xFB	; 251
    4ed6:	20 e3       	ldi	r18, 0x30	; 48
    4ed8:	20 83       	st	Z, r18
		}
		if (button_press (KEY_DOWN)) {
    4eda:	8f e1       	ldi	r24, 0x1F	; 31
    4edc:	0e 94 c6 09 	call	0x138c	; 0x138c <_Z12button_pressh>
    4ee0:	88 23       	and	r24, r24
    4ee2:	d9 f0       	breq	.+54     	; 0x4f1a <_Z13enter_numbersh+0x138>
			if (itedger[caunter_input] - '0'  > 0) itedger[caunter_input]  --;
    4ee4:	80 91 bb 04 	lds	r24, 0x04BB	; 0x8004bb <_ZZ13enter_numbershE13caunter_input>
    4ee8:	90 e0       	ldi	r25, 0x00	; 0
    4eea:	fc 01       	movw	r30, r24
    4eec:	e4 54       	subi	r30, 0x44	; 68
    4eee:	fb 4f       	sbci	r31, 0xFB	; 251
    4ef0:	20 81       	ld	r18, Z
    4ef2:	42 2f       	mov	r20, r18
    4ef4:	50 e0       	ldi	r21, 0x00	; 0
    4ef6:	40 53       	subi	r20, 0x30	; 48
    4ef8:	51 09       	sbc	r21, r1
    4efa:	14 16       	cp	r1, r20
    4efc:	15 06       	cpc	r1, r21
    4efe:	34 f4       	brge	.+12     	; 0x4f0c <_Z13enter_numbersh+0x12a>
    4f00:	fc 01       	movw	r30, r24
    4f02:	e4 54       	subi	r30, 0x44	; 68
    4f04:	fb 4f       	sbci	r31, 0xFB	; 251
    4f06:	21 50       	subi	r18, 0x01	; 1
    4f08:	20 83       	st	Z, r18
    4f0a:	07 c0       	rjmp	.+14     	; 0x4f1a <_Z13enter_numbersh+0x138>
			else if(itedger[caunter_input] - '0'  == 0) itedger[caunter_input]  = '9';
    4f0c:	20 33       	cpi	r18, 0x30	; 48
    4f0e:	29 f4       	brne	.+10     	; 0x4f1a <_Z13enter_numbersh+0x138>
    4f10:	fc 01       	movw	r30, r24
    4f12:	e4 54       	subi	r30, 0x44	; 68
    4f14:	fb 4f       	sbci	r31, 0xFB	; 251
    4f16:	29 e3       	ldi	r18, 0x39	; 57
    4f18:	20 83       	st	Z, r18
		}
		mirror_data = atol (itedger);                                                                                      // тут сканф заменил атол и все работает так же само
    4f1a:	8c eb       	ldi	r24, 0xBC	; 188
    4f1c:	94 e0       	ldi	r25, 0x04	; 4
    4f1e:	0e 94 06 45 	call	0x8a0c	; 0x8a0c <atol>
    4f22:	60 93 d0 05 	sts	0x05D0, r22	; 0x8005d0 <mirror_data>
    4f26:	70 93 d1 05 	sts	0x05D1, r23	; 0x8005d1 <mirror_data+0x1>
    4f2a:	80 93 d2 05 	sts	0x05D2, r24	; 0x8005d2 <mirror_data+0x2>
    4f2e:	90 93 d3 05 	sts	0x05D3, r25	; 0x8005d3 <mirror_data+0x3>
		switch (size){                                                                                                     // это функция для вывода информации без лишних нулей слева
    4f32:	c2 30       	cpi	r28, 0x02	; 2
    4f34:	e9 f1       	breq	.+122    	; 0x4fb0 <_Z13enter_numbersh+0x1ce>
    4f36:	28 f4       	brcc	.+10     	; 0x4f42 <_Z13enter_numbersh+0x160>
    4f38:	cc 23       	and	r28, r28
    4f3a:	61 f0       	breq	.+24     	; 0x4f54 <_Z13enter_numbersh+0x172>
    4f3c:	c1 30       	cpi	r28, 0x01	; 1
    4f3e:	09 f1       	breq	.+66     	; 0x4f82 <_Z13enter_numbersh+0x1a0>
    4f40:	92 c0       	rjmp	.+292    	; 0x5066 <_Z13enter_numbersh+0x284>
    4f42:	c4 30       	cpi	r28, 0x04	; 4
    4f44:	09 f4       	brne	.+2      	; 0x4f48 <_Z13enter_numbersh+0x166>
    4f46:	62 c0       	rjmp	.+196    	; 0x500c <_Z13enter_numbersh+0x22a>
    4f48:	08 f4       	brcc	.+2      	; 0x4f4c <_Z13enter_numbersh+0x16a>
    4f4a:	49 c0       	rjmp	.+146    	; 0x4fde <_Z13enter_numbersh+0x1fc>
    4f4c:	c5 30       	cpi	r28, 0x05	; 5
    4f4e:	09 f4       	brne	.+2      	; 0x4f52 <_Z13enter_numbersh+0x170>
    4f50:	74 c0       	rjmp	.+232    	; 0x503a <_Z13enter_numbersh+0x258>
    4f52:	89 c0       	rjmp	.+274    	; 0x5066 <_Z13enter_numbersh+0x284>
			case 0: sprintf(send_buf, "     %01ld"   ,(int32_t) mirror_data ); break; 
    4f54:	9f 93       	push	r25
    4f56:	8f 93       	push	r24
    4f58:	7f 93       	push	r23
    4f5a:	6f 93       	push	r22
    4f5c:	80 ea       	ldi	r24, 0xA0	; 160
    4f5e:	92 e0       	ldi	r25, 0x02	; 2
    4f60:	9f 93       	push	r25
    4f62:	8f 93       	push	r24
    4f64:	8c e8       	ldi	r24, 0x8C	; 140
    4f66:	94 e0       	ldi	r25, 0x04	; 4
    4f68:	9f 93       	push	r25
    4f6a:	8f 93       	push	r24
    4f6c:	0e 94 79 46 	call	0x8cf2	; 0x8cf2 <sprintf>
    4f70:	8d b7       	in	r24, 0x3d	; 61
    4f72:	9e b7       	in	r25, 0x3e	; 62
    4f74:	08 96       	adiw	r24, 0x08	; 8
    4f76:	0f b6       	in	r0, 0x3f	; 63
    4f78:	f8 94       	cli
    4f7a:	9e bf       	out	0x3e, r25	; 62
    4f7c:	0f be       	out	0x3f, r0	; 63
    4f7e:	8d bf       	out	0x3d, r24	; 61
    4f80:	72 c0       	rjmp	.+228    	; 0x5066 <_Z13enter_numbersh+0x284>
			case 1: sprintf(send_buf, "    %02ld"  ,(int32_t) mirror_data ); break;
    4f82:	9f 93       	push	r25
    4f84:	8f 93       	push	r24
    4f86:	7f 93       	push	r23
    4f88:	6f 93       	push	r22
    4f8a:	8b ea       	ldi	r24, 0xAB	; 171
    4f8c:	92 e0       	ldi	r25, 0x02	; 2
    4f8e:	9f 93       	push	r25
    4f90:	8f 93       	push	r24
    4f92:	8c e8       	ldi	r24, 0x8C	; 140
    4f94:	94 e0       	ldi	r25, 0x04	; 4
    4f96:	9f 93       	push	r25
    4f98:	8f 93       	push	r24
    4f9a:	0e 94 79 46 	call	0x8cf2	; 0x8cf2 <sprintf>
    4f9e:	8d b7       	in	r24, 0x3d	; 61
    4fa0:	9e b7       	in	r25, 0x3e	; 62
    4fa2:	08 96       	adiw	r24, 0x08	; 8
    4fa4:	0f b6       	in	r0, 0x3f	; 63
    4fa6:	f8 94       	cli
    4fa8:	9e bf       	out	0x3e, r25	; 62
    4faa:	0f be       	out	0x3f, r0	; 63
    4fac:	8d bf       	out	0x3d, r24	; 61
    4fae:	5b c0       	rjmp	.+182    	; 0x5066 <_Z13enter_numbersh+0x284>
			case 2: sprintf(send_buf, "   %03ld"  ,(int32_t) mirror_data ); break;
    4fb0:	9f 93       	push	r25
    4fb2:	8f 93       	push	r24
    4fb4:	7f 93       	push	r23
    4fb6:	6f 93       	push	r22
    4fb8:	85 eb       	ldi	r24, 0xB5	; 181
    4fba:	92 e0       	ldi	r25, 0x02	; 2
    4fbc:	9f 93       	push	r25
    4fbe:	8f 93       	push	r24
    4fc0:	8c e8       	ldi	r24, 0x8C	; 140
    4fc2:	94 e0       	ldi	r25, 0x04	; 4
    4fc4:	9f 93       	push	r25
    4fc6:	8f 93       	push	r24
    4fc8:	0e 94 79 46 	call	0x8cf2	; 0x8cf2 <sprintf>
    4fcc:	8d b7       	in	r24, 0x3d	; 61
    4fce:	9e b7       	in	r25, 0x3e	; 62
    4fd0:	08 96       	adiw	r24, 0x08	; 8
    4fd2:	0f b6       	in	r0, 0x3f	; 63
    4fd4:	f8 94       	cli
    4fd6:	9e bf       	out	0x3e, r25	; 62
    4fd8:	0f be       	out	0x3f, r0	; 63
    4fda:	8d bf       	out	0x3d, r24	; 61
    4fdc:	44 c0       	rjmp	.+136    	; 0x5066 <_Z13enter_numbersh+0x284>
			case 3: sprintf(send_buf, "  %04ld"  ,(int32_t) mirror_data ); break;
    4fde:	9f 93       	push	r25
    4fe0:	8f 93       	push	r24
    4fe2:	7f 93       	push	r23
    4fe4:	6f 93       	push	r22
    4fe6:	8e eb       	ldi	r24, 0xBE	; 190
    4fe8:	92 e0       	ldi	r25, 0x02	; 2
    4fea:	9f 93       	push	r25
    4fec:	8f 93       	push	r24
    4fee:	8c e8       	ldi	r24, 0x8C	; 140
    4ff0:	94 e0       	ldi	r25, 0x04	; 4
    4ff2:	9f 93       	push	r25
    4ff4:	8f 93       	push	r24
    4ff6:	0e 94 79 46 	call	0x8cf2	; 0x8cf2 <sprintf>
    4ffa:	8d b7       	in	r24, 0x3d	; 61
    4ffc:	9e b7       	in	r25, 0x3e	; 62
    4ffe:	08 96       	adiw	r24, 0x08	; 8
    5000:	0f b6       	in	r0, 0x3f	; 63
    5002:	f8 94       	cli
    5004:	9e bf       	out	0x3e, r25	; 62
    5006:	0f be       	out	0x3f, r0	; 63
    5008:	8d bf       	out	0x3d, r24	; 61
    500a:	2d c0       	rjmp	.+90     	; 0x5066 <_Z13enter_numbersh+0x284>
			case 4: sprintf(send_buf, " %05ld"  ,(int32_t) mirror_data ); break;
    500c:	9f 93       	push	r25
    500e:	8f 93       	push	r24
    5010:	7f 93       	push	r23
    5012:	6f 93       	push	r22
    5014:	86 ec       	ldi	r24, 0xC6	; 198
    5016:	92 e0       	ldi	r25, 0x02	; 2
    5018:	9f 93       	push	r25
    501a:	8f 93       	push	r24
    501c:	8c e8       	ldi	r24, 0x8C	; 140
    501e:	94 e0       	ldi	r25, 0x04	; 4
    5020:	9f 93       	push	r25
    5022:	8f 93       	push	r24
    5024:	0e 94 79 46 	call	0x8cf2	; 0x8cf2 <sprintf>
    5028:	8d b7       	in	r24, 0x3d	; 61
    502a:	9e b7       	in	r25, 0x3e	; 62
    502c:	08 96       	adiw	r24, 0x08	; 8
    502e:	0f b6       	in	r0, 0x3f	; 63
    5030:	f8 94       	cli
    5032:	9e bf       	out	0x3e, r25	; 62
    5034:	0f be       	out	0x3f, r0	; 63
    5036:	8d bf       	out	0x3d, r24	; 61
    5038:	16 c0       	rjmp	.+44     	; 0x5066 <_Z13enter_numbersh+0x284>
			case 5: sprintf(send_buf, "%06ld"  ,(int32_t) mirror_data ); break;
    503a:	9f 93       	push	r25
    503c:	8f 93       	push	r24
    503e:	7f 93       	push	r23
    5040:	6f 93       	push	r22
    5042:	8a e9       	ldi	r24, 0x9A	; 154
    5044:	92 e0       	ldi	r25, 0x02	; 2
    5046:	9f 93       	push	r25
    5048:	8f 93       	push	r24
    504a:	8c e8       	ldi	r24, 0x8C	; 140
    504c:	94 e0       	ldi	r25, 0x04	; 4
    504e:	9f 93       	push	r25
    5050:	8f 93       	push	r24
    5052:	0e 94 79 46 	call	0x8cf2	; 0x8cf2 <sprintf>
    5056:	8d b7       	in	r24, 0x3d	; 61
    5058:	9e b7       	in	r25, 0x3e	; 62
    505a:	08 96       	adiw	r24, 0x08	; 8
    505c:	0f b6       	in	r0, 0x3f	; 63
    505e:	f8 94       	cli
    5060:	9e bf       	out	0x3e, r25	; 62
    5062:	0f be       	out	0x3f, r0	; 63
    5064:	8d bf       	out	0x3d, r24	; 61
		}
		blink_simbol (caunter_input);                                                                                     // моргаем изменяемым символом
    5066:	80 91 bb 04 	lds	r24, 0x04BB	; 0x8004bb <_ZZ13enter_numbershE13caunter_input>
    506a:	0e 94 ab 1d 	call	0x3b56	; 0x3b56 <_Z12blink_simbolh>
	}
}
    506e:	cf 91       	pop	r28
    5070:	08 95       	ret

00005072 <_Z12sill1_discrtv>:
           }
      }    
}

void sill1_discrt (void)              // функция ввода порога   
{
    5072:	cf 93       	push	r28
    5074:	df 93       	push	r29
	if (!change_item){                // пока мы не вводим данные   
    5076:	80 91 d8 05 	lds	r24, 0x05D8	; 0x8005d8 <change_item>
    507a:	81 11       	cpse	r24, r1
    507c:	38 c0       	rjmp	.+112    	; 0x50ee <_Z12sill1_discrtv+0x7c>
		if (not_change()) if (button_press (KEY_ENTER)) {change_item = true;}                                // отслеживаем ентер и если что переходим в выполнение ввода
    507e:	0e 94 bc 1f 	call	0x3f78	; 0x3f78 <_Z10not_changev>
    5082:	88 23       	and	r24, r24
    5084:	41 f0       	breq	.+16     	; 0x5096 <_Z12sill1_discrtv+0x24>
    5086:	8b e3       	ldi	r24, 0x3B	; 59
    5088:	0e 94 c6 09 	call	0x138c	; 0x138c <_Z12button_pressh>
    508c:	88 23       	and	r24, r24
    508e:	19 f0       	breq	.+6      	; 0x5096 <_Z12sill1_discrtv+0x24>
    5090:	81 e0       	ldi	r24, 0x01	; 1
    5092:	80 93 d8 05 	sts	0x05D8, r24	; 0x8005d8 <change_item>
		sprintf(send_buf, "%06lu" , (uint32_t) param.sill1 );mirror_data = param.sill1;    // показываем значение параметра и если там пусто добавить нулями
    5096:	c9 e9       	ldi	r28, 0x99	; 153
    5098:	d5 e0       	ldi	r29, 0x05	; 5
    509a:	8a 85       	ldd	r24, Y+10	; 0x0a
    509c:	8f 93       	push	r24
    509e:	89 85       	ldd	r24, Y+9	; 0x09
    50a0:	8f 93       	push	r24
    50a2:	88 85       	ldd	r24, Y+8	; 0x08
    50a4:	8f 93       	push	r24
    50a6:	8f 81       	ldd	r24, Y+7	; 0x07
    50a8:	8f 93       	push	r24
    50aa:	8f e0       	ldi	r24, 0x0F	; 15
    50ac:	92 e0       	ldi	r25, 0x02	; 2
    50ae:	9f 93       	push	r25
    50b0:	8f 93       	push	r24
    50b2:	8c e8       	ldi	r24, 0x8C	; 140
    50b4:	94 e0       	ldi	r25, 0x04	; 4
    50b6:	9f 93       	push	r25
    50b8:	8f 93       	push	r24
    50ba:	0e 94 79 46 	call	0x8cf2	; 0x8cf2 <sprintf>
    50be:	8f 81       	ldd	r24, Y+7	; 0x07
    50c0:	98 85       	ldd	r25, Y+8	; 0x08
    50c2:	a9 85       	ldd	r26, Y+9	; 0x09
    50c4:	ba 85       	ldd	r27, Y+10	; 0x0a
    50c6:	80 93 d0 05 	sts	0x05D0, r24	; 0x8005d0 <mirror_data>
    50ca:	90 93 d1 05 	sts	0x05D1, r25	; 0x8005d1 <mirror_data+0x1>
    50ce:	a0 93 d2 05 	sts	0x05D2, r26	; 0x8005d2 <mirror_data+0x2>
    50d2:	b0 93 d3 05 	sts	0x05D3, r27	; 0x8005d3 <mirror_data+0x3>
	}
	if (change_item){                                                                      // если мы вводим данные 
    50d6:	8d b7       	in	r24, 0x3d	; 61
    50d8:	9e b7       	in	r25, 0x3e	; 62
    50da:	08 96       	adiw	r24, 0x08	; 8
    50dc:	0f b6       	in	r0, 0x3f	; 63
    50de:	f8 94       	cli
    50e0:	9e bf       	out	0x3e, r25	; 62
    50e2:	0f be       	out	0x3f, r0	; 63
    50e4:	8d bf       	out	0x3d, r24	; 61
    50e6:	80 91 d8 05 	lds	r24, 0x05D8	; 0x8005d8 <change_item>
    50ea:	88 23       	and	r24, r24
    50ec:	f9 f0       	breq	.+62     	; 0x512c <_Z12sill1_discrtv+0xba>
		enter_numbers (5);                                                                 // передаем в функцию ввода данных нашу переменную и количество знаков для ввода
    50ee:	85 e0       	ldi	r24, 0x05	; 5
    50f0:	78 de       	rcall	.-784    	; 0x4de2 <_Z13enter_numbersh>
		if (button_press (KEY_ENTER)) {                                                    // отслеживаем ентер (добавит еепром)
    50f2:	8b e3       	ldi	r24, 0x3B	; 59
    50f4:	0e 94 c6 09 	call	0x138c	; 0x138c <_Z12button_pressh>
    50f8:	88 23       	and	r24, r24
    50fa:	c1 f0       	breq	.+48     	; 0x512c <_Z12sill1_discrtv+0xba>
			change_item = false; non_repit = false;                                        // выходим из функции изменения
    50fc:	10 92 d8 05 	sts	0x05D8, r1	; 0x8005d8 <change_item>
    5100:	10 92 d7 05 	sts	0x05D7, r1	; 0x8005d7 <non_repit>
			param.sill1 = mirror_data;  EEPROM_write_32t(EE_SILL1,param.sill1); }          // приравниваем новоезначение в параметр
    5104:	40 91 d0 05 	lds	r20, 0x05D0	; 0x8005d0 <mirror_data>
    5108:	50 91 d1 05 	lds	r21, 0x05D1	; 0x8005d1 <mirror_data+0x1>
    510c:	60 91 d2 05 	lds	r22, 0x05D2	; 0x8005d2 <mirror_data+0x2>
    5110:	70 91 d3 05 	lds	r23, 0x05D3	; 0x8005d3 <mirror_data+0x3>
    5114:	40 93 a0 05 	sts	0x05A0, r20	; 0x8005a0 <param+0x7>
    5118:	50 93 a1 05 	sts	0x05A1, r21	; 0x8005a1 <param+0x8>
    511c:	60 93 a2 05 	sts	0x05A2, r22	; 0x8005a2 <param+0x9>
    5120:	70 93 a3 05 	sts	0x05A3, r23	; 0x8005a3 <param+0xa>
    5124:	84 e0       	ldi	r24, 0x04	; 4
    5126:	90 e0       	ldi	r25, 0x00	; 0
    5128:	0e 94 5b 04 	call	0x8b6	; 0x8b6 <_Z16EEPROM_write_32tjm>
	}
}
    512c:	df 91       	pop	r29
    512e:	cf 91       	pop	r28
    5130:	08 95       	ret

00005132 <_Z12sill2_discrtv>:

void sill2_discrt (void)
{
    5132:	cf 93       	push	r28
    5134:	df 93       	push	r29
	if (!change_item){
    5136:	80 91 d8 05 	lds	r24, 0x05D8	; 0x8005d8 <change_item>
    513a:	81 11       	cpse	r24, r1
    513c:	38 c0       	rjmp	.+112    	; 0x51ae <_Z12sill2_discrtv+0x7c>
		if (not_change()) if (button_press (KEY_ENTER)) {change_item = true;}
    513e:	0e 94 bc 1f 	call	0x3f78	; 0x3f78 <_Z10not_changev>
    5142:	88 23       	and	r24, r24
    5144:	41 f0       	breq	.+16     	; 0x5156 <_Z12sill2_discrtv+0x24>
    5146:	8b e3       	ldi	r24, 0x3B	; 59
    5148:	0e 94 c6 09 	call	0x138c	; 0x138c <_Z12button_pressh>
    514c:	88 23       	and	r24, r24
    514e:	19 f0       	breq	.+6      	; 0x5156 <_Z12sill2_discrtv+0x24>
    5150:	81 e0       	ldi	r24, 0x01	; 1
    5152:	80 93 d8 05 	sts	0x05D8, r24	; 0x8005d8 <change_item>
		sprintf(send_buf, "%06lu" , (uint32_t) param.sill2 );mirror_data = param.sill2;
    5156:	c9 e9       	ldi	r28, 0x99	; 153
    5158:	d5 e0       	ldi	r29, 0x05	; 5
    515a:	8e 85       	ldd	r24, Y+14	; 0x0e
    515c:	8f 93       	push	r24
    515e:	8d 85       	ldd	r24, Y+13	; 0x0d
    5160:	8f 93       	push	r24
    5162:	8c 85       	ldd	r24, Y+12	; 0x0c
    5164:	8f 93       	push	r24
    5166:	8b 85       	ldd	r24, Y+11	; 0x0b
    5168:	8f 93       	push	r24
    516a:	8f e0       	ldi	r24, 0x0F	; 15
    516c:	92 e0       	ldi	r25, 0x02	; 2
    516e:	9f 93       	push	r25
    5170:	8f 93       	push	r24
    5172:	8c e8       	ldi	r24, 0x8C	; 140
    5174:	94 e0       	ldi	r25, 0x04	; 4
    5176:	9f 93       	push	r25
    5178:	8f 93       	push	r24
    517a:	0e 94 79 46 	call	0x8cf2	; 0x8cf2 <sprintf>
    517e:	8b 85       	ldd	r24, Y+11	; 0x0b
    5180:	9c 85       	ldd	r25, Y+12	; 0x0c
    5182:	ad 85       	ldd	r26, Y+13	; 0x0d
    5184:	be 85       	ldd	r27, Y+14	; 0x0e
    5186:	80 93 d0 05 	sts	0x05D0, r24	; 0x8005d0 <mirror_data>
    518a:	90 93 d1 05 	sts	0x05D1, r25	; 0x8005d1 <mirror_data+0x1>
    518e:	a0 93 d2 05 	sts	0x05D2, r26	; 0x8005d2 <mirror_data+0x2>
    5192:	b0 93 d3 05 	sts	0x05D3, r27	; 0x8005d3 <mirror_data+0x3>
	}
	if (change_item){
    5196:	8d b7       	in	r24, 0x3d	; 61
    5198:	9e b7       	in	r25, 0x3e	; 62
    519a:	08 96       	adiw	r24, 0x08	; 8
    519c:	0f b6       	in	r0, 0x3f	; 63
    519e:	f8 94       	cli
    51a0:	9e bf       	out	0x3e, r25	; 62
    51a2:	0f be       	out	0x3f, r0	; 63
    51a4:	8d bf       	out	0x3d, r24	; 61
    51a6:	80 91 d8 05 	lds	r24, 0x05D8	; 0x8005d8 <change_item>
    51aa:	88 23       	and	r24, r24
    51ac:	f9 f0       	breq	.+62     	; 0x51ec <_Z12sill2_discrtv+0xba>
		enter_numbers (5);
    51ae:	85 e0       	ldi	r24, 0x05	; 5
    51b0:	18 de       	rcall	.-976    	; 0x4de2 <_Z13enter_numbersh>
		if (button_press (KEY_ENTER)) {
    51b2:	8b e3       	ldi	r24, 0x3B	; 59
    51b4:	0e 94 c6 09 	call	0x138c	; 0x138c <_Z12button_pressh>
    51b8:	88 23       	and	r24, r24
    51ba:	c1 f0       	breq	.+48     	; 0x51ec <_Z12sill2_discrtv+0xba>
			change_item = false; non_repit = false;
    51bc:	10 92 d8 05 	sts	0x05D8, r1	; 0x8005d8 <change_item>
    51c0:	10 92 d7 05 	sts	0x05D7, r1	; 0x8005d7 <non_repit>
			param.sill2 = mirror_data; EEPROM_write_32t(EE_SILL2,param.sill2); }
    51c4:	40 91 d0 05 	lds	r20, 0x05D0	; 0x8005d0 <mirror_data>
    51c8:	50 91 d1 05 	lds	r21, 0x05D1	; 0x8005d1 <mirror_data+0x1>
    51cc:	60 91 d2 05 	lds	r22, 0x05D2	; 0x8005d2 <mirror_data+0x2>
    51d0:	70 91 d3 05 	lds	r23, 0x05D3	; 0x8005d3 <mirror_data+0x3>
    51d4:	40 93 a4 05 	sts	0x05A4, r20	; 0x8005a4 <param+0xb>
    51d8:	50 93 a5 05 	sts	0x05A5, r21	; 0x8005a5 <param+0xc>
    51dc:	60 93 a6 05 	sts	0x05A6, r22	; 0x8005a6 <param+0xd>
    51e0:	70 93 a7 05 	sts	0x05A7, r23	; 0x8005a7 <param+0xe>
    51e4:	88 e0       	ldi	r24, 0x08	; 8
    51e6:	90 e0       	ldi	r25, 0x00	; 0
    51e8:	0e 94 5b 04 	call	0x8b6	; 0x8b6 <_Z16EEPROM_write_32tjm>
	}
}
    51ec:	df 91       	pop	r29
    51ee:	cf 91       	pop	r28
    51f0:	08 95       	ret

000051f2 <_Z6in_npvv>:

void in_npv (void)                     // аналогичная функция для ввода НПВ
{
    51f2:	cf 93       	push	r28
    51f4:	df 93       	push	r29
	if (!change_item){
    51f6:	80 91 d8 05 	lds	r24, 0x05D8	; 0x8005d8 <change_item>
    51fa:	81 11       	cpse	r24, r1
    51fc:	38 c0       	rjmp	.+112    	; 0x526e <_Z6in_npvv+0x7c>
		if (not_change()) if (button_press (KEY_ENTER)) {change_item = true;}
    51fe:	0e 94 bc 1f 	call	0x3f78	; 0x3f78 <_Z10not_changev>
    5202:	88 23       	and	r24, r24
    5204:	41 f0       	breq	.+16     	; 0x5216 <_Z6in_npvv+0x24>
    5206:	8b e3       	ldi	r24, 0x3B	; 59
    5208:	0e 94 c6 09 	call	0x138c	; 0x138c <_Z12button_pressh>
    520c:	88 23       	and	r24, r24
    520e:	19 f0       	breq	.+6      	; 0x5216 <_Z6in_npvv+0x24>
    5210:	81 e0       	ldi	r24, 0x01	; 1
    5212:	80 93 d8 05 	sts	0x05D8, r24	; 0x8005d8 <change_item>
		sprintf(send_buf, "%06lu" , (uint32_t) param.NPV );mirror_data = param.NPV;
    5216:	c9 e9       	ldi	r28, 0x99	; 153
    5218:	d5 e0       	ldi	r29, 0x05	; 5
    521a:	8c 89       	ldd	r24, Y+20	; 0x14
    521c:	8f 93       	push	r24
    521e:	8b 89       	ldd	r24, Y+19	; 0x13
    5220:	8f 93       	push	r24
    5222:	8a 89       	ldd	r24, Y+18	; 0x12
    5224:	8f 93       	push	r24
    5226:	89 89       	ldd	r24, Y+17	; 0x11
    5228:	8f 93       	push	r24
    522a:	8f e0       	ldi	r24, 0x0F	; 15
    522c:	92 e0       	ldi	r25, 0x02	; 2
    522e:	9f 93       	push	r25
    5230:	8f 93       	push	r24
    5232:	8c e8       	ldi	r24, 0x8C	; 140
    5234:	94 e0       	ldi	r25, 0x04	; 4
    5236:	9f 93       	push	r25
    5238:	8f 93       	push	r24
    523a:	0e 94 79 46 	call	0x8cf2	; 0x8cf2 <sprintf>
    523e:	89 89       	ldd	r24, Y+17	; 0x11
    5240:	9a 89       	ldd	r25, Y+18	; 0x12
    5242:	ab 89       	ldd	r26, Y+19	; 0x13
    5244:	bc 89       	ldd	r27, Y+20	; 0x14
    5246:	80 93 d0 05 	sts	0x05D0, r24	; 0x8005d0 <mirror_data>
    524a:	90 93 d1 05 	sts	0x05D1, r25	; 0x8005d1 <mirror_data+0x1>
    524e:	a0 93 d2 05 	sts	0x05D2, r26	; 0x8005d2 <mirror_data+0x2>
    5252:	b0 93 d3 05 	sts	0x05D3, r27	; 0x8005d3 <mirror_data+0x3>
	}
	if (change_item){
    5256:	8d b7       	in	r24, 0x3d	; 61
    5258:	9e b7       	in	r25, 0x3e	; 62
    525a:	08 96       	adiw	r24, 0x08	; 8
    525c:	0f b6       	in	r0, 0x3f	; 63
    525e:	f8 94       	cli
    5260:	9e bf       	out	0x3e, r25	; 62
    5262:	0f be       	out	0x3f, r0	; 63
    5264:	8d bf       	out	0x3d, r24	; 61
    5266:	80 91 d8 05 	lds	r24, 0x05D8	; 0x8005d8 <change_item>
    526a:	88 23       	and	r24, r24
    526c:	39 f1       	breq	.+78     	; 0x52bc <_Z6in_npvv+0xca>
		enter_numbers (5);
    526e:	85 e0       	ldi	r24, 0x05	; 5
    5270:	b8 dd       	rcall	.-1168   	; 0x4de2 <_Z13enter_numbersh>
		if (button_press (KEY_ENTER)) {
    5272:	8b e3       	ldi	r24, 0x3B	; 59
    5274:	0e 94 c6 09 	call	0x138c	; 0x138c <_Z12button_pressh>
    5278:	88 23       	and	r24, r24
    527a:	01 f1       	breq	.+64     	; 0x52bc <_Z6in_npvv+0xca>
             change_item = false; non_repit = false;
    527c:	10 92 d8 05 	sts	0x05D8, r1	; 0x8005d8 <change_item>
    5280:	10 92 d7 05 	sts	0x05D7, r1	; 0x8005d7 <non_repit>
             if (mirror_data > 0) {
    5284:	40 91 d0 05 	lds	r20, 0x05D0	; 0x8005d0 <mirror_data>
    5288:	50 91 d1 05 	lds	r21, 0x05D1	; 0x8005d1 <mirror_data+0x1>
    528c:	60 91 d2 05 	lds	r22, 0x05D2	; 0x8005d2 <mirror_data+0x2>
    5290:	70 91 d3 05 	lds	r23, 0x05D3	; 0x8005d3 <mirror_data+0x3>
    5294:	14 16       	cp	r1, r20
    5296:	15 06       	cpc	r1, r21
    5298:	16 06       	cpc	r1, r22
    529a:	17 06       	cpc	r1, r23
    529c:	6c f4       	brge	.+26     	; 0x52b8 <_Z6in_npvv+0xc6>
             param.NPV = mirror_data; EEPROM_write_32t(EE_NPV, param.NPV); 
    529e:	40 93 aa 05 	sts	0x05AA, r20	; 0x8005aa <param+0x11>
    52a2:	50 93 ab 05 	sts	0x05AB, r21	; 0x8005ab <param+0x12>
    52a6:	60 93 ac 05 	sts	0x05AC, r22	; 0x8005ac <param+0x13>
    52aa:	70 93 ad 05 	sts	0x05AD, r23	; 0x8005ad <param+0x14>
    52ae:	84 e1       	ldi	r24, 0x14	; 20
    52b0:	90 e0       	ldi	r25, 0x00	; 0
    52b2:	0e 94 5b 04 	call	0x8b6	; 0x8b6 <_Z16EEPROM_write_32tjm>
    52b6:	02 c0       	rjmp	.+4      	; 0x52bc <_Z6in_npvv+0xca>
             }
             else { error_func(ERROR5);}             
    52b8:	85 e0       	ldi	r24, 0x05	; 5
    52ba:	63 db       	rcall	.-2362   	; 0x4982 <_Z10error_funch>
        }
	}
}
    52bc:	df 91       	pop	r29
    52be:	cf 91       	pop	r28
    52c0:	08 95       	ret

000052c2 <_Z13Pasword_pressv>:
}

void Pasword_press (void)               // функция ввода пароля
{
    static int32_t xor_pas;
	if (!change_item){
    52c2:	80 91 d8 05 	lds	r24, 0x05D8	; 0x8005d8 <change_item>
    52c6:	81 11       	cpse	r24, r1
    52c8:	38 c0       	rjmp	.+112    	; 0x533a <_Z13Pasword_pressv+0x78>
     	if (button_press (KEY_ENTER)) {change_item = true; xor_pas = 0; xor_pas = (DS.date * 100); xor_pas += DS.month; }   // так мы формируем число для ХОР 
    52ca:	8b e3       	ldi	r24, 0x3B	; 59
    52cc:	0e 94 c6 09 	call	0x138c	; 0x138c <_Z12button_pressh>
    52d0:	88 23       	and	r24, r24
    52d2:	e9 f0       	breq	.+58     	; 0x530e <_Z13Pasword_pressv+0x4c>
    52d4:	81 e0       	ldi	r24, 0x01	; 1
    52d6:	80 93 d8 05 	sts	0x05D8, r24	; 0x8005d8 <change_item>
    52da:	ea ed       	ldi	r30, 0xDA	; 218
    52dc:	f5 e0       	ldi	r31, 0x05	; 5
    52de:	80 85       	ldd	r24, Z+8	; 0x08
    52e0:	91 85       	ldd	r25, Z+9	; 0x09
    52e2:	44 e6       	ldi	r20, 0x64	; 100
    52e4:	48 9f       	mul	r20, r24
    52e6:	90 01       	movw	r18, r0
    52e8:	49 9f       	mul	r20, r25
    52ea:	30 0d       	add	r19, r0
    52ec:	11 24       	eor	r1, r1
    52ee:	82 85       	ldd	r24, Z+10	; 0x0a
    52f0:	93 85       	ldd	r25, Z+11	; 0x0b
    52f2:	a0 e0       	ldi	r26, 0x00	; 0
    52f4:	b0 e0       	ldi	r27, 0x00	; 0
    52f6:	82 0f       	add	r24, r18
    52f8:	93 1f       	adc	r25, r19
    52fa:	a1 1d       	adc	r26, r1
    52fc:	b1 1d       	adc	r27, r1
    52fe:	80 93 c6 04 	sts	0x04C6, r24	; 0x8004c6 <_ZZ13Pasword_pressvE7xor_pas>
    5302:	90 93 c7 04 	sts	0x04C7, r25	; 0x8004c7 <_ZZ13Pasword_pressvE7xor_pas+0x1>
    5306:	a0 93 c8 04 	sts	0x04C8, r26	; 0x8004c8 <_ZZ13Pasword_pressvE7xor_pas+0x2>
    530a:	b0 93 c9 04 	sts	0x04C9, r27	; 0x8004c9 <_ZZ13Pasword_pressvE7xor_pas+0x3>
     	sprintf(send_buf, "  0000" ); mirror_data = 0;       // показываем нули справа
    530e:	87 e0       	ldi	r24, 0x07	; 7
    5310:	ed ec       	ldi	r30, 0xCD	; 205
    5312:	f2 e0       	ldi	r31, 0x02	; 2
    5314:	ac e8       	ldi	r26, 0x8C	; 140
    5316:	b4 e0       	ldi	r27, 0x04	; 4
    5318:	01 90       	ld	r0, Z+
    531a:	0d 92       	st	X+, r0
    531c:	8a 95       	dec	r24
    531e:	e1 f7       	brne	.-8      	; 0x5318 <_Z13Pasword_pressv+0x56>
    5320:	10 92 d0 05 	sts	0x05D0, r1	; 0x8005d0 <mirror_data>
    5324:	10 92 d1 05 	sts	0x05D1, r1	; 0x8005d1 <mirror_data+0x1>
    5328:	10 92 d2 05 	sts	0x05D2, r1	; 0x8005d2 <mirror_data+0x2>
    532c:	10 92 d3 05 	sts	0x05D3, r1	; 0x8005d3 <mirror_data+0x3>
	}
	if (change_item){
    5330:	80 91 d8 05 	lds	r24, 0x05D8	; 0x8005d8 <change_item>
    5334:	88 23       	and	r24, r24
    5336:	09 f4       	brne	.+2      	; 0x533a <_Z13Pasword_pressv+0x78>
    5338:	7c c0       	rjmp	.+248    	; 0x5432 <_Z13Pasword_pressv+0x170>
     	enter_numbers (3);                                   // заходим в функцию ввода числа
    533a:	83 e0       	ldi	r24, 0x03	; 3
    533c:	52 dd       	rcall	.-1372   	; 0x4de2 <_Z13enter_numbersh>
     	if (button_press (KEY_ENTER)) {                      // по ентеру
    533e:	8b e3       	ldi	r24, 0x3B	; 59
    5340:	0e 94 c6 09 	call	0x138c	; 0x138c <_Z12button_pressh>
    5344:	88 23       	and	r24, r24
    5346:	09 f4       	brne	.+2      	; 0x534a <_Z13Pasword_pressv+0x88>
    5348:	74 c0       	rjmp	.+232    	; 0x5432 <_Z13Pasword_pressv+0x170>
              change_item = false; non_repit = false;        // сбрасываем выполнение функции, и флаг единоразового входа
    534a:	10 92 d8 05 	sts	0x05D8, r1	; 0x8005d8 <change_item>
    534e:	10 92 d7 05 	sts	0x05D7, r1	; 0x8005d7 <non_repit>
              if (mirror_data == PASWORD_ADMIN) { admin_parol = true; error_func (NOERROR); go_func = false;}   // если ввели число равное паролю админа, поднять флаг пароля, показать что ок, и сразу выйти из функции ввода
    5352:	80 91 d0 05 	lds	r24, 0x05D0	; 0x8005d0 <mirror_data>
    5356:	90 91 d1 05 	lds	r25, 0x05D1	; 0x8005d1 <mirror_data+0x1>
    535a:	a0 91 d2 05 	lds	r26, 0x05D2	; 0x8005d2 <mirror_data+0x2>
    535e:	b0 91 d3 05 	lds	r27, 0x05D3	; 0x8005d3 <mirror_data+0x3>
    5362:	85 36       	cpi	r24, 0x65	; 101
    5364:	94 40       	sbci	r25, 0x04	; 4
    5366:	a1 05       	cpc	r26, r1
    5368:	b1 05       	cpc	r27, r1
    536a:	39 f4       	brne	.+14     	; 0x537a <_Z13Pasword_pressv+0xb8>
    536c:	81 e0       	ldi	r24, 0x01	; 1
    536e:	80 93 d5 05 	sts	0x05D5, r24	; 0x8005d5 <admin_parol>
    5372:	88 e0       	ldi	r24, 0x08	; 8
    5374:	06 db       	rcall	.-2548   	; 0x4982 <_Z10error_funch>
    5376:	10 92 d9 05 	sts	0x05D9, r1	; 0x8005d9 <go_func>
              if (mirror_data == PASWORD_SUPER) { super_parol = true; error_func (NOERROR); go_func = false;}
    537a:	80 91 d0 05 	lds	r24, 0x05D0	; 0x8005d0 <mirror_data>
    537e:	90 91 d1 05 	lds	r25, 0x05D1	; 0x8005d1 <mirror_data+0x1>
    5382:	a0 91 d2 05 	lds	r26, 0x05D2	; 0x8005d2 <mirror_data+0x2>
    5386:	b0 91 d3 05 	lds	r27, 0x05D3	; 0x8005d3 <mirror_data+0x3>
    538a:	8b 35       	cpi	r24, 0x5B	; 91
    538c:	28 e1       	ldi	r18, 0x18	; 24
    538e:	92 07       	cpc	r25, r18
    5390:	a1 05       	cpc	r26, r1
    5392:	b1 05       	cpc	r27, r1
    5394:	09 f0       	breq	.+2      	; 0x5398 <_Z13Pasword_pressv+0xd6>
    5396:	3c c0       	rjmp	.+120    	; 0x5410 <_Z13Pasword_pressv+0x14e>
    5398:	81 e0       	ldi	r24, 0x01	; 1
    539a:	80 93 d6 05 	sts	0x05D6, r24	; 0x8005d6 <super_parol>
    539e:	88 e0       	ldi	r24, 0x08	; 8
    53a0:	f0 da       	rcall	.-2592   	; 0x4982 <_Z10error_funch>
    53a2:	10 92 d9 05 	sts	0x05D9, r1	; 0x8005d9 <go_func>
              if (mirror_data == (xor_pas ^ 0xFFF)) { super_parol = true; error_func (NOERROR); go_func = false;}         // это ввод пароля в зависимости от даты  0xFFF
    53a6:	80 91 c6 04 	lds	r24, 0x04C6	; 0x8004c6 <_ZZ13Pasword_pressvE7xor_pas>
    53aa:	90 91 c7 04 	lds	r25, 0x04C7	; 0x8004c7 <_ZZ13Pasword_pressvE7xor_pas+0x1>
    53ae:	a0 91 c8 04 	lds	r26, 0x04C8	; 0x8004c8 <_ZZ13Pasword_pressvE7xor_pas+0x2>
    53b2:	b0 91 c9 04 	lds	r27, 0x04C9	; 0x8004c9 <_ZZ13Pasword_pressvE7xor_pas+0x3>
    53b6:	80 95       	com	r24
    53b8:	2f e0       	ldi	r18, 0x0F	; 15
    53ba:	92 27       	eor	r25, r18
    53bc:	40 91 d0 05 	lds	r20, 0x05D0	; 0x8005d0 <mirror_data>
    53c0:	50 91 d1 05 	lds	r21, 0x05D1	; 0x8005d1 <mirror_data+0x1>
    53c4:	60 91 d2 05 	lds	r22, 0x05D2	; 0x8005d2 <mirror_data+0x2>
    53c8:	70 91 d3 05 	lds	r23, 0x05D3	; 0x8005d3 <mirror_data+0x3>
    53cc:	84 17       	cp	r24, r20
    53ce:	95 07       	cpc	r25, r21
    53d0:	a6 07       	cpc	r26, r22
    53d2:	b7 07       	cpc	r27, r23
    53d4:	39 f4       	brne	.+14     	; 0x53e4 <_Z13Pasword_pressv+0x122>
    53d6:	81 e0       	ldi	r24, 0x01	; 1
    53d8:	80 93 d6 05 	sts	0x05D6, r24	; 0x8005d6 <super_parol>
    53dc:	88 e0       	ldi	r24, 0x08	; 8
    53de:	d1 da       	rcall	.-2654   	; 0x4982 <_Z10error_funch>
    53e0:	10 92 d9 05 	sts	0x05D9, r1	; 0x8005d9 <go_func>
              if (mirror_data != PASWORD_SUPER && mirror_data != PASWORD_ADMIN) {error_func (ERROR5); }         // если пароль не соответствует то еррор
    53e4:	80 91 d0 05 	lds	r24, 0x05D0	; 0x8005d0 <mirror_data>
    53e8:	90 91 d1 05 	lds	r25, 0x05D1	; 0x8005d1 <mirror_data+0x1>
    53ec:	a0 91 d2 05 	lds	r26, 0x05D2	; 0x8005d2 <mirror_data+0x2>
    53f0:	b0 91 d3 05 	lds	r27, 0x05D3	; 0x8005d3 <mirror_data+0x3>
    53f4:	8b 35       	cpi	r24, 0x5B	; 91
    53f6:	28 e1       	ldi	r18, 0x18	; 24
    53f8:	92 07       	cpc	r25, r18
    53fa:	a1 05       	cpc	r26, r1
    53fc:	b1 05       	cpc	r27, r1
    53fe:	c9 f0       	breq	.+50     	; 0x5432 <_Z13Pasword_pressv+0x170>
    5400:	85 36       	cpi	r24, 0x65	; 101
    5402:	94 40       	sbci	r25, 0x04	; 4
    5404:	a1 05       	cpc	r26, r1
    5406:	b1 05       	cpc	r27, r1
    5408:	a1 f0       	breq	.+40     	; 0x5432 <_Z13Pasword_pressv+0x170>
    540a:	85 e0       	ldi	r24, 0x05	; 5
    540c:	ba ca       	rjmp	.-2700   	; 0x4982 <_Z10error_funch>
        }
	}	
}
    540e:	08 95       	ret
     	enter_numbers (3);                                   // заходим в функцию ввода числа
     	if (button_press (KEY_ENTER)) {                      // по ентеру
              change_item = false; non_repit = false;        // сбрасываем выполнение функции, и флаг единоразового входа
              if (mirror_data == PASWORD_ADMIN) { admin_parol = true; error_func (NOERROR); go_func = false;}   // если ввели число равное паролю админа, поднять флаг пароля, показать что ок, и сразу выйти из функции ввода
              if (mirror_data == PASWORD_SUPER) { super_parol = true; error_func (NOERROR); go_func = false;}
              if (mirror_data == (xor_pas ^ 0xFFF)) { super_parol = true; error_func (NOERROR); go_func = false;}         // это ввод пароля в зависимости от даты  0xFFF
    5410:	40 91 c6 04 	lds	r20, 0x04C6	; 0x8004c6 <_ZZ13Pasword_pressvE7xor_pas>
    5414:	50 91 c7 04 	lds	r21, 0x04C7	; 0x8004c7 <_ZZ13Pasword_pressvE7xor_pas+0x1>
    5418:	60 91 c8 04 	lds	r22, 0x04C8	; 0x8004c8 <_ZZ13Pasword_pressvE7xor_pas+0x2>
    541c:	70 91 c9 04 	lds	r23, 0x04C9	; 0x8004c9 <_ZZ13Pasword_pressvE7xor_pas+0x3>
    5420:	40 95       	com	r20
    5422:	2f e0       	ldi	r18, 0x0F	; 15
    5424:	52 27       	eor	r21, r18
    5426:	84 17       	cp	r24, r20
    5428:	95 07       	cpc	r25, r21
    542a:	a6 07       	cpc	r26, r22
    542c:	b7 07       	cpc	r27, r23
    542e:	41 f7       	brne	.-48     	; 0x5400 <_Z13Pasword_pressv+0x13e>
    5430:	d2 cf       	rjmp	.-92     	; 0x53d6 <_Z13Pasword_pressv+0x114>
    5432:	08 95       	ret

00005434 <_Z8kalib_vpv>:
{
    enter_8bit (0,1,&param.zero_start,EE_ZEROSTART,1);  
}

void kalib_vp (void)
{
    5434:	cf 92       	push	r12
    5436:	df 92       	push	r13
    5438:	ef 92       	push	r14
    543a:	ff 92       	push	r15
    543c:	0f 93       	push	r16
    543e:	1f 93       	push	r17
    get_zemik_sensors(param.sensor_number);                                                 //  опрашивать датчики
    5440:	80 91 a8 05 	lds	r24, 0x05A8	; 0x8005a8 <param+0xf>
    5444:	0e 94 a9 37 	call	0x6f52	; 0x6f52 <_Z17get_zemik_sensorsh>
    boolean.led_in_menu = true; 
    5448:	e9 e8       	ldi	r30, 0x89	; 137
    544a:	f6 e0       	ldi	r31, 0x06	; 6
    544c:	80 81       	ld	r24, Z
    544e:	82 60       	ori	r24, 0x02	; 2
    5450:	80 83       	st	Z, r24
    if (tim_5 == 0 && !boolean.errors){ if (massa < last_massa + param.discret1 *2  && massa > last_massa - param.discret1 *2 ) \
    5452:	80 91 30 03 	lds	r24, 0x0330	; 0x800330 <tim_5>
    5456:	90 91 31 03 	lds	r25, 0x0331	; 0x800331 <tim_5+0x1>
    545a:	89 2b       	or	r24, r25
    545c:	09 f0       	breq	.+2      	; 0x5460 <_Z8kalib_vpv+0x2c>
    545e:	55 c0       	rjmp	.+170    	; 0x550a <_Z8kalib_vpv+0xd6>
    5460:	80 91 87 06 	lds	r24, 0x0687	; 0x800687 <boolean>
    5464:	80 fd       	sbrc	r24, 0
    5466:	65 c0       	rjmp	.+202    	; 0x5532 <_Z8kalib_vpv+0xfe>
    5468:	80 91 9d 05 	lds	r24, 0x059D	; 0x80059d <param+0x4>
    546c:	90 e0       	ldi	r25, 0x00	; 0
    546e:	88 0f       	add	r24, r24
    5470:	99 1f       	adc	r25, r25
    5472:	09 2e       	mov	r0, r25
    5474:	00 0c       	add	r0, r0
    5476:	aa 0b       	sbc	r26, r26
    5478:	bb 0b       	sbc	r27, r27
    547a:	40 91 76 04 	lds	r20, 0x0476	; 0x800476 <last_massa>
    547e:	50 91 77 04 	lds	r21, 0x0477	; 0x800477 <last_massa+0x1>
    5482:	60 91 78 04 	lds	r22, 0x0478	; 0x800478 <last_massa+0x2>
    5486:	70 91 79 04 	lds	r23, 0x0479	; 0x800479 <last_massa+0x3>
    548a:	00 91 7a 04 	lds	r16, 0x047A	; 0x80047a <massa>
    548e:	10 91 7b 04 	lds	r17, 0x047B	; 0x80047b <massa+0x1>
    5492:	20 91 7c 04 	lds	r18, 0x047C	; 0x80047c <massa+0x2>
    5496:	30 91 7d 04 	lds	r19, 0x047D	; 0x80047d <massa+0x3>
    549a:	6c 01       	movw	r12, r24
    549c:	7d 01       	movw	r14, r26
    549e:	c4 0e       	add	r12, r20
    54a0:	d5 1e       	adc	r13, r21
    54a2:	e6 1e       	adc	r14, r22
    54a4:	f7 1e       	adc	r15, r23
    54a6:	0c 15       	cp	r16, r12
    54a8:	1d 05       	cpc	r17, r13
    54aa:	2e 05       	cpc	r18, r14
    54ac:	3f 05       	cpc	r19, r15
    54ae:	6c f4       	brge	.+26     	; 0x54ca <_Z8kalib_vpv+0x96>
    54b0:	48 1b       	sub	r20, r24
    54b2:	59 0b       	sbc	r21, r25
    54b4:	6a 0b       	sbc	r22, r26
    54b6:	7b 0b       	sbc	r23, r27
    54b8:	40 17       	cp	r20, r16
    54ba:	51 07       	cpc	r21, r17
    54bc:	62 07       	cpc	r22, r18
    54be:	73 07       	cpc	r23, r19
    54c0:	24 f4       	brge	.+8      	; 0x54ca <_Z8kalib_vpv+0x96>
    {send_point(3);}  else {send_non_point(3);}  tim_5 = (param.tim_stab * 1000); last_massa = massa;}     
    54c2:	83 e0       	ldi	r24, 0x03	; 3
    54c4:	0e 94 ce 1d 	call	0x3b9c	; 0x3b9c <_Z10send_pointh>
    54c8:	03 c0       	rjmp	.+6      	; 0x54d0 <_Z8kalib_vpv+0x9c>
    54ca:	83 e0       	ldi	r24, 0x03	; 3
    54cc:	0e 94 dc 1d 	call	0x3bb8	; 0x3bb8 <_Z14send_non_pointh>
    54d0:	40 91 b6 05 	lds	r20, 0x05B6	; 0x8005b6 <param+0x1d>
    54d4:	28 ee       	ldi	r18, 0xE8	; 232
    54d6:	33 e0       	ldi	r19, 0x03	; 3
    54d8:	42 9f       	mul	r20, r18
    54da:	c0 01       	movw	r24, r0
    54dc:	43 9f       	mul	r20, r19
    54de:	90 0d       	add	r25, r0
    54e0:	11 24       	eor	r1, r1
    54e2:	90 93 31 03 	sts	0x0331, r25	; 0x800331 <tim_5+0x1>
    54e6:	80 93 30 03 	sts	0x0330, r24	; 0x800330 <tim_5>
    54ea:	80 91 7a 04 	lds	r24, 0x047A	; 0x80047a <massa>
    54ee:	90 91 7b 04 	lds	r25, 0x047B	; 0x80047b <massa+0x1>
    54f2:	a0 91 7c 04 	lds	r26, 0x047C	; 0x80047c <massa+0x2>
    54f6:	b0 91 7d 04 	lds	r27, 0x047D	; 0x80047d <massa+0x3>
    54fa:	80 93 76 04 	sts	0x0476, r24	; 0x800476 <last_massa>
    54fe:	90 93 77 04 	sts	0x0477, r25	; 0x800477 <last_massa+0x1>
    5502:	a0 93 78 04 	sts	0x0478, r26	; 0x800478 <last_massa+0x2>
    5506:	b0 93 79 04 	sts	0x0479, r27	; 0x800479 <last_massa+0x3>
    (massa == 0 && !boolean.errors ) ?   send_point (2) : send_non_point(2);   // если масса равна 0 то зажечь светик      
    550a:	80 91 7a 04 	lds	r24, 0x047A	; 0x80047a <massa>
    550e:	90 91 7b 04 	lds	r25, 0x047B	; 0x80047b <massa+0x1>
    5512:	a0 91 7c 04 	lds	r26, 0x047C	; 0x80047c <massa+0x2>
    5516:	b0 91 7d 04 	lds	r27, 0x047D	; 0x80047d <massa+0x3>
    551a:	89 2b       	or	r24, r25
    551c:	8a 2b       	or	r24, r26
    551e:	8b 2b       	or	r24, r27
    5520:	41 f4       	brne	.+16     	; 0x5532 <_Z8kalib_vpv+0xfe>
    5522:	80 91 87 06 	lds	r24, 0x0687	; 0x800687 <boolean>
    5526:	80 fd       	sbrc	r24, 0
    5528:	04 c0       	rjmp	.+8      	; 0x5532 <_Z8kalib_vpv+0xfe>
    552a:	82 e0       	ldi	r24, 0x02	; 2
    552c:	0e 94 ce 1d 	call	0x3b9c	; 0x3b9c <_Z10send_pointh>
    5530:	03 c0       	rjmp	.+6      	; 0x5538 <_Z8kalib_vpv+0x104>
    5532:	82 e0       	ldi	r24, 0x02	; 2
    5534:	0e 94 dc 1d 	call	0x3bb8	; 0x3bb8 <_Z14send_non_pointh>
	if (!change_item){                // пока мы не вводим данные
    5538:	80 91 d8 05 	lds	r24, 0x05D8	; 0x8005d8 <change_item>
    553c:	81 11       	cpse	r24, r1
    553e:	82 c0       	rjmp	.+260    	; 0x5644 <_Z8kalib_vpv+0x210>
    if (boolean.data_ok)  {boolean.data_ok = false; converting_cod_to_massa (); massa = ((massa * param.calib_koef)+0.5);}   // тут получаем реальную массу, без фильтра   
    5540:	80 91 8a 06 	lds	r24, 0x068A	; 0x80068a <boolean+0x3>
    5544:	83 ff       	sbrs	r24, 3
    5546:	2a c0       	rjmp	.+84     	; 0x559c <_Z8kalib_vpv+0x168>
    5548:	ea e8       	ldi	r30, 0x8A	; 138
    554a:	f6 e0       	ldi	r31, 0x06	; 6
    554c:	87 7f       	andi	r24, 0xF7	; 247
    554e:	80 83       	st	Z, r24
    5550:	0e 94 eb 0a 	call	0x15d6	; 0x15d6 <_Z23converting_cod_to_massav>
    5554:	60 91 7a 04 	lds	r22, 0x047A	; 0x80047a <massa>
    5558:	70 91 7b 04 	lds	r23, 0x047B	; 0x80047b <massa+0x1>
    555c:	80 91 7c 04 	lds	r24, 0x047C	; 0x80047c <massa+0x2>
    5560:	90 91 7d 04 	lds	r25, 0x047D	; 0x80047d <massa+0x3>
    5564:	0e 94 7e 43 	call	0x86fc	; 0x86fc <__floatsisf>
    5568:	20 91 b8 05 	lds	r18, 0x05B8	; 0x8005b8 <param+0x1f>
    556c:	30 91 b9 05 	lds	r19, 0x05B9	; 0x8005b9 <param+0x20>
    5570:	40 91 ba 05 	lds	r20, 0x05BA	; 0x8005ba <param+0x21>
    5574:	50 91 bb 05 	lds	r21, 0x05BB	; 0x8005bb <param+0x22>
    5578:	0e 94 32 44 	call	0x8864	; 0x8864 <__mulsf3>
    557c:	20 e0       	ldi	r18, 0x00	; 0
    557e:	30 e0       	ldi	r19, 0x00	; 0
    5580:	40 e0       	ldi	r20, 0x00	; 0
    5582:	5f e3       	ldi	r21, 0x3F	; 63
    5584:	0e 94 7b 42 	call	0x84f6	; 0x84f6 <__addsf3>
    5588:	0e 94 4b 43 	call	0x8696	; 0x8696 <__fixsfsi>
    558c:	60 93 7a 04 	sts	0x047A, r22	; 0x80047a <massa>
    5590:	70 93 7b 04 	sts	0x047B, r23	; 0x80047b <massa+0x1>
    5594:	80 93 7c 04 	sts	0x047C, r24	; 0x80047c <massa+0x2>
    5598:	90 93 7d 04 	sts	0x047D, r25	; 0x80047d <massa+0x3>
     	if (not_change()) if (button_press (KEY_ENTER)) {change_item = true;}                                // отслеживаем ентер и если что переходим в выполнение ввода
    559c:	0e 94 bc 1f 	call	0x3f78	; 0x3f78 <_Z10not_changev>
    55a0:	88 23       	and	r24, r24
    55a2:	41 f0       	breq	.+16     	; 0x55b4 <_Z8kalib_vpv+0x180>
    55a4:	8b e3       	ldi	r24, 0x3B	; 59
    55a6:	0e 94 c6 09 	call	0x138c	; 0x138c <_Z12button_pressh>
    55aa:	88 23       	and	r24, r24
    55ac:	19 f0       	breq	.+6      	; 0x55b4 <_Z8kalib_vpv+0x180>
    55ae:	81 e0       	ldi	r24, 0x01	; 1
    55b0:	80 93 d8 05 	sts	0x05D8, r24	; 0x8005d8 <change_item>
        if (button_press (KEY_LEFT))  {zero_funk(1);}    
    55b4:	87 e3       	ldi	r24, 0x37	; 55
    55b6:	0e 94 c6 09 	call	0x138c	; 0x138c <_Z12button_pressh>
    55ba:	88 23       	and	r24, r24
    55bc:	19 f0       	breq	.+6      	; 0x55c4 <_Z8kalib_vpv+0x190>
    55be:	81 e0       	ldi	r24, 0x01	; 1
    55c0:	0e 94 7c 11 	call	0x22f8	; 0x22f8 <_Z9zero_funkh>
        if (!boolean.errors) { 
    55c4:	80 91 87 06 	lds	r24, 0x0687	; 0x800687 <boolean>
    55c8:	80 fd       	sbrc	r24, 0
    55ca:	2f c0       	rjmp	.+94     	; 0x562a <_Z8kalib_vpv+0x1f6>
     	 sprintf(send_buf, "%6ld" , massa );                                                                // показываем значение массы, если ерор то показать ошибку 
    55cc:	80 91 7d 04 	lds	r24, 0x047D	; 0x80047d <massa+0x3>
    55d0:	8f 93       	push	r24
    55d2:	80 91 7c 04 	lds	r24, 0x047C	; 0x80047c <massa+0x2>
    55d6:	8f 93       	push	r24
    55d8:	80 91 7b 04 	lds	r24, 0x047B	; 0x80047b <massa+0x1>
    55dc:	8f 93       	push	r24
    55de:	80 91 7a 04 	lds	r24, 0x047A	; 0x80047a <massa>
    55e2:	8f 93       	push	r24
    55e4:	8a e0       	ldi	r24, 0x0A	; 10
    55e6:	92 e0       	ldi	r25, 0x02	; 2
    55e8:	9f 93       	push	r25
    55ea:	8f 93       	push	r24
    55ec:	8c e8       	ldi	r24, 0x8C	; 140
    55ee:	94 e0       	ldi	r25, 0x04	; 4
    55f0:	9f 93       	push	r25
    55f2:	8f 93       	push	r24
    55f4:	0e 94 79 46 	call	0x8cf2	; 0x8cf2 <sprintf>
         mirror_data = massa; }   else {strcpy_P(send_buf, (PGM_P)pgm_read_word(&(error_string[ERROR4])));  }      
    55f8:	80 91 7a 04 	lds	r24, 0x047A	; 0x80047a <massa>
    55fc:	90 91 7b 04 	lds	r25, 0x047B	; 0x80047b <massa+0x1>
    5600:	a0 91 7c 04 	lds	r26, 0x047C	; 0x80047c <massa+0x2>
    5604:	b0 91 7d 04 	lds	r27, 0x047D	; 0x80047d <massa+0x3>
    5608:	80 93 d0 05 	sts	0x05D0, r24	; 0x8005d0 <mirror_data>
    560c:	90 93 d1 05 	sts	0x05D1, r25	; 0x8005d1 <mirror_data+0x1>
    5610:	a0 93 d2 05 	sts	0x05D2, r26	; 0x8005d2 <mirror_data+0x2>
    5614:	b0 93 d3 05 	sts	0x05D3, r27	; 0x8005d3 <mirror_data+0x3>
    5618:	8d b7       	in	r24, 0x3d	; 61
    561a:	9e b7       	in	r25, 0x3e	; 62
    561c:	08 96       	adiw	r24, 0x08	; 8
    561e:	0f b6       	in	r0, 0x3f	; 63
    5620:	f8 94       	cli
    5622:	9e bf       	out	0x3e, r25	; 62
    5624:	0f be       	out	0x3f, r0	; 63
    5626:	8d bf       	out	0x3d, r24	; 61
    5628:	08 c0       	rjmp	.+16     	; 0x563a <_Z8kalib_vpv+0x206>
    562a:	e7 ed       	ldi	r30, 0xD7	; 215
    562c:	f6 e0       	ldi	r31, 0x06	; 6
    562e:	65 91       	lpm	r22, Z+
    5630:	74 91       	lpm	r23, Z
    5632:	8c e8       	ldi	r24, 0x8C	; 140
    5634:	94 e0       	ldi	r25, 0x04	; 4
    5636:	0e 94 04 46 	call	0x8c08	; 0x8c08 <strcpy_P>
	}
	if (change_item){                                                                      // если мы вводим данные
    563a:	80 91 d8 05 	lds	r24, 0x05D8	; 0x8005d8 <change_item>
    563e:	88 23       	and	r24, r24
    5640:	09 f4       	brne	.+2      	; 0x5644 <_Z8kalib_vpv+0x210>
    5642:	5e c0       	rjmp	.+188    	; 0x5700 <_Z8kalib_vpv+0x2cc>
        if (boolean.data_ok)  {boolean.data_ok = false; converting_cod_to_massa ();}       // тут получаем коды датчиков без К.К
    5644:	80 91 8a 06 	lds	r24, 0x068A	; 0x80068a <boolean+0x3>
    5648:	83 ff       	sbrs	r24, 3
    564a:	06 c0       	rjmp	.+12     	; 0x5658 <_Z8kalib_vpv+0x224>
    564c:	ea e8       	ldi	r30, 0x8A	; 138
    564e:	f6 e0       	ldi	r31, 0x06	; 6
    5650:	87 7f       	andi	r24, 0xF7	; 247
    5652:	80 83       	st	Z, r24
    5654:	0e 94 eb 0a 	call	0x15d6	; 0x15d6 <_Z23converting_cod_to_massav>
     	enter_numbers (5);                                                                 // передаем в функцию ввода данных нашу переменную и количество знаков для ввода
    5658:	85 e0       	ldi	r24, 0x05	; 5
    565a:	c3 db       	rcall	.-2170   	; 0x4de2 <_Z13enter_numbersh>
     	if (button_press (KEY_ENTER)) {                                                    // отслеживаем ентер (добавит еепром)
    565c:	8b e3       	ldi	r24, 0x3B	; 59
    565e:	0e 94 c6 09 	call	0x138c	; 0x138c <_Z12button_pressh>
    5662:	88 23       	and	r24, r24
    5664:	09 f4       	brne	.+2      	; 0x5668 <_Z8kalib_vpv+0x234>
    5666:	4c c0       	rjmp	.+152    	; 0x5700 <_Z8kalib_vpv+0x2cc>
        change_item = false; non_repit = false; boolean.led_in_menu = false;               // выходим из функции изменения
    5668:	10 92 d8 05 	sts	0x05D8, r1	; 0x8005d8 <change_item>
    566c:	10 92 d7 05 	sts	0x05D7, r1	; 0x8005d7 <non_repit>
    5670:	e9 e8       	ldi	r30, 0x89	; 137
    5672:	f6 e0       	ldi	r31, 0x06	; 6
    5674:	80 81       	ld	r24, Z
    5676:	8d 7f       	andi	r24, 0xFD	; 253
    5678:	80 83       	st	Z, r24
        if (mirror_data < param.NPV ){                                                     // если больше НПВ не сохранять
    567a:	60 91 d0 05 	lds	r22, 0x05D0	; 0x8005d0 <mirror_data>
    567e:	70 91 d1 05 	lds	r23, 0x05D1	; 0x8005d1 <mirror_data+0x1>
    5682:	80 91 d2 05 	lds	r24, 0x05D2	; 0x8005d2 <mirror_data+0x2>
    5686:	90 91 d3 05 	lds	r25, 0x05D3	; 0x8005d3 <mirror_data+0x3>
    568a:	00 91 aa 05 	lds	r16, 0x05AA	; 0x8005aa <param+0x11>
    568e:	10 91 ab 05 	lds	r17, 0x05AB	; 0x8005ab <param+0x12>
    5692:	20 91 ac 05 	lds	r18, 0x05AC	; 0x8005ac <param+0x13>
    5696:	30 91 ad 05 	lds	r19, 0x05AD	; 0x8005ad <param+0x14>
    569a:	60 17       	cp	r22, r16
    569c:	71 07       	cpc	r23, r17
    569e:	82 07       	cpc	r24, r18
    56a0:	93 07       	cpc	r25, r19
    56a2:	64 f5       	brge	.+88     	; 0x56fc <_Z8kalib_vpv+0x2c8>
        param.calib_koef = (double) mirror_data / (double) labs(massa);
    56a4:	0e 94 7e 43 	call	0x86fc	; 0x86fc <__floatsisf>
    56a8:	6b 01       	movw	r12, r22
    56aa:	7c 01       	movw	r14, r24
    56ac:	60 91 7a 04 	lds	r22, 0x047A	; 0x80047a <massa>
    56b0:	70 91 7b 04 	lds	r23, 0x047B	; 0x80047b <massa+0x1>
    56b4:	80 91 7c 04 	lds	r24, 0x047C	; 0x80047c <massa+0x2>
    56b8:	90 91 7d 04 	lds	r25, 0x047D	; 0x80047d <massa+0x3>
    56bc:	99 23       	and	r25, r25
    56be:	3c f4       	brge	.+14     	; 0x56ce <_Z8kalib_vpv+0x29a>
    56c0:	90 95       	com	r25
    56c2:	80 95       	com	r24
    56c4:	70 95       	com	r23
    56c6:	61 95       	neg	r22
    56c8:	7f 4f       	sbci	r23, 0xFF	; 255
    56ca:	8f 4f       	sbci	r24, 0xFF	; 255
    56cc:	9f 4f       	sbci	r25, 0xFF	; 255
    56ce:	0e 94 7e 43 	call	0x86fc	; 0x86fc <__floatsisf>
    56d2:	9b 01       	movw	r18, r22
    56d4:	ac 01       	movw	r20, r24
    56d6:	c7 01       	movw	r24, r14
    56d8:	b6 01       	movw	r22, r12
    56da:	0e 94 e3 42 	call	0x85c6	; 0x85c6 <__divsf3>
    56de:	ab 01       	movw	r20, r22
    56e0:	bc 01       	movw	r22, r24
    56e2:	40 93 b8 05 	sts	0x05B8, r20	; 0x8005b8 <param+0x1f>
    56e6:	50 93 b9 05 	sts	0x05B9, r21	; 0x8005b9 <param+0x20>
    56ea:	60 93 ba 05 	sts	0x05BA, r22	; 0x8005ba <param+0x21>
    56ee:	70 93 bb 05 	sts	0x05BB, r23	; 0x8005bb <param+0x22>
        EEPROM_write_float(EE_KALIBKOEF,param.calib_koef); }                                // приравниваем новоезначение в параметр
    56f2:	88 e1       	ldi	r24, 0x18	; 24
    56f4:	90 e0       	ldi	r25, 0x00	; 0
    56f6:	0e 94 81 04 	call	0x902	; 0x902 <_Z18EEPROM_write_floatjd>
    56fa:	02 c0       	rjmp	.+4      	; 0x5700 <_Z8kalib_vpv+0x2cc>
        else {error_func (ERROR5);}                             
    56fc:	85 e0       	ldi	r24, 0x05	; 5
    56fe:	41 d9       	rcall	.-3454   	; 0x4982 <_Z10error_funch>
        }             
	}     
}
    5700:	1f 91       	pop	r17
    5702:	0f 91       	pop	r16
    5704:	ff 90       	pop	r15
    5706:	ef 90       	pop	r14
    5708:	df 90       	pop	r13
    570a:	cf 90       	pop	r12
    570c:	08 95       	ret

0000570e <_Z12enter_no_payv>:
          if(boolean.led_display == 2){sprintf(send_buf, "%f" , mirror_double );}     // а потом показывать уже просто зеркало этого значения
}

void enter_no_pay (void)                                                   // снятие блокировки ерр36
{
     if (!boolean.change_item_mirr){                                       // новая функция выполнения/не выполнения (так как другая задействована в вводе часов)
    570e:	80 91 88 06 	lds	r24, 0x0688	; 0x800688 <boolean+0x1>
    5712:	85 fd       	sbrc	r24, 5
    5714:	9a c0       	rjmp	.+308    	; 0x584a <_Z12enter_no_payv+0x13c>
           if (button_press (KEY_ENTER)) {boolean.change_item_mirr = true;}
    5716:	8b e3       	ldi	r24, 0x3B	; 59
    5718:	0e 94 c6 09 	call	0x138c	; 0x138c <_Z12button_pressh>
    571c:	88 23       	and	r24, r24
    571e:	29 f0       	breq	.+10     	; 0x572a <_Z12enter_no_payv+0x1c>
    5720:	e8 e8       	ldi	r30, 0x88	; 136
    5722:	f6 e0       	ldi	r31, 0x06	; 6
    5724:	80 81       	ld	r24, Z
    5726:	80 62       	ori	r24, 0x20	; 32
    5728:	80 83       	st	Z, r24
          sprintf(send_buf, "000000"  );massa = 0;mirror_data = 0; }
    572a:	87 e0       	ldi	r24, 0x07	; 7
    572c:	e4 ed       	ldi	r30, 0xD4	; 212
    572e:	f2 e0       	ldi	r31, 0x02	; 2
    5730:	ac e8       	ldi	r26, 0x8C	; 140
    5732:	b4 e0       	ldi	r27, 0x04	; 4
    5734:	01 90       	ld	r0, Z+
    5736:	0d 92       	st	X+, r0
    5738:	8a 95       	dec	r24
    573a:	e1 f7       	brne	.-8      	; 0x5734 <_Z12enter_no_payv+0x26>
    573c:	10 92 7a 04 	sts	0x047A, r1	; 0x80047a <massa>
    5740:	10 92 7b 04 	sts	0x047B, r1	; 0x80047b <massa+0x1>
    5744:	10 92 7c 04 	sts	0x047C, r1	; 0x80047c <massa+0x2>
    5748:	10 92 7d 04 	sts	0x047D, r1	; 0x80047d <massa+0x3>
    574c:	10 92 d0 05 	sts	0x05D0, r1	; 0x8005d0 <mirror_data>
    5750:	10 92 d1 05 	sts	0x05D1, r1	; 0x8005d1 <mirror_data+0x1>
    5754:	10 92 d2 05 	sts	0x05D2, r1	; 0x8005d2 <mirror_data+0x2>
    5758:	10 92 d3 05 	sts	0x05D3, r1	; 0x8005d3 <mirror_data+0x3>
	 if (boolean.change_item_mirr){
    575c:	80 91 88 06 	lds	r24, 0x0688	; 0x800688 <boolean+0x1>
    5760:	85 ff       	sbrs	r24, 5
    5762:	8a c0       	rjmp	.+276    	; 0x5878 <_Z12enter_no_payv+0x16a>
       switch (massa) {                                                    // используем массу не по назначению))
           case 0: enter_numbers (5);   
    5764:	85 e0       	ldi	r24, 0x05	; 5
    5766:	3d db       	rcall	.-2438   	; 0x4de2 <_Z13enter_numbersh>
           if (button_press (KEY_ENTER)) {
    5768:	8b e3       	ldi	r24, 0x3B	; 59
    576a:	0e 94 c6 09 	call	0x138c	; 0x138c <_Z12button_pressh>
    576e:	88 23       	and	r24, r24
    5770:	09 f4       	brne	.+2      	; 0x5774 <_Z12enter_no_payv+0x66>
    5772:	82 c0       	rjmp	.+260    	; 0x5878 <_Z12enter_no_payv+0x16a>
             if (mirror_data ==  param.pasw_err) {massa = 1;non_repit = false;mirror_data = 0;  EEPROM_write(EE_ERRPR36, 0); param.err36 = 0;  }   // если пароль совпадает с тем что ввели снимаем блокировку
    5774:	40 91 bc 05 	lds	r20, 0x05BC	; 0x8005bc <param+0x23>
    5778:	50 91 bd 05 	lds	r21, 0x05BD	; 0x8005bd <param+0x24>
    577c:	60 91 be 05 	lds	r22, 0x05BE	; 0x8005be <param+0x25>
    5780:	70 91 bf 05 	lds	r23, 0x05BF	; 0x8005bf <param+0x26>
    5784:	80 91 d0 05 	lds	r24, 0x05D0	; 0x8005d0 <mirror_data>
    5788:	90 91 d1 05 	lds	r25, 0x05D1	; 0x8005d1 <mirror_data+0x1>
    578c:	a0 91 d2 05 	lds	r26, 0x05D2	; 0x8005d2 <mirror_data+0x2>
    5790:	b0 91 d3 05 	lds	r27, 0x05D3	; 0x8005d3 <mirror_data+0x3>
    5794:	48 17       	cp	r20, r24
    5796:	59 07       	cpc	r21, r25
    5798:	6a 07       	cpc	r22, r26
    579a:	7b 07       	cpc	r23, r27
    579c:	f1 f4       	brne	.+60     	; 0x57da <_Z12enter_no_payv+0xcc>
    579e:	81 e0       	ldi	r24, 0x01	; 1
    57a0:	90 e0       	ldi	r25, 0x00	; 0
    57a2:	a0 e0       	ldi	r26, 0x00	; 0
    57a4:	b0 e0       	ldi	r27, 0x00	; 0
    57a6:	80 93 7a 04 	sts	0x047A, r24	; 0x80047a <massa>
    57aa:	90 93 7b 04 	sts	0x047B, r25	; 0x80047b <massa+0x1>
    57ae:	a0 93 7c 04 	sts	0x047C, r26	; 0x80047c <massa+0x2>
    57b2:	b0 93 7d 04 	sts	0x047D, r27	; 0x80047d <massa+0x3>
    57b6:	10 92 d7 05 	sts	0x05D7, r1	; 0x8005d7 <non_repit>
    57ba:	10 92 d0 05 	sts	0x05D0, r1	; 0x8005d0 <mirror_data>
    57be:	10 92 d1 05 	sts	0x05D1, r1	; 0x8005d1 <mirror_data+0x1>
    57c2:	10 92 d2 05 	sts	0x05D2, r1	; 0x8005d2 <mirror_data+0x2>
    57c6:	10 92 d3 05 	sts	0x05D3, r1	; 0x8005d3 <mirror_data+0x3>
    57ca:	60 e0       	ldi	r22, 0x00	; 0
    57cc:	8c e1       	ldi	r24, 0x1C	; 28
    57ce:	90 e0       	ldi	r25, 0x00	; 0
    57d0:	0e 94 14 04 	call	0x828	; 0x828 <_Z12EEPROM_writejh>
    57d4:	10 92 b5 05 	sts	0x05B5, r1	; 0x8005b5 <param+0x1c>
    57d8:	08 95       	ret
          	 else { error_func(ERROR5);boolean.change_item_mirr = false; non_repit = false;}                                                       // нет ерр5   
    57da:	85 e0       	ldi	r24, 0x05	; 5
    57dc:	d2 d8       	rcall	.-3676   	; 0x4982 <_Z10error_funch>
    57de:	e8 e8       	ldi	r30, 0x88	; 136
    57e0:	f6 e0       	ldi	r31, 0x06	; 6
    57e2:	80 81       	ld	r24, Z
    57e4:	8f 7d       	andi	r24, 0xDF	; 223
    57e6:	80 83       	st	Z, r24
    57e8:	10 92 d7 05 	sts	0x05D7, r1	; 0x8005d7 <non_repit>
    57ec:	08 95       	ret
           } break;
           case 1: enter_1307(&param.data_err, &param.mount_err, &param.year_err, 2);   break;                                                     // вводим новую дату блокировки            
    57ee:	22 e0       	ldi	r18, 0x02	; 2
    57f0:	44 ec       	ldi	r20, 0xC4	; 196
    57f2:	55 e0       	ldi	r21, 0x05	; 5
    57f4:	62 ec       	ldi	r22, 0xC2	; 194
    57f6:	75 e0       	ldi	r23, 0x05	; 5
    57f8:	80 ec       	ldi	r24, 0xC0	; 192
    57fa:	95 e0       	ldi	r25, 0x05	; 5
    57fc:	e4 c8       	rjmp	.-3640   	; 0x49c6 <_Z10enter_1307PjS_S_h>
    57fe:	08 95       	ret
           case 2: enter_numbers (5); 
    5800:	85 e0       	ldi	r24, 0x05	; 5
    5802:	ef da       	rcall	.-2594   	; 0x4de2 <_Z13enter_numbersh>
           if (button_press (KEY_ENTER)) {
    5804:	8b e3       	ldi	r24, 0x3B	; 59
    5806:	0e 94 c6 09 	call	0x138c	; 0x138c <_Z12button_pressh>
    580a:	88 23       	and	r24, r24
    580c:	a9 f1       	breq	.+106    	; 0x5878 <_Z12enter_no_payv+0x16a>
            param.pasw_err = mirror_data; EEPROM_write_32t(EE_PSWRD1,param.pasw_err);boolean.change_item_mirr = false; go_func = false;non_repit = false;} break;   // вводим новый пароль и записываем его в память      
    580e:	40 91 d0 05 	lds	r20, 0x05D0	; 0x8005d0 <mirror_data>
    5812:	50 91 d1 05 	lds	r21, 0x05D1	; 0x8005d1 <mirror_data+0x1>
    5816:	60 91 d2 05 	lds	r22, 0x05D2	; 0x8005d2 <mirror_data+0x2>
    581a:	70 91 d3 05 	lds	r23, 0x05D3	; 0x8005d3 <mirror_data+0x3>
    581e:	40 93 bc 05 	sts	0x05BC, r20	; 0x8005bc <param+0x23>
    5822:	50 93 bd 05 	sts	0x05BD, r21	; 0x8005bd <param+0x24>
    5826:	60 93 be 05 	sts	0x05BE, r22	; 0x8005be <param+0x25>
    582a:	70 93 bf 05 	sts	0x05BF, r23	; 0x8005bf <param+0x26>
    582e:	8c e0       	ldi	r24, 0x0C	; 12
    5830:	91 e0       	ldi	r25, 0x01	; 1
    5832:	0e 94 5b 04 	call	0x8b6	; 0x8b6 <_Z16EEPROM_write_32tjm>
    5836:	e8 e8       	ldi	r30, 0x88	; 136
    5838:	f6 e0       	ldi	r31, 0x06	; 6
    583a:	80 81       	ld	r24, Z
    583c:	8f 7d       	andi	r24, 0xDF	; 223
    583e:	80 83       	st	Z, r24
    5840:	10 92 d9 05 	sts	0x05D9, r1	; 0x8005d9 <go_func>
    5844:	10 92 d7 05 	sts	0x05D7, r1	; 0x8005d7 <non_repit>
       }              
    }
}
    5848:	08 95       	ret
{
     if (!boolean.change_item_mirr){                                       // новая функция выполнения/не выполнения (так как другая задействована в вводе часов)
           if (button_press (KEY_ENTER)) {boolean.change_item_mirr = true;}
          sprintf(send_buf, "000000"  );massa = 0;mirror_data = 0; }
	 if (boolean.change_item_mirr){
       switch (massa) {                                                    // используем массу не по назначению))
    584a:	80 91 7a 04 	lds	r24, 0x047A	; 0x80047a <massa>
    584e:	90 91 7b 04 	lds	r25, 0x047B	; 0x80047b <massa+0x1>
    5852:	a0 91 7c 04 	lds	r26, 0x047C	; 0x80047c <massa+0x2>
    5856:	b0 91 7d 04 	lds	r27, 0x047D	; 0x80047d <massa+0x3>
    585a:	81 30       	cpi	r24, 0x01	; 1
    585c:	91 05       	cpc	r25, r1
    585e:	a1 05       	cpc	r26, r1
    5860:	b1 05       	cpc	r27, r1
    5862:	29 f2       	breq	.-118    	; 0x57ee <_Z12enter_no_payv+0xe0>
    5864:	82 30       	cpi	r24, 0x02	; 2
    5866:	91 05       	cpc	r25, r1
    5868:	a1 05       	cpc	r26, r1
    586a:	b1 05       	cpc	r27, r1
    586c:	49 f2       	breq	.-110    	; 0x5800 <_Z12enter_no_payv+0xf2>
    586e:	89 2b       	or	r24, r25
    5870:	8a 2b       	or	r24, r26
    5872:	8b 2b       	or	r24, r27
    5874:	09 f4       	brne	.+2      	; 0x5878 <_Z12enter_no_payv+0x16a>
    5876:	76 cf       	rjmp	.-276    	; 0x5764 <_Z12enter_no_payv+0x56>
    5878:	08 95       	ret

0000587a <_Z11enter_floatv>:
void enter_float (void)                          // не доработаная функция ввода флоат значения. точка только возле одного знака. нужно править
{
    static uint8_t poz_point;
	static uint8_t  caunter_input;
	static char itedgers [20] ;
	if (!non_repit){ non_repit = true;  sprintf(itedgers, "%f"  , mirror_double ); caunter_input = 0 ; }
    587a:	80 91 d7 05 	lds	r24, 0x05D7	; 0x8005d7 <non_repit>
    587e:	88 23       	and	r24, r24
    5880:	29 f0       	breq	.+10     	; 0x588c <_Z11enter_floatv+0x12>
	else {
        for (int i = 0; i < 10; i ++)
        { if (itedgers[i] == '.') {poz_point = i; break;} }              
    5882:	80 91 a7 04 	lds	r24, 0x04A7	; 0x8004a7 <_ZZ11enter_floatvE8itedgers>
    5886:	8e 32       	cpi	r24, 0x2E	; 46
    5888:	29 f5       	brne	.+74     	; 0x58d4 <_Z11enter_floatv+0x5a>
    588a:	2c c0       	rjmp	.+88     	; 0x58e4 <_Z11enter_floatv+0x6a>
void enter_float (void)                          // не доработаная функция ввода флоат значения. точка только возле одного знака. нужно править
{
    static uint8_t poz_point;
	static uint8_t  caunter_input;
	static char itedgers [20] ;
	if (!non_repit){ non_repit = true;  sprintf(itedgers, "%f"  , mirror_double ); caunter_input = 0 ; }
    588c:	81 e0       	ldi	r24, 0x01	; 1
    588e:	80 93 d7 05 	sts	0x05D7, r24	; 0x8005d7 <non_repit>
    5892:	80 91 cf 05 	lds	r24, 0x05CF	; 0x8005cf <mirror_double+0x3>
    5896:	8f 93       	push	r24
    5898:	80 91 ce 05 	lds	r24, 0x05CE	; 0x8005ce <mirror_double+0x2>
    589c:	8f 93       	push	r24
    589e:	80 91 cd 05 	lds	r24, 0x05CD	; 0x8005cd <mirror_double+0x1>
    58a2:	8f 93       	push	r24
    58a4:	80 91 cc 05 	lds	r24, 0x05CC	; 0x8005cc <mirror_double>
    58a8:	8f 93       	push	r24
    58aa:	8b ed       	ldi	r24, 0xDB	; 219
    58ac:	92 e0       	ldi	r25, 0x02	; 2
    58ae:	9f 93       	push	r25
    58b0:	8f 93       	push	r24
    58b2:	87 ea       	ldi	r24, 0xA7	; 167
    58b4:	94 e0       	ldi	r25, 0x04	; 4
    58b6:	9f 93       	push	r25
    58b8:	8f 93       	push	r24
    58ba:	0e 94 79 46 	call	0x8cf2	; 0x8cf2 <sprintf>
    58be:	10 92 a6 04 	sts	0x04A6, r1	; 0x8004a6 <_ZZ11enter_floatvE13caunter_input>
    58c2:	8d b7       	in	r24, 0x3d	; 61
    58c4:	9e b7       	in	r25, 0x3e	; 62
    58c6:	08 96       	adiw	r24, 0x08	; 8
    58c8:	0f b6       	in	r0, 0x3f	; 63
    58ca:	f8 94       	cli
    58cc:	9e bf       	out	0x3e, r25	; 62
    58ce:	0f be       	out	0x3f, r0	; 63
    58d0:	8d bf       	out	0x3d, r24	; 61
    58d2:	08 95       	ret
    58d4:	e8 ea       	ldi	r30, 0xA8	; 168
    58d6:	f4 e0       	ldi	r31, 0x04	; 4
	else {
        for (int i = 0; i < 10; i ++)
    58d8:	81 e0       	ldi	r24, 0x01	; 1
    58da:	90 e0       	ldi	r25, 0x00	; 0
        { if (itedgers[i] == '.') {poz_point = i; break;} }              
    58dc:	21 91       	ld	r18, Z+
    58de:	2e 32       	cpi	r18, 0x2E	; 46
    58e0:	31 f4       	brne	.+12     	; 0x58ee <_Z11enter_floatv+0x74>
    58e2:	02 c0       	rjmp	.+4      	; 0x58e8 <_Z11enter_floatv+0x6e>
    58e4:	80 e0       	ldi	r24, 0x00	; 0
    58e6:	90 e0       	ldi	r25, 0x00	; 0
    58e8:	80 93 a5 04 	sts	0x04A5, r24	; 0x8004a5 <_ZZ11enter_floatvE9poz_point>
    58ec:	04 c0       	rjmp	.+8      	; 0x58f6 <_Z11enter_floatv+0x7c>
    static uint8_t poz_point;
	static uint8_t  caunter_input;
	static char itedgers [20] ;
	if (!non_repit){ non_repit = true;  sprintf(itedgers, "%f"  , mirror_double ); caunter_input = 0 ; }
	else {
        for (int i = 0; i < 10; i ++)
    58ee:	01 96       	adiw	r24, 0x01	; 1
    58f0:	8a 30       	cpi	r24, 0x0A	; 10
    58f2:	91 05       	cpc	r25, r1
    58f4:	99 f7       	brne	.-26     	; 0x58dc <_Z11enter_floatv+0x62>
        { if (itedgers[i] == '.') {poz_point = i; break;} }              
     	if (button_press (KEY_RIGHT)) { if (itedgers[caunter_input+1]  == '.' ){ caunter_input ++;}if (caunter_input < 6  ) caunter_input ++; }
    58f6:	8f e2       	ldi	r24, 0x2F	; 47
    58f8:	0e 94 c6 09 	call	0x138c	; 0x138c <_Z12button_pressh>
    58fc:	88 23       	and	r24, r24
    58fe:	99 f0       	breq	.+38     	; 0x5926 <_Z11enter_floatv+0xac>
    5900:	80 91 a6 04 	lds	r24, 0x04A6	; 0x8004a6 <_ZZ11enter_floatvE13caunter_input>
    5904:	e8 2f       	mov	r30, r24
    5906:	f0 e0       	ldi	r31, 0x00	; 0
    5908:	e9 55       	subi	r30, 0x59	; 89
    590a:	fb 4f       	sbci	r31, 0xFB	; 251
    590c:	91 81       	ldd	r25, Z+1	; 0x01
    590e:	9e 32       	cpi	r25, 0x2E	; 46
    5910:	19 f4       	brne	.+6      	; 0x5918 <_Z11enter_floatv+0x9e>
    5912:	8f 5f       	subi	r24, 0xFF	; 255
    5914:	80 93 a6 04 	sts	0x04A6, r24	; 0x8004a6 <_ZZ11enter_floatvE13caunter_input>
    5918:	80 91 a6 04 	lds	r24, 0x04A6	; 0x8004a6 <_ZZ11enter_floatvE13caunter_input>
    591c:	86 30       	cpi	r24, 0x06	; 6
    591e:	18 f4       	brcc	.+6      	; 0x5926 <_Z11enter_floatv+0xac>
    5920:	8f 5f       	subi	r24, 0xFF	; 255
    5922:	80 93 a6 04 	sts	0x04A6, r24	; 0x8004a6 <_ZZ11enter_floatvE13caunter_input>
     	if (button_press (KEY_LEFT)) {if (itedgers[caunter_input-1]  == '.'  ){  caunter_input --;}if (caunter_input > 0 ) caunter_input --;}
    5926:	87 e3       	ldi	r24, 0x37	; 55
    5928:	0e 94 c6 09 	call	0x138c	; 0x138c <_Z12button_pressh>
    592c:	88 23       	and	r24, r24
    592e:	99 f0       	breq	.+38     	; 0x5956 <_Z11enter_floatv+0xdc>
    5930:	80 91 a6 04 	lds	r24, 0x04A6	; 0x8004a6 <_ZZ11enter_floatvE13caunter_input>
    5934:	e8 2f       	mov	r30, r24
    5936:	f0 e0       	ldi	r31, 0x00	; 0
    5938:	ea 55       	subi	r30, 0x5A	; 90
    593a:	fb 4f       	sbci	r31, 0xFB	; 251
    593c:	90 81       	ld	r25, Z
    593e:	9e 32       	cpi	r25, 0x2E	; 46
    5940:	19 f4       	brne	.+6      	; 0x5948 <_Z11enter_floatv+0xce>
    5942:	81 50       	subi	r24, 0x01	; 1
    5944:	80 93 a6 04 	sts	0x04A6, r24	; 0x8004a6 <_ZZ11enter_floatvE13caunter_input>
    5948:	80 91 a6 04 	lds	r24, 0x04A6	; 0x8004a6 <_ZZ11enter_floatvE13caunter_input>
    594c:	88 23       	and	r24, r24
    594e:	19 f0       	breq	.+6      	; 0x5956 <_Z11enter_floatv+0xdc>
    5950:	81 50       	subi	r24, 0x01	; 1
    5952:	80 93 a6 04 	sts	0x04A6, r24	; 0x8004a6 <_ZZ11enter_floatvE13caunter_input>
     	if (button_press (KEY_UP)) {
    5956:	8e e3       	ldi	r24, 0x3E	; 62
    5958:	0e 94 c6 09 	call	0x138c	; 0x138c <_Z12button_pressh>
    595c:	88 23       	and	r24, r24
    595e:	d9 f0       	breq	.+54     	; 0x5996 <_Z11enter_floatv+0x11c>
          	if (itedgers[caunter_input ] - '0' < 9) itedgers[caunter_input ]  ++;
    5960:	80 91 a6 04 	lds	r24, 0x04A6	; 0x8004a6 <_ZZ11enter_floatvE13caunter_input>
    5964:	90 e0       	ldi	r25, 0x00	; 0
    5966:	fc 01       	movw	r30, r24
    5968:	e9 55       	subi	r30, 0x59	; 89
    596a:	fb 4f       	sbci	r31, 0xFB	; 251
    596c:	20 81       	ld	r18, Z
    596e:	42 2f       	mov	r20, r18
    5970:	50 e0       	ldi	r21, 0x00	; 0
    5972:	40 53       	subi	r20, 0x30	; 48
    5974:	51 09       	sbc	r21, r1
    5976:	49 30       	cpi	r20, 0x09	; 9
    5978:	51 05       	cpc	r21, r1
    597a:	34 f4       	brge	.+12     	; 0x5988 <_Z11enter_floatv+0x10e>
    597c:	fc 01       	movw	r30, r24
    597e:	e9 55       	subi	r30, 0x59	; 89
    5980:	fb 4f       	sbci	r31, 0xFB	; 251
    5982:	2f 5f       	subi	r18, 0xFF	; 255
    5984:	20 83       	st	Z, r18
    5986:	07 c0       	rjmp	.+14     	; 0x5996 <_Z11enter_floatv+0x11c>
          	else if(itedgers[caunter_input ] - '0' == 9) itedgers[caunter_input ] = '0';
    5988:	29 33       	cpi	r18, 0x39	; 57
    598a:	29 f4       	brne	.+10     	; 0x5996 <_Z11enter_floatv+0x11c>
    598c:	fc 01       	movw	r30, r24
    598e:	e9 55       	subi	r30, 0x59	; 89
    5990:	fb 4f       	sbci	r31, 0xFB	; 251
    5992:	20 e3       	ldi	r18, 0x30	; 48
    5994:	20 83       	st	Z, r18
     	}

		if (button_press (KEY_DOWN)) {
    5996:	8f e1       	ldi	r24, 0x1F	; 31
    5998:	0e 94 c6 09 	call	0x138c	; 0x138c <_Z12button_pressh>
    599c:	88 23       	and	r24, r24
    599e:	d9 f0       	breq	.+54     	; 0x59d6 <_Z11enter_floatv+0x15c>
			if (itedgers[caunter_input ] - '0'  > 0) itedgers[caunter_input ]  --;
    59a0:	80 91 a6 04 	lds	r24, 0x04A6	; 0x8004a6 <_ZZ11enter_floatvE13caunter_input>
    59a4:	90 e0       	ldi	r25, 0x00	; 0
    59a6:	fc 01       	movw	r30, r24
    59a8:	e9 55       	subi	r30, 0x59	; 89
    59aa:	fb 4f       	sbci	r31, 0xFB	; 251
    59ac:	20 81       	ld	r18, Z
    59ae:	42 2f       	mov	r20, r18
    59b0:	50 e0       	ldi	r21, 0x00	; 0
    59b2:	40 53       	subi	r20, 0x30	; 48
    59b4:	51 09       	sbc	r21, r1
    59b6:	14 16       	cp	r1, r20
    59b8:	15 06       	cpc	r1, r21
    59ba:	34 f4       	brge	.+12     	; 0x59c8 <_Z11enter_floatv+0x14e>
    59bc:	fc 01       	movw	r30, r24
    59be:	e9 55       	subi	r30, 0x59	; 89
    59c0:	fb 4f       	sbci	r31, 0xFB	; 251
    59c2:	21 50       	subi	r18, 0x01	; 1
    59c4:	20 83       	st	Z, r18
    59c6:	07 c0       	rjmp	.+14     	; 0x59d6 <_Z11enter_floatv+0x15c>
			else if(itedgers[caunter_input ] - '0'  == 0) itedgers[caunter_input ]  = '9';
    59c8:	20 33       	cpi	r18, 0x30	; 48
    59ca:	29 f4       	brne	.+10     	; 0x59d6 <_Z11enter_floatv+0x15c>
    59cc:	fc 01       	movw	r30, r24
    59ce:	e9 55       	subi	r30, 0x59	; 89
    59d0:	fb 4f       	sbci	r31, 0xFB	; 251
    59d2:	29 e3       	ldi	r18, 0x39	; 57
    59d4:	20 83       	st	Z, r18
		}
		mirror_double = atof(itedgers);
    59d6:	87 ea       	ldi	r24, 0xA7	; 167
    59d8:	94 e0       	ldi	r25, 0x04	; 4
    59da:	0e 94 03 45 	call	0x8a06	; 0x8a06 <atof>
    59de:	60 93 cc 05 	sts	0x05CC, r22	; 0x8005cc <mirror_double>
    59e2:	70 93 cd 05 	sts	0x05CD, r23	; 0x8005cd <mirror_double+0x1>
    59e6:	80 93 ce 05 	sts	0x05CE, r24	; 0x8005ce <mirror_double+0x2>
    59ea:	90 93 cf 05 	sts	0x05CF, r25	; 0x8005cf <mirror_double+0x3>
        sprintf(send_buf, "%s"  ,itedgers );
    59ee:	67 ea       	ldi	r22, 0xA7	; 167
    59f0:	74 e0       	ldi	r23, 0x04	; 4
    59f2:	8c e8       	ldi	r24, 0x8C	; 140
    59f4:	94 e0       	ldi	r25, 0x04	; 4
    59f6:	0e 94 16 46 	call	0x8c2c	; 0x8c2c <strcpy>
        if (poz_point == 1 && PIN_OFF && caunter_input == 2 ){itedgers[1] = itedgers[2]; itedgers[2] = '.'; caunter_input = 1; }
    59fa:	90 91 a5 04 	lds	r25, 0x04A5	; 0x8004a5 <_ZZ11enter_floatvE9poz_point>
    59fe:	91 30       	cpi	r25, 0x01	; 1
    5a00:	51 f4       	brne	.+20     	; 0x5a16 <_Z11enter_floatv+0x19c>
    5a02:	80 91 03 01 	lds	r24, 0x0103	; 0x800103 <__TEXT_REGION_LENGTH__+0x7c0103>
    5a06:	86 fd       	sbrc	r24, 6
    5a08:	83 c0       	rjmp	.+262    	; 0x5b10 <_Z11enter_floatv+0x296>
    5a0a:	80 91 a6 04 	lds	r24, 0x04A6	; 0x8004a6 <_ZZ11enter_floatvE13caunter_input>
    5a0e:	82 30       	cpi	r24, 0x02	; 2
    5a10:	09 f0       	breq	.+2      	; 0x5a14 <_Z11enter_floatv+0x19a>
    5a12:	7e c0       	rjmp	.+252    	; 0x5b10 <_Z11enter_floatv+0x296>
    5a14:	3f c0       	rjmp	.+126    	; 0x5a94 <_Z11enter_floatv+0x21a>
        if (poz_point == 2 && PIN_OFF && caunter_input == 0 ){itedgers[2] = itedgers[1]; itedgers[1] = '.'; caunter_input = 0; }
    5a16:	92 30       	cpi	r25, 0x02	; 2
    5a18:	09 f0       	breq	.+2      	; 0x5a1c <_Z11enter_floatv+0x1a2>
    5a1a:	7e c0       	rjmp	.+252    	; 0x5b18 <_Z11enter_floatv+0x29e>
    5a1c:	80 91 03 01 	lds	r24, 0x0103	; 0x800103 <__TEXT_REGION_LENGTH__+0x7c0103>
    5a20:	86 fd       	sbrc	r24, 6
    5a22:	0e c0       	rjmp	.+28     	; 0x5a40 <_Z11enter_floatv+0x1c6>
    5a24:	80 91 a6 04 	lds	r24, 0x04A6	; 0x8004a6 <_ZZ11enter_floatvE13caunter_input>
    5a28:	88 23       	and	r24, r24
    5a2a:	f1 f1       	breq	.+124    	; 0x5aa8 <_Z11enter_floatv+0x22e>
    5a2c:	09 c0       	rjmp	.+18     	; 0x5a40 <_Z11enter_floatv+0x1c6>
        if (poz_point == 1 && PIN_OFF && caunter_input == 3 ){itedgers[1] = itedgers[2]; itedgers[2] = itedgers[3]; itedgers[3] = '.'; caunter_input = 2; }     
    5a2e:	80 91 03 01 	lds	r24, 0x0103	; 0x800103 <__TEXT_REGION_LENGTH__+0x7c0103>
    5a32:	86 fd       	sbrc	r24, 6
    5a34:	11 c0       	rjmp	.+34     	; 0x5a58 <_Z11enter_floatv+0x1de>
    5a36:	80 91 a6 04 	lds	r24, 0x04A6	; 0x8004a6 <_ZZ11enter_floatvE13caunter_input>
    5a3a:	83 30       	cpi	r24, 0x03	; 3
    5a3c:	69 f4       	brne	.+26     	; 0x5a58 <_Z11enter_floatv+0x1de>
    5a3e:	3d c0       	rjmp	.+122    	; 0x5aba <_Z11enter_floatv+0x240>
        if (poz_point == 2 && PIN_OFF && caunter_input == 3 ){itedgers[2] = itedgers[3]; itedgers[3] = '.'; caunter_input = 2; }  
    5a40:	92 30       	cpi	r25, 0x02	; 2
    5a42:	51 f4       	brne	.+20     	; 0x5a58 <_Z11enter_floatv+0x1de>
    5a44:	80 91 03 01 	lds	r24, 0x0103	; 0x800103 <__TEXT_REGION_LENGTH__+0x7c0103>
    5a48:	86 fd       	sbrc	r24, 6
    5a4a:	6a c0       	rjmp	.+212    	; 0x5b20 <_Z11enter_floatv+0x2a6>
    5a4c:	80 91 a6 04 	lds	r24, 0x04A6	; 0x8004a6 <_ZZ11enter_floatvE13caunter_input>
    5a50:	83 30       	cpi	r24, 0x03	; 3
    5a52:	09 f0       	breq	.+2      	; 0x5a56 <_Z11enter_floatv+0x1dc>
    5a54:	65 c0       	rjmp	.+202    	; 0x5b20 <_Z11enter_floatv+0x2a6>
    5a56:	3d c0       	rjmp	.+122    	; 0x5ad2 <_Z11enter_floatv+0x258>
        if (poz_point == 3 && PIN_OFF && caunter_input == 0 ){itedgers[3] = itedgers[2]; itedgers[2] = itedgers[1]; itedgers[1] = '.'; caunter_input = 0; } 
    5a58:	93 30       	cpi	r25, 0x03	; 3
    5a5a:	89 f4       	brne	.+34     	; 0x5a7e <_Z11enter_floatv+0x204>
    5a5c:	80 91 03 01 	lds	r24, 0x0103	; 0x800103 <__TEXT_REGION_LENGTH__+0x7c0103>
    5a60:	86 fd       	sbrc	r24, 6
    5a62:	04 c0       	rjmp	.+8      	; 0x5a6c <_Z11enter_floatv+0x1f2>
    5a64:	80 91 a6 04 	lds	r24, 0x04A6	; 0x8004a6 <_ZZ11enter_floatvE13caunter_input>
    5a68:	88 23       	and	r24, r24
    5a6a:	e9 f1       	breq	.+122    	; 0x5ae6 <_Z11enter_floatv+0x26c>
        if (poz_point == 3 && PIN_OFF && caunter_input == 1 ){itedgers[3] = itedgers[2]; itedgers[2] = '.'; caunter_input = 1; }              
    5a6c:	80 91 03 01 	lds	r24, 0x0103	; 0x800103 <__TEXT_REGION_LENGTH__+0x7c0103>
    5a70:	86 fd       	sbrc	r24, 6
    5a72:	05 c0       	rjmp	.+10     	; 0x5a7e <_Z11enter_floatv+0x204>
    5a74:	80 91 a6 04 	lds	r24, 0x04A6	; 0x8004a6 <_ZZ11enter_floatvE13caunter_input>
    5a78:	81 30       	cpi	r24, 0x01	; 1
    5a7a:	09 f4       	brne	.+2      	; 0x5a7e <_Z11enter_floatv+0x204>
    5a7c:	3f c0       	rjmp	.+126    	; 0x5afc <_Z11enter_floatv+0x282>
        if (poz_point < caunter_input){blink_simbol (caunter_input - 1);}
    5a7e:	80 91 a6 04 	lds	r24, 0x04A6	; 0x8004a6 <_ZZ11enter_floatvE13caunter_input>
    5a82:	98 17       	cp	r25, r24
    5a84:	20 f4       	brcc	.+8      	; 0x5a8e <_Z11enter_floatv+0x214>
    5a86:	81 50       	subi	r24, 0x01	; 1
    5a88:	0c 94 ab 1d 	jmp	0x3b56	; 0x3b56 <_Z12blink_simbolh>
    5a8c:	08 95       	ret
        else {blink_simbol (caunter_input);}     
    5a8e:	0c 94 ab 1d 	jmp	0x3b56	; 0x3b56 <_Z12blink_simbolh>
	}       
}
    5a92:	08 95       	ret
			if (itedgers[caunter_input ] - '0'  > 0) itedgers[caunter_input ]  --;
			else if(itedgers[caunter_input ] - '0'  == 0) itedgers[caunter_input ]  = '9';
		}
		mirror_double = atof(itedgers);
        sprintf(send_buf, "%s"  ,itedgers );
        if (poz_point == 1 && PIN_OFF && caunter_input == 2 ){itedgers[1] = itedgers[2]; itedgers[2] = '.'; caunter_input = 1; }
    5a94:	e7 ea       	ldi	r30, 0xA7	; 167
    5a96:	f4 e0       	ldi	r31, 0x04	; 4
    5a98:	82 81       	ldd	r24, Z+2	; 0x02
    5a9a:	81 83       	std	Z+1, r24	; 0x01
    5a9c:	8e e2       	ldi	r24, 0x2E	; 46
    5a9e:	82 83       	std	Z+2, r24	; 0x02
    5aa0:	81 e0       	ldi	r24, 0x01	; 1
    5aa2:	80 93 a6 04 	sts	0x04A6, r24	; 0x8004a6 <_ZZ11enter_floatvE13caunter_input>
    5aa6:	34 c0       	rjmp	.+104    	; 0x5b10 <_Z11enter_floatv+0x296>
        if (poz_point == 2 && PIN_OFF && caunter_input == 0 ){itedgers[2] = itedgers[1]; itedgers[1] = '.'; caunter_input = 0; }
    5aa8:	e7 ea       	ldi	r30, 0xA7	; 167
    5aaa:	f4 e0       	ldi	r31, 0x04	; 4
    5aac:	81 81       	ldd	r24, Z+1	; 0x01
    5aae:	82 83       	std	Z+2, r24	; 0x02
    5ab0:	8e e2       	ldi	r24, 0x2E	; 46
    5ab2:	81 83       	std	Z+1, r24	; 0x01
    5ab4:	10 92 a6 04 	sts	0x04A6, r1	; 0x8004a6 <_ZZ11enter_floatvE13caunter_input>
    5ab8:	c3 cf       	rjmp	.-122    	; 0x5a40 <_Z11enter_floatv+0x1c6>
        if (poz_point == 1 && PIN_OFF && caunter_input == 3 ){itedgers[1] = itedgers[2]; itedgers[2] = itedgers[3]; itedgers[3] = '.'; caunter_input = 2; }     
    5aba:	e7 ea       	ldi	r30, 0xA7	; 167
    5abc:	f4 e0       	ldi	r31, 0x04	; 4
    5abe:	82 81       	ldd	r24, Z+2	; 0x02
    5ac0:	81 83       	std	Z+1, r24	; 0x01
    5ac2:	83 81       	ldd	r24, Z+3	; 0x03
    5ac4:	82 83       	std	Z+2, r24	; 0x02
    5ac6:	8e e2       	ldi	r24, 0x2E	; 46
    5ac8:	83 83       	std	Z+3, r24	; 0x03
    5aca:	82 e0       	ldi	r24, 0x02	; 2
    5acc:	80 93 a6 04 	sts	0x04A6, r24	; 0x8004a6 <_ZZ11enter_floatvE13caunter_input>
    5ad0:	c3 cf       	rjmp	.-122    	; 0x5a58 <_Z11enter_floatv+0x1de>
        if (poz_point == 2 && PIN_OFF && caunter_input == 3 ){itedgers[2] = itedgers[3]; itedgers[3] = '.'; caunter_input = 2; }  
    5ad2:	e7 ea       	ldi	r30, 0xA7	; 167
    5ad4:	f4 e0       	ldi	r31, 0x04	; 4
    5ad6:	83 81       	ldd	r24, Z+3	; 0x03
    5ad8:	82 83       	std	Z+2, r24	; 0x02
    5ada:	8e e2       	ldi	r24, 0x2E	; 46
    5adc:	83 83       	std	Z+3, r24	; 0x03
    5ade:	82 e0       	ldi	r24, 0x02	; 2
    5ae0:	80 93 a6 04 	sts	0x04A6, r24	; 0x8004a6 <_ZZ11enter_floatvE13caunter_input>
    5ae4:	1d c0       	rjmp	.+58     	; 0x5b20 <_Z11enter_floatv+0x2a6>
        if (poz_point == 3 && PIN_OFF && caunter_input == 0 ){itedgers[3] = itedgers[2]; itedgers[2] = itedgers[1]; itedgers[1] = '.'; caunter_input = 0; } 
    5ae6:	e7 ea       	ldi	r30, 0xA7	; 167
    5ae8:	f4 e0       	ldi	r31, 0x04	; 4
    5aea:	82 81       	ldd	r24, Z+2	; 0x02
    5aec:	83 83       	std	Z+3, r24	; 0x03
    5aee:	81 81       	ldd	r24, Z+1	; 0x01
    5af0:	82 83       	std	Z+2, r24	; 0x02
    5af2:	8e e2       	ldi	r24, 0x2E	; 46
    5af4:	81 83       	std	Z+1, r24	; 0x01
    5af6:	10 92 a6 04 	sts	0x04A6, r1	; 0x8004a6 <_ZZ11enter_floatvE13caunter_input>
    5afa:	b8 cf       	rjmp	.-144    	; 0x5a6c <_Z11enter_floatv+0x1f2>
        if (poz_point == 3 && PIN_OFF && caunter_input == 1 ){itedgers[3] = itedgers[2]; itedgers[2] = '.'; caunter_input = 1; }              
    5afc:	e7 ea       	ldi	r30, 0xA7	; 167
    5afe:	f4 e0       	ldi	r31, 0x04	; 4
    5b00:	82 81       	ldd	r24, Z+2	; 0x02
    5b02:	83 83       	std	Z+3, r24	; 0x03
    5b04:	8e e2       	ldi	r24, 0x2E	; 46
    5b06:	82 83       	std	Z+2, r24	; 0x02
    5b08:	81 e0       	ldi	r24, 0x01	; 1
    5b0a:	80 93 a6 04 	sts	0x04A6, r24	; 0x8004a6 <_ZZ11enter_floatvE13caunter_input>
    5b0e:	bf cf       	rjmp	.-130    	; 0x5a8e <_Z11enter_floatv+0x214>
		}
		mirror_double = atof(itedgers);
        sprintf(send_buf, "%s"  ,itedgers );
        if (poz_point == 1 && PIN_OFF && caunter_input == 2 ){itedgers[1] = itedgers[2]; itedgers[2] = '.'; caunter_input = 1; }
        if (poz_point == 2 && PIN_OFF && caunter_input == 0 ){itedgers[2] = itedgers[1]; itedgers[1] = '.'; caunter_input = 0; }
        if (poz_point == 1 && PIN_OFF && caunter_input == 3 ){itedgers[1] = itedgers[2]; itedgers[2] = itedgers[3]; itedgers[3] = '.'; caunter_input = 2; }     
    5b10:	91 30       	cpi	r25, 0x01	; 1
    5b12:	09 f4       	brne	.+2      	; 0x5b16 <_Z11enter_floatv+0x29c>
    5b14:	8c cf       	rjmp	.-232    	; 0x5a2e <_Z11enter_floatv+0x1b4>
    5b16:	94 cf       	rjmp	.-216    	; 0x5a40 <_Z11enter_floatv+0x1c6>
    5b18:	91 30       	cpi	r25, 0x01	; 1
    5b1a:	09 f4       	brne	.+2      	; 0x5b1e <_Z11enter_floatv+0x2a4>
    5b1c:	88 cf       	rjmp	.-240    	; 0x5a2e <_Z11enter_floatv+0x1b4>
    5b1e:	9c cf       	rjmp	.-200    	; 0x5a58 <_Z11enter_floatv+0x1de>
        if (poz_point == 2 && PIN_OFF && caunter_input == 3 ){itedgers[2] = itedgers[3]; itedgers[3] = '.'; caunter_input = 2; }  
        if (poz_point == 3 && PIN_OFF && caunter_input == 0 ){itedgers[3] = itedgers[2]; itedgers[2] = itedgers[1]; itedgers[1] = '.'; caunter_input = 0; } 
        if (poz_point == 3 && PIN_OFF && caunter_input == 1 ){itedgers[3] = itedgers[2]; itedgers[2] = '.'; caunter_input = 1; }              
    5b20:	93 30       	cpi	r25, 0x03	; 3
    5b22:	09 f0       	breq	.+2      	; 0x5b26 <_Z11enter_floatv+0x2ac>
    5b24:	ac cf       	rjmp	.-168    	; 0x5a7e <_Z11enter_floatv+0x204>
    5b26:	a2 cf       	rjmp	.-188    	; 0x5a6c <_Z11enter_floatv+0x1f2>

00005b28 <_Z8kal_koefv>:
     	}
	}       
}

void kal_koef (void)                    // ввод калибровочного коэф
{
    5b28:	cf 92       	push	r12
    5b2a:	df 92       	push	r13
    5b2c:	ef 92       	push	r14
    5b2e:	ff 92       	push	r15
    5b30:	cf 93       	push	r28
    5b32:	df 93       	push	r29
	if (!change_item){
    5b34:	80 91 d8 05 	lds	r24, 0x05D8	; 0x8005d8 <change_item>
    5b38:	81 11       	cpse	r24, r1
    5b3a:	38 c0       	rjmp	.+112    	; 0x5bac <_Z8kal_koefv+0x84>
		if (not_change()) if (button_press (KEY_ENTER)) {change_item = true;}                                // защита от ввода без пароля, или разблокировки
    5b3c:	0e 94 bc 1f 	call	0x3f78	; 0x3f78 <_Z10not_changev>
    5b40:	88 23       	and	r24, r24
    5b42:	41 f0       	breq	.+16     	; 0x5b54 <_Z8kal_koefv+0x2c>
    5b44:	8b e3       	ldi	r24, 0x3B	; 59
    5b46:	0e 94 c6 09 	call	0x138c	; 0x138c <_Z12button_pressh>
    5b4a:	88 23       	and	r24, r24
    5b4c:	19 f0       	breq	.+6      	; 0x5b54 <_Z8kal_koefv+0x2c>
    5b4e:	81 e0       	ldi	r24, 0x01	; 1
    5b50:	80 93 d8 05 	sts	0x05D8, r24	; 0x8005d8 <change_item>
		sprintf(send_buf, "%f" ,  param.calib_koef ); mirror_double = param.calib_koef;                      // выводим на экран калиб, коэф
    5b54:	c9 e9       	ldi	r28, 0x99	; 153
    5b56:	d5 e0       	ldi	r29, 0x05	; 5
    5b58:	8a a1       	ldd	r24, Y+34	; 0x22
    5b5a:	8f 93       	push	r24
    5b5c:	89 a1       	ldd	r24, Y+33	; 0x21
    5b5e:	8f 93       	push	r24
    5b60:	88 a1       	ldd	r24, Y+32	; 0x20
    5b62:	8f 93       	push	r24
    5b64:	8f 8d       	ldd	r24, Y+31	; 0x1f
    5b66:	8f 93       	push	r24
    5b68:	8b ed       	ldi	r24, 0xDB	; 219
    5b6a:	92 e0       	ldi	r25, 0x02	; 2
    5b6c:	9f 93       	push	r25
    5b6e:	8f 93       	push	r24
    5b70:	8c e8       	ldi	r24, 0x8C	; 140
    5b72:	94 e0       	ldi	r25, 0x04	; 4
    5b74:	9f 93       	push	r25
    5b76:	8f 93       	push	r24
    5b78:	0e 94 79 46 	call	0x8cf2	; 0x8cf2 <sprintf>
    5b7c:	8f 8d       	ldd	r24, Y+31	; 0x1f
    5b7e:	98 a1       	ldd	r25, Y+32	; 0x20
    5b80:	a9 a1       	ldd	r26, Y+33	; 0x21
    5b82:	ba a1       	ldd	r27, Y+34	; 0x22
    5b84:	80 93 cc 05 	sts	0x05CC, r24	; 0x8005cc <mirror_double>
    5b88:	90 93 cd 05 	sts	0x05CD, r25	; 0x8005cd <mirror_double+0x1>
    5b8c:	a0 93 ce 05 	sts	0x05CE, r26	; 0x8005ce <mirror_double+0x2>
    5b90:	b0 93 cf 05 	sts	0x05CF, r27	; 0x8005cf <mirror_double+0x3>
	}
	if (change_item){
    5b94:	8d b7       	in	r24, 0x3d	; 61
    5b96:	9e b7       	in	r25, 0x3e	; 62
    5b98:	08 96       	adiw	r24, 0x08	; 8
    5b9a:	0f b6       	in	r0, 0x3f	; 63
    5b9c:	f8 94       	cli
    5b9e:	9e bf       	out	0x3e, r25	; 62
    5ba0:	0f be       	out	0x3f, r0	; 63
    5ba2:	8d bf       	out	0x3d, r24	; 61
    5ba4:	80 91 d8 05 	lds	r24, 0x05D8	; 0x8005d8 <change_item>
    5ba8:	88 23       	and	r24, r24
    5baa:	c1 f1       	breq	.+112    	; 0x5c1c <_Z8kal_koefv+0xf4>
		enter_float ();                                                                                      // переходим в функцию ввода флоат числа
    5bac:	66 de       	rcall	.-820    	; 0x587a <_Z11enter_floatv>
		if (button_press (KEY_ENTER)) {
    5bae:	8b e3       	ldi	r24, 0x3B	; 59
    5bb0:	0e 94 c6 09 	call	0x138c	; 0x138c <_Z12button_pressh>
    5bb4:	88 23       	and	r24, r24
    5bb6:	91 f1       	breq	.+100    	; 0x5c1c <_Z8kal_koefv+0xf4>
			change_item = false; non_repit = false;                                                          // выходим из функции ввода, сбрасываем одноразовое выполнение
    5bb8:	10 92 d8 05 	sts	0x05D8, r1	; 0x8005d8 <change_item>
    5bbc:	10 92 d7 05 	sts	0x05D7, r1	; 0x8005d7 <non_repit>
			if (mirror_double < 0.001 || mirror_double > 500) {                                                // если ввели некоректные значения еррор
    5bc0:	c0 90 cc 05 	lds	r12, 0x05CC	; 0x8005cc <mirror_double>
    5bc4:	d0 90 cd 05 	lds	r13, 0x05CD	; 0x8005cd <mirror_double+0x1>
    5bc8:	e0 90 ce 05 	lds	r14, 0x05CE	; 0x8005ce <mirror_double+0x2>
    5bcc:	f0 90 cf 05 	lds	r15, 0x05CF	; 0x8005cf <mirror_double+0x3>
    5bd0:	2f e6       	ldi	r18, 0x6F	; 111
    5bd2:	32 e1       	ldi	r19, 0x12	; 18
    5bd4:	43 e8       	ldi	r20, 0x83	; 131
    5bd6:	5a e3       	ldi	r21, 0x3A	; 58
    5bd8:	c7 01       	movw	r24, r14
    5bda:	b6 01       	movw	r22, r12
    5bdc:	0e 94 df 42 	call	0x85be	; 0x85be <__cmpsf2>
    5be0:	88 23       	and	r24, r24
    5be2:	54 f0       	brlt	.+20     	; 0x5bf8 <_Z8kal_koefv+0xd0>
    5be4:	20 e0       	ldi	r18, 0x00	; 0
    5be6:	30 e0       	ldi	r19, 0x00	; 0
    5be8:	4a ef       	ldi	r20, 0xFA	; 250
    5bea:	53 e4       	ldi	r21, 0x43	; 67
    5bec:	c7 01       	movw	r24, r14
    5bee:	b6 01       	movw	r22, r12
    5bf0:	0e 94 2e 44 	call	0x885c	; 0x885c <__gesf2>
    5bf4:	18 16       	cp	r1, r24
    5bf6:	24 f4       	brge	.+8      	; 0x5c00 <_Z8kal_koefv+0xd8>
				error_func (ERROR5);
    5bf8:	85 e0       	ldi	r24, 0x05	; 5
    5bfa:	0e 94 c1 24 	call	0x4982	; 0x4982 <_Z10error_funch>
    5bfe:	0e c0       	rjmp	.+28     	; 0x5c1c <_Z8kal_koefv+0xf4>
			}
			else{ param.calib_koef = mirror_double;                                                           // если корректные то сохраняем
    5c00:	c0 92 b8 05 	sts	0x05B8, r12	; 0x8005b8 <param+0x1f>
    5c04:	d0 92 b9 05 	sts	0x05B9, r13	; 0x8005b9 <param+0x20>
    5c08:	e0 92 ba 05 	sts	0x05BA, r14	; 0x8005ba <param+0x21>
    5c0c:	f0 92 bb 05 	sts	0x05BB, r15	; 0x8005bb <param+0x22>
            EEPROM_write_float(EE_KALIBKOEF,param.calib_koef);}
    5c10:	b7 01       	movw	r22, r14
    5c12:	a6 01       	movw	r20, r12
    5c14:	88 e1       	ldi	r24, 0x18	; 24
    5c16:	90 e0       	ldi	r25, 0x00	; 0
    5c18:	0e 94 81 04 	call	0x902	; 0x902 <_Z18EEPROM_write_floatjd>
		}
	}
}
    5c1c:	df 91       	pop	r29
    5c1e:	cf 91       	pop	r28
    5c20:	ff 90       	pop	r15
    5c22:	ef 90       	pop	r14
    5c24:	df 90       	pop	r13
    5c26:	cf 90       	pop	r12
    5c28:	08 95       	ret

00005c2a <_Z10enter_8bithhPhjh>:
{
  enter_8bit (0,1,&param.of_adc,EE_OF_ADC,2);
}

void enter_8bit (uint8_t min, uint8_t max, uint8_t *paramet, uint16_t eeprom, uint8_t size)    // функция ввода числа 8бит
{
    5c2a:	cf 92       	push	r12
    5c2c:	df 92       	push	r13
    5c2e:	ff 92       	push	r15
    5c30:	0f 93       	push	r16
    5c32:	1f 93       	push	r17
    5c34:	cf 93       	push	r28
    5c36:	df 93       	push	r29
    5c38:	18 2f       	mov	r17, r24
    5c3a:	f6 2e       	mov	r15, r22
    5c3c:	ea 01       	movw	r28, r20
    5c3e:	69 01       	movw	r12, r18
     if (!change_item){
    5c40:	80 91 d8 05 	lds	r24, 0x05D8	; 0x8005d8 <change_item>
    5c44:	81 11       	cpse	r24, r1
    5c46:	2c c0       	rjmp	.+88     	; 0x5ca0 <_Z10enter_8bithhPhjh+0x76>
          if (not_change()) if (button_press (KEY_ENTER)) {change_item = true;}
    5c48:	0e 94 bc 1f 	call	0x3f78	; 0x3f78 <_Z10not_changev>
    5c4c:	88 23       	and	r24, r24
    5c4e:	41 f0       	breq	.+16     	; 0x5c60 <_Z10enter_8bithhPhjh+0x36>
    5c50:	8b e3       	ldi	r24, 0x3B	; 59
    5c52:	0e 94 c6 09 	call	0x138c	; 0x138c <_Z12button_pressh>
    5c56:	88 23       	and	r24, r24
    5c58:	19 f0       	breq	.+6      	; 0x5c60 <_Z10enter_8bithhPhjh+0x36>
    5c5a:	81 e0       	ldi	r24, 0x01	; 1
    5c5c:	80 93 d8 05 	sts	0x05D8, r24	; 0x8005d8 <change_item>
          sprintf(send_buf, "    %2lu" , (uint32_t) *paramet );mirror_data_8bit = *paramet;
    5c60:	88 81       	ld	r24, Y
    5c62:	1f 92       	push	r1
    5c64:	1f 92       	push	r1
    5c66:	1f 92       	push	r1
    5c68:	8f 93       	push	r24
    5c6a:	8e ed       	ldi	r24, 0xDE	; 222
    5c6c:	92 e0       	ldi	r25, 0x02	; 2
    5c6e:	9f 93       	push	r25
    5c70:	8f 93       	push	r24
    5c72:	8c e8       	ldi	r24, 0x8C	; 140
    5c74:	94 e0       	ldi	r25, 0x04	; 4
    5c76:	9f 93       	push	r25
    5c78:	8f 93       	push	r24
    5c7a:	0e 94 79 46 	call	0x8cf2	; 0x8cf2 <sprintf>
    5c7e:	88 81       	ld	r24, Y
    5c80:	80 93 d4 05 	sts	0x05D4, r24	; 0x8005d4 <mirror_data_8bit>
     }
     if (change_item){
    5c84:	2d b7       	in	r18, 0x3d	; 61
    5c86:	3e b7       	in	r19, 0x3e	; 62
    5c88:	28 5f       	subi	r18, 0xF8	; 248
    5c8a:	3f 4f       	sbci	r19, 0xFF	; 255
    5c8c:	0f b6       	in	r0, 0x3f	; 63
    5c8e:	f8 94       	cli
    5c90:	3e bf       	out	0x3e, r19	; 62
    5c92:	0f be       	out	0x3f, r0	; 63
    5c94:	2d bf       	out	0x3d, r18	; 61
    5c96:	80 91 d8 05 	lds	r24, 0x05D8	; 0x8005d8 <change_item>
    5c9a:	88 23       	and	r24, r24
    5c9c:	09 f4       	brne	.+2      	; 0x5ca0 <_Z10enter_8bithhPhjh+0x76>
    5c9e:	4b c0       	rjmp	.+150    	; 0x5d36 <_Z10enter_8bithhPhjh+0x10c>
          if (button_press (KEY_UP)) { if (mirror_data_8bit < max) mirror_data_8bit ++;  }
    5ca0:	8e e3       	ldi	r24, 0x3E	; 62
    5ca2:	0e 94 c6 09 	call	0x138c	; 0x138c <_Z12button_pressh>
    5ca6:	88 23       	and	r24, r24
    5ca8:	39 f0       	breq	.+14     	; 0x5cb8 <_Z10enter_8bithhPhjh+0x8e>
    5caa:	80 91 d4 05 	lds	r24, 0x05D4	; 0x8005d4 <mirror_data_8bit>
    5cae:	8f 15       	cp	r24, r15
    5cb0:	18 f4       	brcc	.+6      	; 0x5cb8 <_Z10enter_8bithhPhjh+0x8e>
    5cb2:	8f 5f       	subi	r24, 0xFF	; 255
    5cb4:	80 93 d4 05 	sts	0x05D4, r24	; 0x8005d4 <mirror_data_8bit>
          if (button_press (KEY_DOWN)) {if (mirror_data_8bit > min) mirror_data_8bit --; }
    5cb8:	8f e1       	ldi	r24, 0x1F	; 31
    5cba:	0e 94 c6 09 	call	0x138c	; 0x138c <_Z12button_pressh>
    5cbe:	88 23       	and	r24, r24
    5cc0:	39 f0       	breq	.+14     	; 0x5cd0 <_Z10enter_8bithhPhjh+0xa6>
    5cc2:	80 91 d4 05 	lds	r24, 0x05D4	; 0x8005d4 <mirror_data_8bit>
    5cc6:	18 17       	cp	r17, r24
    5cc8:	18 f4       	brcc	.+6      	; 0x5cd0 <_Z10enter_8bithhPhjh+0xa6>
    5cca:	81 50       	subi	r24, 0x01	; 1
    5ccc:	80 93 d4 05 	sts	0x05D4, r24	; 0x8005d4 <mirror_data_8bit>
          if (size == 1) {blink_simbol (5); }
    5cd0:	01 30       	cpi	r16, 0x01	; 1
    5cd2:	21 f4       	brne	.+8      	; 0x5cdc <_Z10enter_8bithhPhjh+0xb2>
    5cd4:	85 e0       	ldi	r24, 0x05	; 5
    5cd6:	0e 94 ab 1d 	call	0x3b56	; 0x3b56 <_Z12blink_simbolh>
    5cda:	05 c0       	rjmp	.+10     	; 0x5ce6 <_Z10enter_8bithhPhjh+0xbc>
          if (size == 2) {blink_many_simbol (0x30); }
    5cdc:	02 30       	cpi	r16, 0x02	; 2
    5cde:	19 f4       	brne	.+6      	; 0x5ce6 <_Z10enter_8bithhPhjh+0xbc>
    5ce0:	80 e3       	ldi	r24, 0x30	; 48
    5ce2:	0e 94 bf 1d 	call	0x3b7e	; 0x3b7e <_Z17blink_many_simbolh>
          sprintf(send_buf, "    %2lu"  ,(uint32_t) mirror_data_8bit );
    5ce6:	80 91 d4 05 	lds	r24, 0x05D4	; 0x8005d4 <mirror_data_8bit>
    5cea:	1f 92       	push	r1
    5cec:	1f 92       	push	r1
    5cee:	1f 92       	push	r1
    5cf0:	8f 93       	push	r24
    5cf2:	8e ed       	ldi	r24, 0xDE	; 222
    5cf4:	92 e0       	ldi	r25, 0x02	; 2
    5cf6:	9f 93       	push	r25
    5cf8:	8f 93       	push	r24
    5cfa:	8c e8       	ldi	r24, 0x8C	; 140
    5cfc:	94 e0       	ldi	r25, 0x04	; 4
    5cfe:	9f 93       	push	r25
    5d00:	8f 93       	push	r24
    5d02:	0e 94 79 46 	call	0x8cf2	; 0x8cf2 <sprintf>
          if (button_press (KEY_ENTER)) {
    5d06:	8b e3       	ldi	r24, 0x3B	; 59
    5d08:	0e 94 c6 09 	call	0x138c	; 0x138c <_Z12button_pressh>
    5d0c:	2d b7       	in	r18, 0x3d	; 61
    5d0e:	3e b7       	in	r19, 0x3e	; 62
    5d10:	28 5f       	subi	r18, 0xF8	; 248
    5d12:	3f 4f       	sbci	r19, 0xFF	; 255
    5d14:	0f b6       	in	r0, 0x3f	; 63
    5d16:	f8 94       	cli
    5d18:	3e bf       	out	0x3e, r19	; 62
    5d1a:	0f be       	out	0x3f, r0	; 63
    5d1c:	2d bf       	out	0x3d, r18	; 61
    5d1e:	88 23       	and	r24, r24
    5d20:	51 f0       	breq	.+20     	; 0x5d36 <_Z10enter_8bithhPhjh+0x10c>
           change_item = false; non_repit = false;
    5d22:	10 92 d8 05 	sts	0x05D8, r1	; 0x8005d8 <change_item>
    5d26:	10 92 d7 05 	sts	0x05D7, r1	; 0x8005d7 <non_repit>
          *paramet = mirror_data_8bit;  EEPROM_write(eeprom, *paramet); }
    5d2a:	60 91 d4 05 	lds	r22, 0x05D4	; 0x8005d4 <mirror_data_8bit>
    5d2e:	68 83       	st	Y, r22
    5d30:	c6 01       	movw	r24, r12
    5d32:	0e 94 14 04 	call	0x828	; 0x828 <_Z12EEPROM_writejh>
     }     
}
    5d36:	df 91       	pop	r29
    5d38:	cf 91       	pop	r28
    5d3a:	1f 91       	pop	r17
    5d3c:	0f 91       	pop	r16
    5d3e:	ff 90       	pop	r15
    5d40:	df 90       	pop	r13
    5d42:	cf 90       	pop	r12
    5d44:	08 95       	ret

00005d46 <_Z7tips_cdv>:
        }   
	}
}

void tips_cd (void)                    // аналогичная функция для ввода типа датчика
{
    5d46:	0f 93       	push	r16
     enter_8bit (1,2,&param.tip_cd,EE_TIPCD,1); 
    5d48:	01 e0       	ldi	r16, 0x01	; 1
    5d4a:	2d e0       	ldi	r18, 0x0D	; 13
    5d4c:	30 e0       	ldi	r19, 0x00	; 0
    5d4e:	49 ea       	ldi	r20, 0xA9	; 169
    5d50:	55 e0       	ldi	r21, 0x05	; 5
    5d52:	62 e0       	ldi	r22, 0x02	; 2
    5d54:	81 e0       	ldi	r24, 0x01	; 1
    5d56:	69 df       	rcall	.-302    	; 0x5c2a <_Z10enter_8bithhPhjh>
}
    5d58:	0f 91       	pop	r16
    5d5a:	08 95       	ret

00005d5c <_Z14protocol_data1v>:
          }
     }
}

void protocol_data1 (void)              // простая функция как ввод количества цд
{
    5d5c:	0f 93       	push	r16
     enter_8bit (1,2,&param.protokol1,EE_PROTOCOL1,1); 
    5d5e:	01 e0       	ldi	r16, 0x01	; 1
    5d60:	20 e1       	ldi	r18, 0x10	; 16
    5d62:	30 e0       	ldi	r19, 0x00	; 0
    5d64:	40 eb       	ldi	r20, 0xB0	; 176
    5d66:	55 e0       	ldi	r21, 0x05	; 5
    5d68:	62 e0       	ldi	r22, 0x02	; 2
    5d6a:	81 e0       	ldi	r24, 0x01	; 1
    5d6c:	5e df       	rcall	.-324    	; 0x5c2a <_Z10enter_8bithhPhjh>
}
    5d6e:	0f 91       	pop	r16
    5d70:	08 95       	ret

00005d72 <_Z14protocol_data2v>:

void protocol_data2 (void)              // аналогично первой
{
    5d72:	0f 93       	push	r16
    enter_8bit (1,2,&param.protokol2,EE_PROTOCOL2,1);  
    5d74:	01 e0       	ldi	r16, 0x01	; 1
    5d76:	21 e1       	ldi	r18, 0x11	; 17
    5d78:	30 e0       	ldi	r19, 0x00	; 0
    5d7a:	41 eb       	ldi	r20, 0xB1	; 177
    5d7c:	55 e0       	ldi	r21, 0x05	; 5
    5d7e:	62 e0       	ldi	r22, 0x02	; 2
    5d80:	81 e0       	ldi	r24, 0x01	; 1
    5d82:	53 df       	rcall	.-346    	; 0x5c2a <_Z10enter_8bithhPhjh>
}
    5d84:	0f 91       	pop	r16
    5d86:	08 95       	ret

00005d88 <_Z10filtr_datav>:

void filtr_data (void)                  // и это тоже. в дальнейшем нужно написать функцию которая объеденит их 
{
    5d88:	0f 93       	push	r16
    enter_8bit (1,5,&param.filtr,EE_FILTR,1);  
    5d8a:	01 e0       	ldi	r16, 0x01	; 1
    5d8c:	22 e1       	ldi	r18, 0x12	; 18
    5d8e:	30 e0       	ldi	r19, 0x00	; 0
    5d90:	42 eb       	ldi	r20, 0xB2	; 178
    5d92:	55 e0       	ldi	r21, 0x05	; 5
    5d94:	65 e0       	ldi	r22, 0x05	; 5
    5d96:	81 e0       	ldi	r24, 0x01	; 1
    5d98:	48 df       	rcall	.-368    	; 0x5c2a <_Z10enter_8bithhPhjh>
}
    5d9a:	0f 91       	pop	r16
    5d9c:	08 95       	ret

00005d9e <_Z13zero_in_startv>:
        else {blink_simbol (caunter_input);}     
	}       
}

void zero_in_start (void)
{
    5d9e:	0f 93       	push	r16
    enter_8bit (0,1,&param.zero_start,EE_ZEROSTART,1);  
    5da0:	01 e0       	ldi	r16, 0x01	; 1
    5da2:	23 e1       	ldi	r18, 0x13	; 19
    5da4:	30 e0       	ldi	r19, 0x00	; 0
    5da6:	44 eb       	ldi	r20, 0xB4	; 180
    5da8:	55 e0       	ldi	r21, 0x05	; 5
    5daa:	61 e0       	ldi	r22, 0x01	; 1
    5dac:	80 e0       	ldi	r24, 0x00	; 0
    5dae:	3d df       	rcall	.-390    	; 0x5c2a <_Z10enter_8bithhPhjh>
}
    5db0:	0f 91       	pop	r16
    5db2:	08 95       	ret

00005db4 <_Z13tim_stab_funcv>:
          }
     }
}

void tim_stab_func (void)                  // функция ввода времени стабилизации
{
    5db4:	0f 93       	push	r16
     enter_8bit (1,15,&param.tim_stab,EE_FILTR,2);
    5db6:	02 e0       	ldi	r16, 0x02	; 2
    5db8:	22 e1       	ldi	r18, 0x12	; 18
    5dba:	30 e0       	ldi	r19, 0x00	; 0
    5dbc:	46 eb       	ldi	r20, 0xB6	; 182
    5dbe:	55 e0       	ldi	r21, 0x05	; 5
    5dc0:	6f e0       	ldi	r22, 0x0F	; 15
    5dc2:	81 e0       	ldi	r24, 0x01	; 1
    5dc4:	32 df       	rcall	.-412    	; 0x5c2a <_Z10enter_8bithhPhjh>
}
    5dc6:	0f 91       	pop	r16
    5dc8:	08 95       	ret

00005dca <_Z13of_adc_devisev>:

void of_adc_devise (void)                  // функция ввода отключения и показ низкого акб
{
    5dca:	0f 93       	push	r16
  enter_8bit (0,1,&param.of_adc,EE_OF_ADC,2);
    5dcc:	02 e0       	ldi	r16, 0x02	; 2
    5dce:	29 e8       	ldi	r18, 0x89	; 137
    5dd0:	30 e0       	ldi	r19, 0x00	; 0
    5dd2:	47 eb       	ldi	r20, 0xB7	; 183
    5dd4:	55 e0       	ldi	r21, 0x05	; 5
    5dd6:	61 e0       	ldi	r22, 0x01	; 1
    5dd8:	80 e0       	ldi	r24, 0x00	; 0
    5dda:	27 df       	rcall	.-434    	; 0x5c2a <_Z10enter_8bithhPhjh>
}
    5ddc:	0f 91       	pop	r16
    5dde:	08 95       	ret

00005de0 <_Z12case_up_downhd>:
              if(boolean.led_display == 2)case_up_down(0,0);               // для 2 дисплея, чтоб показывать текущий коэфф
         }        
}

void case_up_down (uint8_t up_down, double increment)                      // промежуточная функция ввода коэфф
{
    5de0:	8f 92       	push	r8
    5de2:	9f 92       	push	r9
    5de4:	af 92       	push	r10
    5de6:	bf 92       	push	r11
    5de8:	cf 92       	push	r12
    5dea:	df 92       	push	r13
    5dec:	ef 92       	push	r14
    5dee:	ff 92       	push	r15
    5df0:	28 2f       	mov	r18, r24
    5df2:	6a 01       	movw	r12, r20
    5df4:	7b 01       	movw	r14, r22
     switch (mirror_data_8bit)                                             // в завиимости от того какой номер датчика выбран
    5df6:	e0 91 d4 05 	lds	r30, 0x05D4	; 0x8005d4 <mirror_data_8bit>
    5dfa:	8e 2f       	mov	r24, r30
    5dfc:	90 e0       	ldi	r25, 0x00	; 0
    5dfe:	fc 01       	movw	r30, r24
    5e00:	31 97       	sbiw	r30, 0x01	; 1
    5e02:	ec 30       	cpi	r30, 0x0C	; 12
    5e04:	f1 05       	cpc	r31, r1
    5e06:	08 f0       	brcs	.+2      	; 0x5e0a <_Z12case_up_downhd+0x2a>
    5e08:	59 c0       	rjmp	.+178    	; 0x5ebc <_Z12case_up_downhd+0xdc>
    5e0a:	88 27       	eor	r24, r24
    5e0c:	e3 57       	subi	r30, 0x73	; 115
    5e0e:	ff 4f       	sbci	r31, 0xFF	; 255
    5e10:	8f 4f       	sbci	r24, 0xFF	; 255
    5e12:	0c 94 e2 44 	jmp	0x89c4	; 0x89c4 <__tablejump2__>
     {
          case 1: point_metrologi  = &metrology.koef_sensor1; break;       // указателю присваиваем адрес в памяти нужного коэфф
    5e16:	89 e0       	ldi	r24, 0x09	; 9
    5e18:	95 e0       	ldi	r25, 0x05	; 5
    5e1a:	90 93 04 05 	sts	0x0504, r25	; 0x800504 <point_metrologi+0x1>
    5e1e:	80 93 03 05 	sts	0x0503, r24	; 0x800503 <point_metrologi>
    5e22:	4c c0       	rjmp	.+152    	; 0x5ebc <_Z12case_up_downhd+0xdc>
          case 2: point_metrologi  = &metrology.koef_sensor2; break;
    5e24:	85 e1       	ldi	r24, 0x15	; 21
    5e26:	95 e0       	ldi	r25, 0x05	; 5
    5e28:	90 93 04 05 	sts	0x0504, r25	; 0x800504 <point_metrologi+0x1>
    5e2c:	80 93 03 05 	sts	0x0503, r24	; 0x800503 <point_metrologi>
    5e30:	45 c0       	rjmp	.+138    	; 0x5ebc <_Z12case_up_downhd+0xdc>
          case 3: point_metrologi  = &metrology.koef_sensor3; break;
    5e32:	81 e2       	ldi	r24, 0x21	; 33
    5e34:	95 e0       	ldi	r25, 0x05	; 5
    5e36:	90 93 04 05 	sts	0x0504, r25	; 0x800504 <point_metrologi+0x1>
    5e3a:	80 93 03 05 	sts	0x0503, r24	; 0x800503 <point_metrologi>
    5e3e:	3e c0       	rjmp	.+124    	; 0x5ebc <_Z12case_up_downhd+0xdc>
          case 4: point_metrologi  = &metrology.koef_sensor4; break;
    5e40:	8d e2       	ldi	r24, 0x2D	; 45
    5e42:	95 e0       	ldi	r25, 0x05	; 5
    5e44:	90 93 04 05 	sts	0x0504, r25	; 0x800504 <point_metrologi+0x1>
    5e48:	80 93 03 05 	sts	0x0503, r24	; 0x800503 <point_metrologi>
    5e4c:	37 c0       	rjmp	.+110    	; 0x5ebc <_Z12case_up_downhd+0xdc>
          case 5: point_metrologi  = &metrology.koef_sensor5; break;
    5e4e:	89 e3       	ldi	r24, 0x39	; 57
    5e50:	95 e0       	ldi	r25, 0x05	; 5
    5e52:	90 93 04 05 	sts	0x0504, r25	; 0x800504 <point_metrologi+0x1>
    5e56:	80 93 03 05 	sts	0x0503, r24	; 0x800503 <point_metrologi>
    5e5a:	30 c0       	rjmp	.+96     	; 0x5ebc <_Z12case_up_downhd+0xdc>
          case 6: point_metrologi  = &metrology.koef_sensor6; break;  
    5e5c:	85 e4       	ldi	r24, 0x45	; 69
    5e5e:	95 e0       	ldi	r25, 0x05	; 5
    5e60:	90 93 04 05 	sts	0x0504, r25	; 0x800504 <point_metrologi+0x1>
    5e64:	80 93 03 05 	sts	0x0503, r24	; 0x800503 <point_metrologi>
    5e68:	29 c0       	rjmp	.+82     	; 0x5ebc <_Z12case_up_downhd+0xdc>
          case 7: point_metrologi  = &metrology.koef_sensor7; break;
    5e6a:	81 e5       	ldi	r24, 0x51	; 81
    5e6c:	95 e0       	ldi	r25, 0x05	; 5
    5e6e:	90 93 04 05 	sts	0x0504, r25	; 0x800504 <point_metrologi+0x1>
    5e72:	80 93 03 05 	sts	0x0503, r24	; 0x800503 <point_metrologi>
    5e76:	22 c0       	rjmp	.+68     	; 0x5ebc <_Z12case_up_downhd+0xdc>
          case 8: point_metrologi  = &metrology.koef_sensor8; break;
    5e78:	8d e5       	ldi	r24, 0x5D	; 93
    5e7a:	95 e0       	ldi	r25, 0x05	; 5
    5e7c:	90 93 04 05 	sts	0x0504, r25	; 0x800504 <point_metrologi+0x1>
    5e80:	80 93 03 05 	sts	0x0503, r24	; 0x800503 <point_metrologi>
    5e84:	1b c0       	rjmp	.+54     	; 0x5ebc <_Z12case_up_downhd+0xdc>
          case 9: point_metrologi  = &metrology.koef_sensor9; break;
    5e86:	89 e6       	ldi	r24, 0x69	; 105
    5e88:	95 e0       	ldi	r25, 0x05	; 5
    5e8a:	90 93 04 05 	sts	0x0504, r25	; 0x800504 <point_metrologi+0x1>
    5e8e:	80 93 03 05 	sts	0x0503, r24	; 0x800503 <point_metrologi>
    5e92:	14 c0       	rjmp	.+40     	; 0x5ebc <_Z12case_up_downhd+0xdc>
          case 10: point_metrologi = &metrology.koef_sensor10; break;
    5e94:	85 e7       	ldi	r24, 0x75	; 117
    5e96:	95 e0       	ldi	r25, 0x05	; 5
    5e98:	90 93 04 05 	sts	0x0504, r25	; 0x800504 <point_metrologi+0x1>
    5e9c:	80 93 03 05 	sts	0x0503, r24	; 0x800503 <point_metrologi>
    5ea0:	0d c0       	rjmp	.+26     	; 0x5ebc <_Z12case_up_downhd+0xdc>
          case 11: point_metrologi = &metrology.koef_sensor11; break;
    5ea2:	81 e8       	ldi	r24, 0x81	; 129
    5ea4:	95 e0       	ldi	r25, 0x05	; 5
    5ea6:	90 93 04 05 	sts	0x0504, r25	; 0x800504 <point_metrologi+0x1>
    5eaa:	80 93 03 05 	sts	0x0503, r24	; 0x800503 <point_metrologi>
    5eae:	06 c0       	rjmp	.+12     	; 0x5ebc <_Z12case_up_downhd+0xdc>
          case 12: point_metrologi = &metrology.koef_sensor12; break;                  
    5eb0:	8d e8       	ldi	r24, 0x8D	; 141
    5eb2:	95 e0       	ldi	r25, 0x05	; 5
    5eb4:	90 93 04 05 	sts	0x0504, r25	; 0x800504 <point_metrologi+0x1>
    5eb8:	80 93 03 05 	sts	0x0503, r24	; 0x800503 <point_metrologi>
     }
          // mirror_double2 нужен для того чтоб при изменении коэф во время ввода(и показа массы) все менялось в реальном времени, а в случае нажатия ЕСК выйти без сохранения, прошлое значение хранится в этой переменной
          if (up_down == 1){ if (mirror_double < 10) mirror_double += increment; } if(up_down == 2){if (mirror_double > 0) mirror_double -= increment; }  // если вывали с 1 то плюсуем с 2 то минусуем
    5ebc:	21 30       	cpi	r18, 0x01	; 1
    5ebe:	09 f5       	brne	.+66     	; 0x5f02 <_Z12case_up_downhd+0x122>
    5ec0:	80 90 cc 05 	lds	r8, 0x05CC	; 0x8005cc <mirror_double>
    5ec4:	90 90 cd 05 	lds	r9, 0x05CD	; 0x8005cd <mirror_double+0x1>
    5ec8:	a0 90 ce 05 	lds	r10, 0x05CE	; 0x8005ce <mirror_double+0x2>
    5ecc:	b0 90 cf 05 	lds	r11, 0x05CF	; 0x8005cf <mirror_double+0x3>
    5ed0:	20 e0       	ldi	r18, 0x00	; 0
    5ed2:	30 e0       	ldi	r19, 0x00	; 0
    5ed4:	40 e2       	ldi	r20, 0x20	; 32
    5ed6:	51 e4       	ldi	r21, 0x41	; 65
    5ed8:	c5 01       	movw	r24, r10
    5eda:	b4 01       	movw	r22, r8
    5edc:	0e 94 df 42 	call	0x85be	; 0x85be <__cmpsf2>
    5ee0:	88 23       	and	r24, r24
    5ee2:	84 f5       	brge	.+96     	; 0x5f44 <_Z12case_up_downhd+0x164>
    5ee4:	a7 01       	movw	r20, r14
    5ee6:	96 01       	movw	r18, r12
    5ee8:	c5 01       	movw	r24, r10
    5eea:	b4 01       	movw	r22, r8
    5eec:	0e 94 7b 42 	call	0x84f6	; 0x84f6 <__addsf3>
    5ef0:	60 93 cc 05 	sts	0x05CC, r22	; 0x8005cc <mirror_double>
    5ef4:	70 93 cd 05 	sts	0x05CD, r23	; 0x8005cd <mirror_double+0x1>
    5ef8:	80 93 ce 05 	sts	0x05CE, r24	; 0x8005ce <mirror_double+0x2>
    5efc:	90 93 cf 05 	sts	0x05CF, r25	; 0x8005cf <mirror_double+0x3>
    5f00:	21 c0       	rjmp	.+66     	; 0x5f44 <_Z12case_up_downhd+0x164>
    5f02:	22 30       	cpi	r18, 0x02	; 2
    5f04:	f9 f4       	brne	.+62     	; 0x5f44 <_Z12case_up_downhd+0x164>
    5f06:	80 90 cc 05 	lds	r8, 0x05CC	; 0x8005cc <mirror_double>
    5f0a:	90 90 cd 05 	lds	r9, 0x05CD	; 0x8005cd <mirror_double+0x1>
    5f0e:	a0 90 ce 05 	lds	r10, 0x05CE	; 0x8005ce <mirror_double+0x2>
    5f12:	b0 90 cf 05 	lds	r11, 0x05CF	; 0x8005cf <mirror_double+0x3>
    5f16:	20 e0       	ldi	r18, 0x00	; 0
    5f18:	30 e0       	ldi	r19, 0x00	; 0
    5f1a:	a9 01       	movw	r20, r18
    5f1c:	c5 01       	movw	r24, r10
    5f1e:	b4 01       	movw	r22, r8
    5f20:	0e 94 2e 44 	call	0x885c	; 0x885c <__gesf2>
    5f24:	18 16       	cp	r1, r24
    5f26:	74 f4       	brge	.+28     	; 0x5f44 <_Z12case_up_downhd+0x164>
    5f28:	a7 01       	movw	r20, r14
    5f2a:	96 01       	movw	r18, r12
    5f2c:	c5 01       	movw	r24, r10
    5f2e:	b4 01       	movw	r22, r8
    5f30:	0e 94 7a 42 	call	0x84f4	; 0x84f4 <__subsf3>
    5f34:	60 93 cc 05 	sts	0x05CC, r22	; 0x8005cc <mirror_double>
    5f38:	70 93 cd 05 	sts	0x05CD, r23	; 0x8005cd <mirror_double+0x1>
    5f3c:	80 93 ce 05 	sts	0x05CE, r24	; 0x8005ce <mirror_double+0x2>
    5f40:	90 93 cf 05 	sts	0x05CF, r25	; 0x8005cf <mirror_double+0x3>
          if(boolean.led_display == 0){sprintf(send_buf, "%f" , mirror_double ); mirror_double = *point_metrologi;boolean.led_display = 2; mirror_double2 = *point_metrologi;}  // один раз обновить переписать значения коэфф
    5f44:	80 91 87 06 	lds	r24, 0x0687	; 0x800687 <boolean>
    5f48:	8e 70       	andi	r24, 0x0E	; 14
    5f4a:	09 f0       	breq	.+2      	; 0x5f4e <_Z12case_up_downhd+0x16e>
    5f4c:	40 c0       	rjmp	.+128    	; 0x5fce <_Z12case_up_downhd+0x1ee>
    5f4e:	80 91 cf 05 	lds	r24, 0x05CF	; 0x8005cf <mirror_double+0x3>
    5f52:	8f 93       	push	r24
    5f54:	80 91 ce 05 	lds	r24, 0x05CE	; 0x8005ce <mirror_double+0x2>
    5f58:	8f 93       	push	r24
    5f5a:	80 91 cd 05 	lds	r24, 0x05CD	; 0x8005cd <mirror_double+0x1>
    5f5e:	8f 93       	push	r24
    5f60:	80 91 cc 05 	lds	r24, 0x05CC	; 0x8005cc <mirror_double>
    5f64:	8f 93       	push	r24
    5f66:	8b ed       	ldi	r24, 0xDB	; 219
    5f68:	92 e0       	ldi	r25, 0x02	; 2
    5f6a:	9f 93       	push	r25
    5f6c:	8f 93       	push	r24
    5f6e:	8c e8       	ldi	r24, 0x8C	; 140
    5f70:	94 e0       	ldi	r25, 0x04	; 4
    5f72:	9f 93       	push	r25
    5f74:	8f 93       	push	r24
    5f76:	0e 94 79 46 	call	0x8cf2	; 0x8cf2 <sprintf>
    5f7a:	e0 91 03 05 	lds	r30, 0x0503	; 0x800503 <point_metrologi>
    5f7e:	f0 91 04 05 	lds	r31, 0x0504	; 0x800504 <point_metrologi+0x1>
    5f82:	80 81       	ld	r24, Z
    5f84:	91 81       	ldd	r25, Z+1	; 0x01
    5f86:	a2 81       	ldd	r26, Z+2	; 0x02
    5f88:	b3 81       	ldd	r27, Z+3	; 0x03
    5f8a:	80 93 cc 05 	sts	0x05CC, r24	; 0x8005cc <mirror_double>
    5f8e:	90 93 cd 05 	sts	0x05CD, r25	; 0x8005cd <mirror_double+0x1>
    5f92:	a0 93 ce 05 	sts	0x05CE, r26	; 0x8005ce <mirror_double+0x2>
    5f96:	b0 93 cf 05 	sts	0x05CF, r27	; 0x8005cf <mirror_double+0x3>
    5f9a:	a7 e8       	ldi	r26, 0x87	; 135
    5f9c:	b6 e0       	ldi	r27, 0x06	; 6
    5f9e:	8c 91       	ld	r24, X
    5fa0:	81 7f       	andi	r24, 0xF1	; 241
    5fa2:	84 60       	ori	r24, 0x04	; 4
    5fa4:	8c 93       	st	X, r24
    5fa6:	80 81       	ld	r24, Z
    5fa8:	91 81       	ldd	r25, Z+1	; 0x01
    5faa:	a2 81       	ldd	r26, Z+2	; 0x02
    5fac:	b3 81       	ldd	r27, Z+3	; 0x03
    5fae:	80 93 c8 05 	sts	0x05C8, r24	; 0x8005c8 <mirror_double2>
    5fb2:	90 93 c9 05 	sts	0x05C9, r25	; 0x8005c9 <mirror_double2+0x1>
    5fb6:	a0 93 ca 05 	sts	0x05CA, r26	; 0x8005ca <mirror_double2+0x2>
    5fba:	b0 93 cb 05 	sts	0x05CB, r27	; 0x8005cb <mirror_double2+0x3>
    5fbe:	8d b7       	in	r24, 0x3d	; 61
    5fc0:	9e b7       	in	r25, 0x3e	; 62
    5fc2:	08 96       	adiw	r24, 0x08	; 8
    5fc4:	0f b6       	in	r0, 0x3f	; 63
    5fc6:	f8 94       	cli
    5fc8:	9e bf       	out	0x3e, r25	; 62
    5fca:	0f be       	out	0x3f, r0	; 63
    5fcc:	8d bf       	out	0x3d, r24	; 61
          if(boolean.led_display == 2){sprintf(send_buf, "%f" , mirror_double );}     // а потом показывать уже просто зеркало этого значения
    5fce:	80 91 87 06 	lds	r24, 0x0687	; 0x800687 <boolean>
    5fd2:	8e 70       	andi	r24, 0x0E	; 14
    5fd4:	84 30       	cpi	r24, 0x04	; 4
    5fd6:	f1 f4       	brne	.+60     	; 0x6014 <_Z12case_up_downhd+0x234>
    5fd8:	80 91 cf 05 	lds	r24, 0x05CF	; 0x8005cf <mirror_double+0x3>
    5fdc:	8f 93       	push	r24
    5fde:	80 91 ce 05 	lds	r24, 0x05CE	; 0x8005ce <mirror_double+0x2>
    5fe2:	8f 93       	push	r24
    5fe4:	80 91 cd 05 	lds	r24, 0x05CD	; 0x8005cd <mirror_double+0x1>
    5fe8:	8f 93       	push	r24
    5fea:	80 91 cc 05 	lds	r24, 0x05CC	; 0x8005cc <mirror_double>
    5fee:	8f 93       	push	r24
    5ff0:	8b ed       	ldi	r24, 0xDB	; 219
    5ff2:	92 e0       	ldi	r25, 0x02	; 2
    5ff4:	9f 93       	push	r25
    5ff6:	8f 93       	push	r24
    5ff8:	8c e8       	ldi	r24, 0x8C	; 140
    5ffa:	94 e0       	ldi	r25, 0x04	; 4
    5ffc:	9f 93       	push	r25
    5ffe:	8f 93       	push	r24
    6000:	0e 94 79 46 	call	0x8cf2	; 0x8cf2 <sprintf>
    6004:	8d b7       	in	r24, 0x3d	; 61
    6006:	9e b7       	in	r25, 0x3e	; 62
    6008:	08 96       	adiw	r24, 0x08	; 8
    600a:	0f b6       	in	r0, 0x3f	; 63
    600c:	f8 94       	cli
    600e:	9e bf       	out	0x3e, r25	; 62
    6010:	0f be       	out	0x3f, r0	; 63
    6012:	8d bf       	out	0x3d, r24	; 61
}
    6014:	ff 90       	pop	r15
    6016:	ef 90       	pop	r14
    6018:	df 90       	pop	r13
    601a:	cf 90       	pop	r12
    601c:	bf 90       	pop	r11
    601e:	af 90       	pop	r10
    6020:	9f 90       	pop	r9
    6022:	8f 90       	pop	r8
    6024:	08 95       	ret

00006026 <_Z15individual_koefv>:
          *paramet = mirror_data_8bit;  EEPROM_write(eeprom, *paramet); }
     }     
}

void individual_koef (void)  // функция ввода индивидуальных коэфф
{
    6026:	cf 92       	push	r12
    6028:	df 92       	push	r13
    602a:	ef 92       	push	r14
    602c:	ff 92       	push	r15
    602e:	0f 93       	push	r16
    6030:	1f 93       	push	r17
    get_zemik_sensors(param.sensor_number);                                                                  //  опрашивать датчики
    6032:	80 91 a8 05 	lds	r24, 0x05A8	; 0x8005a8 <param+0xf>
    6036:	8d d7       	rcall	.+3866   	; 0x6f52 <_Z17get_zemik_sensorsh>
    if (boolean.data_ok)  {boolean.data_ok = false; converting_cod_to_massa (); massa = ((massa * param.calib_koef)+0.5);}   // тут получаем реальную массу, 
    6038:	80 91 8a 06 	lds	r24, 0x068A	; 0x80068a <boolean+0x3>
    603c:	83 ff       	sbrs	r24, 3
    603e:	2a c0       	rjmp	.+84     	; 0x6094 <_Z15individual_koefv+0x6e>
    6040:	ea e8       	ldi	r30, 0x8A	; 138
    6042:	f6 e0       	ldi	r31, 0x06	; 6
    6044:	87 7f       	andi	r24, 0xF7	; 247
    6046:	80 83       	st	Z, r24
    6048:	0e 94 eb 0a 	call	0x15d6	; 0x15d6 <_Z23converting_cod_to_massav>
    604c:	60 91 7a 04 	lds	r22, 0x047A	; 0x80047a <massa>
    6050:	70 91 7b 04 	lds	r23, 0x047B	; 0x80047b <massa+0x1>
    6054:	80 91 7c 04 	lds	r24, 0x047C	; 0x80047c <massa+0x2>
    6058:	90 91 7d 04 	lds	r25, 0x047D	; 0x80047d <massa+0x3>
    605c:	0e 94 7e 43 	call	0x86fc	; 0x86fc <__floatsisf>
    6060:	20 91 b8 05 	lds	r18, 0x05B8	; 0x8005b8 <param+0x1f>
    6064:	30 91 b9 05 	lds	r19, 0x05B9	; 0x8005b9 <param+0x20>
    6068:	40 91 ba 05 	lds	r20, 0x05BA	; 0x8005ba <param+0x21>
    606c:	50 91 bb 05 	lds	r21, 0x05BB	; 0x8005bb <param+0x22>
    6070:	0e 94 32 44 	call	0x8864	; 0x8864 <__mulsf3>
    6074:	20 e0       	ldi	r18, 0x00	; 0
    6076:	30 e0       	ldi	r19, 0x00	; 0
    6078:	40 e0       	ldi	r20, 0x00	; 0
    607a:	5f e3       	ldi	r21, 0x3F	; 63
    607c:	0e 94 7b 42 	call	0x84f6	; 0x84f6 <__addsf3>
    6080:	0e 94 4b 43 	call	0x8696	; 0x8696 <__fixsfsi>
    6084:	60 93 7a 04 	sts	0x047A, r22	; 0x80047a <massa>
    6088:	70 93 7b 04 	sts	0x047B, r23	; 0x80047b <massa+0x1>
    608c:	80 93 7c 04 	sts	0x047C, r24	; 0x80047c <massa+0x2>
    6090:	90 93 7d 04 	sts	0x047D, r25	; 0x80047d <massa+0x3>
    if (!boolean.non_rep){ boolean.non_rep = true; boolean.led_in_menu = true; mirror_data_8bit = 1; mirror_double2 = 0; }    // при входе сбросить счетчики и показания второго зеркала
    6094:	80 91 88 06 	lds	r24, 0x0688	; 0x800688 <boolean+0x1>
    6098:	84 fd       	sbrc	r24, 4
    609a:	14 c0       	rjmp	.+40     	; 0x60c4 <_Z15individual_koefv+0x9e>
    609c:	e8 e8       	ldi	r30, 0x88	; 136
    609e:	f6 e0       	ldi	r31, 0x06	; 6
    60a0:	80 61       	ori	r24, 0x10	; 16
    60a2:	80 83       	st	Z, r24
    60a4:	e9 e8       	ldi	r30, 0x89	; 137
    60a6:	f6 e0       	ldi	r31, 0x06	; 6
    60a8:	80 81       	ld	r24, Z
    60aa:	82 60       	ori	r24, 0x02	; 2
    60ac:	80 83       	st	Z, r24
    60ae:	81 e0       	ldi	r24, 0x01	; 1
    60b0:	80 93 d4 05 	sts	0x05D4, r24	; 0x8005d4 <mirror_data_8bit>
    60b4:	10 92 c8 05 	sts	0x05C8, r1	; 0x8005c8 <mirror_double2>
    60b8:	10 92 c9 05 	sts	0x05C9, r1	; 0x8005c9 <mirror_double2+0x1>
    60bc:	10 92 ca 05 	sts	0x05CA, r1	; 0x8005ca <mirror_double2+0x2>
    60c0:	10 92 cb 05 	sts	0x05CB, r1	; 0x8005cb <mirror_double2+0x3>
    if (tim_5 == 0 && !boolean.errors){ if (massa < last_massa + param.discret1 *2  && massa > last_massa - param.discret1 *2 ) \
    60c4:	80 91 30 03 	lds	r24, 0x0330	; 0x800330 <tim_5>
    60c8:	90 91 31 03 	lds	r25, 0x0331	; 0x800331 <tim_5+0x1>
    60cc:	89 2b       	or	r24, r25
    60ce:	09 f0       	breq	.+2      	; 0x60d2 <_Z15individual_koefv+0xac>
    60d0:	55 c0       	rjmp	.+170    	; 0x617c <_Z15individual_koefv+0x156>
    60d2:	80 91 87 06 	lds	r24, 0x0687	; 0x800687 <boolean>
    60d6:	80 fd       	sbrc	r24, 0
    60d8:	65 c0       	rjmp	.+202    	; 0x61a4 <_Z15individual_koefv+0x17e>
    60da:	80 91 9d 05 	lds	r24, 0x059D	; 0x80059d <param+0x4>
    60de:	90 e0       	ldi	r25, 0x00	; 0
    60e0:	88 0f       	add	r24, r24
    60e2:	99 1f       	adc	r25, r25
    60e4:	09 2e       	mov	r0, r25
    60e6:	00 0c       	add	r0, r0
    60e8:	aa 0b       	sbc	r26, r26
    60ea:	bb 0b       	sbc	r27, r27
    60ec:	40 91 76 04 	lds	r20, 0x0476	; 0x800476 <last_massa>
    60f0:	50 91 77 04 	lds	r21, 0x0477	; 0x800477 <last_massa+0x1>
    60f4:	60 91 78 04 	lds	r22, 0x0478	; 0x800478 <last_massa+0x2>
    60f8:	70 91 79 04 	lds	r23, 0x0479	; 0x800479 <last_massa+0x3>
    60fc:	00 91 7a 04 	lds	r16, 0x047A	; 0x80047a <massa>
    6100:	10 91 7b 04 	lds	r17, 0x047B	; 0x80047b <massa+0x1>
    6104:	20 91 7c 04 	lds	r18, 0x047C	; 0x80047c <massa+0x2>
    6108:	30 91 7d 04 	lds	r19, 0x047D	; 0x80047d <massa+0x3>
    610c:	6c 01       	movw	r12, r24
    610e:	7d 01       	movw	r14, r26
    6110:	c4 0e       	add	r12, r20
    6112:	d5 1e       	adc	r13, r21
    6114:	e6 1e       	adc	r14, r22
    6116:	f7 1e       	adc	r15, r23
    6118:	0c 15       	cp	r16, r12
    611a:	1d 05       	cpc	r17, r13
    611c:	2e 05       	cpc	r18, r14
    611e:	3f 05       	cpc	r19, r15
    6120:	6c f4       	brge	.+26     	; 0x613c <_Z15individual_koefv+0x116>
    6122:	48 1b       	sub	r20, r24
    6124:	59 0b       	sbc	r21, r25
    6126:	6a 0b       	sbc	r22, r26
    6128:	7b 0b       	sbc	r23, r27
    612a:	40 17       	cp	r20, r16
    612c:	51 07       	cpc	r21, r17
    612e:	62 07       	cpc	r22, r18
    6130:	73 07       	cpc	r23, r19
    6132:	24 f4       	brge	.+8      	; 0x613c <_Z15individual_koefv+0x116>
    {send_point(3);}  else {send_non_point(3);}  tim_5 = (param.tim_stab * 1000); last_massa = massa;}    // стабилизация
    6134:	83 e0       	ldi	r24, 0x03	; 3
    6136:	0e 94 ce 1d 	call	0x3b9c	; 0x3b9c <_Z10send_pointh>
    613a:	03 c0       	rjmp	.+6      	; 0x6142 <_Z15individual_koefv+0x11c>
    613c:	83 e0       	ldi	r24, 0x03	; 3
    613e:	0e 94 dc 1d 	call	0x3bb8	; 0x3bb8 <_Z14send_non_pointh>
    6142:	40 91 b6 05 	lds	r20, 0x05B6	; 0x8005b6 <param+0x1d>
    6146:	28 ee       	ldi	r18, 0xE8	; 232
    6148:	33 e0       	ldi	r19, 0x03	; 3
    614a:	42 9f       	mul	r20, r18
    614c:	c0 01       	movw	r24, r0
    614e:	43 9f       	mul	r20, r19
    6150:	90 0d       	add	r25, r0
    6152:	11 24       	eor	r1, r1
    6154:	90 93 31 03 	sts	0x0331, r25	; 0x800331 <tim_5+0x1>
    6158:	80 93 30 03 	sts	0x0330, r24	; 0x800330 <tim_5>
    615c:	80 91 7a 04 	lds	r24, 0x047A	; 0x80047a <massa>
    6160:	90 91 7b 04 	lds	r25, 0x047B	; 0x80047b <massa+0x1>
    6164:	a0 91 7c 04 	lds	r26, 0x047C	; 0x80047c <massa+0x2>
    6168:	b0 91 7d 04 	lds	r27, 0x047D	; 0x80047d <massa+0x3>
    616c:	80 93 76 04 	sts	0x0476, r24	; 0x800476 <last_massa>
    6170:	90 93 77 04 	sts	0x0477, r25	; 0x800477 <last_massa+0x1>
    6174:	a0 93 78 04 	sts	0x0478, r26	; 0x800478 <last_massa+0x2>
    6178:	b0 93 79 04 	sts	0x0479, r27	; 0x800479 <last_massa+0x3>
    (massa == 0 && !boolean.errors ) ?   send_point (2) : send_non_point(2);   // если масса равна 0 то зажечь светик    
    617c:	80 91 7a 04 	lds	r24, 0x047A	; 0x80047a <massa>
    6180:	90 91 7b 04 	lds	r25, 0x047B	; 0x80047b <massa+0x1>
    6184:	a0 91 7c 04 	lds	r26, 0x047C	; 0x80047c <massa+0x2>
    6188:	b0 91 7d 04 	lds	r27, 0x047D	; 0x80047d <massa+0x3>
    618c:	89 2b       	or	r24, r25
    618e:	8a 2b       	or	r24, r26
    6190:	8b 2b       	or	r24, r27
    6192:	41 f4       	brne	.+16     	; 0x61a4 <_Z15individual_koefv+0x17e>
    6194:	80 91 87 06 	lds	r24, 0x0687	; 0x800687 <boolean>
    6198:	80 fd       	sbrc	r24, 0
    619a:	04 c0       	rjmp	.+8      	; 0x61a4 <_Z15individual_koefv+0x17e>
    619c:	82 e0       	ldi	r24, 0x02	; 2
    619e:	0e 94 ce 1d 	call	0x3b9c	; 0x3b9c <_Z10send_pointh>
    61a2:	03 c0       	rjmp	.+6      	; 0x61aa <_Z15individual_koefv+0x184>
    61a4:	82 e0       	ldi	r24, 0x02	; 2
    61a6:	0e 94 dc 1d 	call	0x3bb8	; 0x3bb8 <_Z14send_non_pointh>
         if (!change_item){                // пока мы не вводим данные
    61aa:	80 91 d8 05 	lds	r24, 0x05D8	; 0x8005d8 <change_item>
    61ae:	81 11       	cpse	r24, r1
    61b0:	43 c0       	rjmp	.+134    	; 0x6238 <_Z15individual_koefv+0x212>
              if (not_change()) if (button_press (KEY_ENTER)) {change_item = true;}                                // отслеживаем ентер и если что переходим в выполнение ввода
    61b2:	0e 94 bc 1f 	call	0x3f78	; 0x3f78 <_Z10not_changev>
    61b6:	88 23       	and	r24, r24
    61b8:	41 f0       	breq	.+16     	; 0x61ca <_Z15individual_koefv+0x1a4>
    61ba:	8b e3       	ldi	r24, 0x3B	; 59
    61bc:	0e 94 c6 09 	call	0x138c	; 0x138c <_Z12button_pressh>
    61c0:	88 23       	and	r24, r24
    61c2:	19 f0       	breq	.+6      	; 0x61ca <_Z15individual_koefv+0x1a4>
    61c4:	81 e0       	ldi	r24, 0x01	; 1
    61c6:	80 93 d8 05 	sts	0x05D8, r24	; 0x8005d8 <change_item>
              if (button_press (KEY_UP))   { if(mirror_data_8bit < param.sensor_number) mirror_data_8bit ++; }     // перемещаемся вверх-вниз по номерам датчиков
    61ca:	8e e3       	ldi	r24, 0x3E	; 62
    61cc:	0e 94 c6 09 	call	0x138c	; 0x138c <_Z12button_pressh>
    61d0:	88 23       	and	r24, r24
    61d2:	49 f0       	breq	.+18     	; 0x61e6 <_Z15individual_koefv+0x1c0>
    61d4:	80 91 d4 05 	lds	r24, 0x05D4	; 0x8005d4 <mirror_data_8bit>
    61d8:	90 91 a8 05 	lds	r25, 0x05A8	; 0x8005a8 <param+0xf>
    61dc:	89 17       	cp	r24, r25
    61de:	18 f4       	brcc	.+6      	; 0x61e6 <_Z15individual_koefv+0x1c0>
    61e0:	8f 5f       	subi	r24, 0xFF	; 255
    61e2:	80 93 d4 05 	sts	0x05D4, r24	; 0x8005d4 <mirror_data_8bit>
              if (button_press (KEY_DOWN)) { if(mirror_data_8bit > 1) mirror_data_8bit --; }
    61e6:	8f e1       	ldi	r24, 0x1F	; 31
    61e8:	0e 94 c6 09 	call	0x138c	; 0x138c <_Z12button_pressh>
    61ec:	88 23       	and	r24, r24
    61ee:	39 f0       	breq	.+14     	; 0x61fe <_Z15individual_koefv+0x1d8>
    61f0:	80 91 d4 05 	lds	r24, 0x05D4	; 0x8005d4 <mirror_data_8bit>
    61f4:	82 30       	cpi	r24, 0x02	; 2
    61f6:	18 f0       	brcs	.+6      	; 0x61fe <_Z15individual_koefv+0x1d8>
    61f8:	81 50       	subi	r24, 0x01	; 1
    61fa:	80 93 d4 05 	sts	0x05D4, r24	; 0x8005d4 <mirror_data_8bit>
              sprintf(send_buf, "    %2lu"  ,(uint32_t) mirror_data_8bit );                                        // и показываем номер датчика
    61fe:	80 91 d4 05 	lds	r24, 0x05D4	; 0x8005d4 <mirror_data_8bit>
    6202:	1f 92       	push	r1
    6204:	1f 92       	push	r1
    6206:	1f 92       	push	r1
    6208:	8f 93       	push	r24
    620a:	8e ed       	ldi	r24, 0xDE	; 222
    620c:	92 e0       	ldi	r25, 0x02	; 2
    620e:	9f 93       	push	r25
    6210:	8f 93       	push	r24
    6212:	8c e8       	ldi	r24, 0x8C	; 140
    6214:	94 e0       	ldi	r25, 0x04	; 4
    6216:	9f 93       	push	r25
    6218:	8f 93       	push	r24
    621a:	0e 94 79 46 	call	0x8cf2	; 0x8cf2 <sprintf>
         }
         if (change_item){                                                                              // если мы вводим данные
    621e:	8d b7       	in	r24, 0x3d	; 61
    6220:	9e b7       	in	r25, 0x3e	; 62
    6222:	08 96       	adiw	r24, 0x08	; 8
    6224:	0f b6       	in	r0, 0x3f	; 63
    6226:	f8 94       	cli
    6228:	9e bf       	out	0x3e, r25	; 62
    622a:	0f be       	out	0x3f, r0	; 63
    622c:	8d bf       	out	0x3d, r24	; 61
    622e:	80 91 d8 05 	lds	r24, 0x05D8	; 0x8005d8 <change_item>
    6232:	88 23       	and	r24, r24
    6234:	09 f4       	brne	.+2      	; 0x6238 <_Z15individual_koefv+0x212>
    6236:	02 c1       	rjmp	.+516    	; 0x643c <_Z15individual_koefv+0x416>
              if (!boolean.errors && boolean.led_display == 0x03) {sprintf(send_buf, "%6ld" ,massa ); *point_metrologi = mirror_double;}  // если показ 3 экрана и нет ошибок, то это масса
    6238:	80 91 87 06 	lds	r24, 0x0687	; 0x800687 <boolean>
    623c:	8f 70       	andi	r24, 0x0F	; 15
    623e:	86 30       	cpi	r24, 0x06	; 6
    6240:	71 f5       	brne	.+92     	; 0x629e <_Z15individual_koefv+0x278>
    6242:	80 91 7d 04 	lds	r24, 0x047D	; 0x80047d <massa+0x3>
    6246:	8f 93       	push	r24
    6248:	80 91 7c 04 	lds	r24, 0x047C	; 0x80047c <massa+0x2>
    624c:	8f 93       	push	r24
    624e:	80 91 7b 04 	lds	r24, 0x047B	; 0x80047b <massa+0x1>
    6252:	8f 93       	push	r24
    6254:	80 91 7a 04 	lds	r24, 0x047A	; 0x80047a <massa>
    6258:	8f 93       	push	r24
    625a:	8a e0       	ldi	r24, 0x0A	; 10
    625c:	92 e0       	ldi	r25, 0x02	; 2
    625e:	9f 93       	push	r25
    6260:	8f 93       	push	r24
    6262:	8c e8       	ldi	r24, 0x8C	; 140
    6264:	94 e0       	ldi	r25, 0x04	; 4
    6266:	9f 93       	push	r25
    6268:	8f 93       	push	r24
    626a:	0e 94 79 46 	call	0x8cf2	; 0x8cf2 <sprintf>
    626e:	e0 91 03 05 	lds	r30, 0x0503	; 0x800503 <point_metrologi>
    6272:	f0 91 04 05 	lds	r31, 0x0504	; 0x800504 <point_metrologi+0x1>
    6276:	80 91 cc 05 	lds	r24, 0x05CC	; 0x8005cc <mirror_double>
    627a:	90 91 cd 05 	lds	r25, 0x05CD	; 0x8005cd <mirror_double+0x1>
    627e:	a0 91 ce 05 	lds	r26, 0x05CE	; 0x8005ce <mirror_double+0x2>
    6282:	b0 91 cf 05 	lds	r27, 0x05CF	; 0x8005cf <mirror_double+0x3>
    6286:	80 83       	st	Z, r24
    6288:	91 83       	std	Z+1, r25	; 0x01
    628a:	a2 83       	std	Z+2, r26	; 0x02
    628c:	b3 83       	std	Z+3, r27	; 0x03
    628e:	8d b7       	in	r24, 0x3d	; 61
    6290:	9e b7       	in	r25, 0x3e	; 62
    6292:	08 96       	adiw	r24, 0x08	; 8
    6294:	0f b6       	in	r0, 0x3f	; 63
    6296:	f8 94       	cli
    6298:	9e bf       	out	0x3e, r25	; 62
    629a:	0f be       	out	0x3f, r0	; 63
    629c:	8d bf       	out	0x3d, r24	; 61
              if ( boolean.errors && boolean.led_display == 0x03) {strcpy_P(send_buf, (PGM_P)pgm_read_word(&(error_string[ERROR4]))); }   // если показ 3 экрана и есть ошибки то это ерр
    629e:	80 91 87 06 	lds	r24, 0x0687	; 0x800687 <boolean>
    62a2:	8f 70       	andi	r24, 0x0F	; 15
    62a4:	87 30       	cpi	r24, 0x07	; 7
    62a6:	41 f4       	brne	.+16     	; 0x62b8 <_Z15individual_koefv+0x292>
    62a8:	e7 ed       	ldi	r30, 0xD7	; 215
    62aa:	f6 e0       	ldi	r31, 0x06	; 6
    62ac:	65 91       	lpm	r22, Z+
    62ae:	74 91       	lpm	r23, Z
    62b0:	8c e8       	ldi	r24, 0x8C	; 140
    62b2:	94 e0       	ldi	r25, 0x04	; 4
    62b4:	0e 94 04 46 	call	0x8c08	; 0x8c08 <strcpy_P>
              if(boolean.led_display < 4){ if (button_press (KEY_ENTER)) {                        // отслеживаем ентер 
    62b8:	80 91 87 06 	lds	r24, 0x0687	; 0x800687 <boolean>
    62bc:	86 95       	lsr	r24
    62be:	87 70       	andi	r24, 0x07	; 7
    62c0:	90 e0       	ldi	r25, 0x00	; 0
    62c2:	04 97       	sbiw	r24, 0x04	; 4
    62c4:	1c f5       	brge	.+70     	; 0x630c <_Z15individual_koefv+0x2e6>
    62c6:	8b e3       	ldi	r24, 0x3B	; 59
    62c8:	0e 94 c6 09 	call	0x138c	; 0x138c <_Z12button_pressh>
    62cc:	88 23       	and	r24, r24
    62ce:	f1 f0       	breq	.+60     	; 0x630c <_Z15individual_koefv+0x2e6>
              change_item = false;  boolean.led_in_menu = false; eeprom_calib_sens();  boolean.led_display = 0x00; *point_metrologi = mirror_double;}} // выходим из функции изменения, сохранаяем в память, сбрасываем экраны, указателю присваиваем новое значение
    62d0:	10 92 d8 05 	sts	0x05D8, r1	; 0x8005d8 <change_item>
    62d4:	e9 e8       	ldi	r30, 0x89	; 137
    62d6:	f6 e0       	ldi	r31, 0x06	; 6
    62d8:	80 81       	ld	r24, Z
    62da:	8d 7f       	andi	r24, 0xFD	; 253
    62dc:	80 83       	st	Z, r24
    62de:	0e 94 e6 05 	call	0xbcc	; 0xbcc <_Z17eeprom_calib_sensv>
    62e2:	e7 e8       	ldi	r30, 0x87	; 135
    62e4:	f6 e0       	ldi	r31, 0x06	; 6
    62e6:	80 81       	ld	r24, Z
    62e8:	81 7f       	andi	r24, 0xF1	; 241
    62ea:	80 83       	st	Z, r24
    62ec:	e0 91 03 05 	lds	r30, 0x0503	; 0x800503 <point_metrologi>
    62f0:	f0 91 04 05 	lds	r31, 0x0504	; 0x800504 <point_metrologi+0x1>
    62f4:	80 91 cc 05 	lds	r24, 0x05CC	; 0x8005cc <mirror_double>
    62f8:	90 91 cd 05 	lds	r25, 0x05CD	; 0x8005cd <mirror_double+0x1>
    62fc:	a0 91 ce 05 	lds	r26, 0x05CE	; 0x8005ce <mirror_double+0x2>
    6300:	b0 91 cf 05 	lds	r27, 0x05CF	; 0x8005cf <mirror_double+0x3>
    6304:	80 83       	st	Z, r24
    6306:	91 83       	std	Z+1, r25	; 0x01
    6308:	a2 83       	std	Z+2, r26	; 0x02
    630a:	b3 83       	std	Z+3, r27	; 0x03
              if(boolean.led_display == 4){ if (button_press (KEY_ENTER)) {                        // отслеживаем ентер 
    630c:	80 91 87 06 	lds	r24, 0x0687	; 0x800687 <boolean>
    6310:	8e 70       	andi	r24, 0x0E	; 14
    6312:	88 30       	cpi	r24, 0x08	; 8
    6314:	99 f5       	brne	.+102    	; 0x637c <_Z15individual_koefv+0x356>
    6316:	8b e3       	ldi	r24, 0x3B	; 59
    6318:	0e 94 c6 09 	call	0x138c	; 0x138c <_Z12button_pressh>
    631c:	88 23       	and	r24, r24
    631e:	39 f1       	breq	.+78     	; 0x636e <_Z15individual_koefv+0x348>
                 boolean.led_display = 0x00;                               // сбрасываем номер экрана
    6320:	e7 e8       	ldi	r30, 0x87	; 135
    6322:	f6 e0       	ldi	r31, 0x06	; 6
    6324:	80 81       	ld	r24, Z
    6326:	81 7f       	andi	r24, 0xF1	; 241
    6328:	80 83       	st	Z, r24
                 if (mirror_double < 10){
    632a:	c0 90 cc 05 	lds	r12, 0x05CC	; 0x8005cc <mirror_double>
    632e:	d0 90 cd 05 	lds	r13, 0x05CD	; 0x8005cd <mirror_double+0x1>
    6332:	e0 90 ce 05 	lds	r14, 0x05CE	; 0x8005ce <mirror_double+0x2>
    6336:	f0 90 cf 05 	lds	r15, 0x05CF	; 0x8005cf <mirror_double+0x3>
    633a:	20 e0       	ldi	r18, 0x00	; 0
    633c:	30 e0       	ldi	r19, 0x00	; 0
    633e:	40 e2       	ldi	r20, 0x20	; 32
    6340:	51 e4       	ldi	r21, 0x41	; 65
    6342:	c7 01       	movw	r24, r14
    6344:	b6 01       	movw	r22, r12
    6346:	0e 94 df 42 	call	0x85be	; 0x85be <__cmpsf2>
    634a:	88 23       	and	r24, r24
    634c:	5c f4       	brge	.+22     	; 0x6364 <_Z15individual_koefv+0x33e>
                 *point_metrologi = mirror_double;                         // указателю присваиваем новое значение
    634e:	e0 91 03 05 	lds	r30, 0x0503	; 0x800503 <point_metrologi>
    6352:	f0 91 04 05 	lds	r31, 0x0504	; 0x800504 <point_metrologi+0x1>
    6356:	c0 82       	st	Z, r12
    6358:	d1 82       	std	Z+1, r13	; 0x01
    635a:	e2 82       	std	Z+2, r14	; 0x02
    635c:	f3 82       	std	Z+3, r15	; 0x03
                 eeprom_calib_sens(); } else {error_func (ERROR5); non_repit = false;}  }}    // выходим из функции изменения, сохраняем             
    635e:	0e 94 e6 05 	call	0xbcc	; 0xbcc <_Z17eeprom_calib_sensv>
    6362:	05 c0       	rjmp	.+10     	; 0x636e <_Z15individual_koefv+0x348>
    6364:	85 e0       	ldi	r24, 0x05	; 5
    6366:	0e 94 c1 24 	call	0x4982	; 0x4982 <_Z10error_funch>
    636a:	10 92 d7 05 	sts	0x05D7, r1	; 0x8005d7 <non_repit>
              if(boolean.led_display == 4) {enter_float (); }              // если это 4 экран, то ввод флоат и другой обработчик кнопок
    636e:	80 91 87 06 	lds	r24, 0x0687	; 0x800687 <boolean>
    6372:	8e 70       	andi	r24, 0x0E	; 14
    6374:	88 30       	cpi	r24, 0x08	; 8
    6376:	11 f4       	brne	.+4      	; 0x637c <_Z15individual_koefv+0x356>
    6378:	80 da       	rcall	.-2816   	; 0x587a <_Z11enter_floatv>
    637a:	4e c0       	rjmp	.+156    	; 0x6418 <_Z15individual_koefv+0x3f2>
              else {                                                       // а если любой другой
                if (button_press (KEY_LEFT)) {
    637c:	87 e3       	ldi	r24, 0x37	; 55
    637e:	0e 94 c6 09 	call	0x138c	; 0x138c <_Z12button_pressh>
    6382:	88 23       	and	r24, r24
    6384:	59 f0       	breq	.+22     	; 0x639c <_Z15individual_koefv+0x376>
                     if (boolean.led_display == 2) boolean.led_display = 0x04;  // кнопка в лево делает активным 4 экран
    6386:	80 91 87 06 	lds	r24, 0x0687	; 0x800687 <boolean>
    638a:	8e 70       	andi	r24, 0x0E	; 14
    638c:	84 30       	cpi	r24, 0x04	; 4
    638e:	31 f4       	brne	.+12     	; 0x639c <_Z15individual_koefv+0x376>
    6390:	e7 e8       	ldi	r30, 0x87	; 135
    6392:	f6 e0       	ldi	r31, 0x06	; 6
    6394:	80 81       	ld	r24, Z
    6396:	81 7f       	andi	r24, 0xF1	; 241
    6398:	88 60       	ori	r24, 0x08	; 8
    639a:	80 83       	st	Z, r24
                }
                if (button_press (KEY_RIGHT)) {
    639c:	8f e2       	ldi	r24, 0x2F	; 47
    639e:	0e 94 c6 09 	call	0x138c	; 0x138c <_Z12button_pressh>
    63a2:	88 23       	and	r24, r24
    63a4:	69 f0       	breq	.+26     	; 0x63c0 <_Z15individual_koefv+0x39a>
                     boolean.led_display ^= 0x01;                          // кнопка в право переключает между выводом массы и коэфф
    63a6:	e7 e8       	ldi	r30, 0x87	; 135
    63a8:	f6 e0       	ldi	r31, 0x06	; 6
    63aa:	30 81       	ld	r19, Z
    63ac:	93 2f       	mov	r25, r19
    63ae:	96 95       	lsr	r25
    63b0:	97 70       	andi	r25, 0x07	; 7
    63b2:	21 e0       	ldi	r18, 0x01	; 1
    63b4:	92 27       	eor	r25, r18
    63b6:	99 0f       	add	r25, r25
    63b8:	83 2f       	mov	r24, r19
    63ba:	81 7f       	andi	r24, 0xF1	; 241
    63bc:	89 2b       	or	r24, r25
    63be:	80 83       	st	Z, r24
                }
                if (button_press (KEY_UP)) {
    63c0:	8e e3       	ldi	r24, 0x3E	; 62
    63c2:	0e 94 c6 09 	call	0x138c	; 0x138c <_Z12button_pressh>
    63c6:	88 23       	and	r24, r24
    63c8:	31 f0       	breq	.+12     	; 0x63d6 <_Z15individual_koefv+0x3b0>
                     case_up_down (1, 0.00001);                            // нажатие добавляет чучуть
    63ca:	4c ea       	ldi	r20, 0xAC	; 172
    63cc:	55 ec       	ldi	r21, 0xC5	; 197
    63ce:	67 e2       	ldi	r22, 0x27	; 39
    63d0:	77 e3       	ldi	r23, 0x37	; 55
    63d2:	81 e0       	ldi	r24, 0x01	; 1
    63d4:	05 dd       	rcall	.-1526   	; 0x5de0 <_Z12case_up_downhd>
                }
                if (button_press (KEY_DOWN)) {
    63d6:	8f e1       	ldi	r24, 0x1F	; 31
    63d8:	0e 94 c6 09 	call	0x138c	; 0x138c <_Z12button_pressh>
    63dc:	88 23       	and	r24, r24
    63de:	31 f0       	breq	.+12     	; 0x63ec <_Z15individual_koefv+0x3c6>
                     case_up_down(2, 0.00001);
    63e0:	4c ea       	ldi	r20, 0xAC	; 172
    63e2:	55 ec       	ldi	r21, 0xC5	; 197
    63e4:	67 e2       	ldi	r22, 0x27	; 39
    63e6:	77 e3       	ldi	r23, 0x37	; 55
    63e8:	82 e0       	ldi	r24, 0x02	; 2
    63ea:	fa dc       	rcall	.-1548   	; 0x5de0 <_Z12case_up_downhd>
                }
                if (button_long_press (KEY_UP)) {
    63ec:	8e e3       	ldi	r24, 0x3E	; 62
    63ee:	0e 94 e3 09 	call	0x13c6	; 0x13c6 <_Z17button_long_pressh>
    63f2:	88 23       	and	r24, r24
    63f4:	31 f0       	breq	.+12     	; 0x6402 <_Z15individual_koefv+0x3dc>
                     case_up_down (1, 0.00011);                            // удержание добавляет больше
    63f6:	4d ec       	ldi	r20, 0xCD	; 205
    63f8:	5f ea       	ldi	r21, 0xAF	; 175
    63fa:	66 ee       	ldi	r22, 0xE6	; 230
    63fc:	78 e3       	ldi	r23, 0x38	; 56
    63fe:	81 e0       	ldi	r24, 0x01	; 1
    6400:	ef dc       	rcall	.-1570   	; 0x5de0 <_Z12case_up_downhd>
                }
                if (button_long_press (KEY_DOWN)) {
    6402:	8f e1       	ldi	r24, 0x1F	; 31
    6404:	0e 94 e3 09 	call	0x13c6	; 0x13c6 <_Z17button_long_pressh>
    6408:	88 23       	and	r24, r24
    640a:	31 f0       	breq	.+12     	; 0x6418 <_Z15individual_koefv+0x3f2>
                     case_up_down(2, 0.00011);
    640c:	4d ec       	ldi	r20, 0xCD	; 205
    640e:	5f ea       	ldi	r21, 0xAF	; 175
    6410:	66 ee       	ldi	r22, 0xE6	; 230
    6412:	78 e3       	ldi	r23, 0x38	; 56
    6414:	82 e0       	ldi	r24, 0x02	; 2
    6416:	e4 dc       	rcall	.-1592   	; 0x5de0 <_Z12case_up_downhd>
                }
              }              
              if(boolean.led_display == 0)case_up_down(0,0);               // для 0 дисплея, чтоб один раз сработать и записать в промежуточную переменную число
    6418:	80 91 87 06 	lds	r24, 0x0687	; 0x800687 <boolean>
    641c:	8e 70       	andi	r24, 0x0E	; 14
    641e:	21 f4       	brne	.+8      	; 0x6428 <_Z15individual_koefv+0x402>
    6420:	40 e0       	ldi	r20, 0x00	; 0
    6422:	50 e0       	ldi	r21, 0x00	; 0
    6424:	ba 01       	movw	r22, r20
    6426:	dc dc       	rcall	.-1608   	; 0x5de0 <_Z12case_up_downhd>
              if(boolean.led_display == 2)case_up_down(0,0);               // для 2 дисплея, чтоб показывать текущий коэфф
    6428:	80 91 87 06 	lds	r24, 0x0687	; 0x800687 <boolean>
    642c:	8e 70       	andi	r24, 0x0E	; 14
    642e:	84 30       	cpi	r24, 0x04	; 4
    6430:	29 f4       	brne	.+10     	; 0x643c <_Z15individual_koefv+0x416>
    6432:	40 e0       	ldi	r20, 0x00	; 0
    6434:	50 e0       	ldi	r21, 0x00	; 0
    6436:	ba 01       	movw	r22, r20
    6438:	80 e0       	ldi	r24, 0x00	; 0
    643a:	d2 dc       	rcall	.-1628   	; 0x5de0 <_Z12case_up_downhd>
         }        
}
    643c:	1f 91       	pop	r17
    643e:	0f 91       	pop	r16
    6440:	ff 90       	pop	r15
    6442:	ef 90       	pop	r14
    6444:	df 90       	pop	r13
    6446:	cf 90       	pop	r12
    6448:	08 95       	ret

0000644a <_Z8I2C_initv>:
     while(!(TWCR&(1<<TWINT)));//подождем пока установится TWIN // тоесть ответ от микры 
}

void I2C_StopCondition(void)        // отправка стоп бита
{
     TWCR = (1<<TWINT)|(1<<TWSTO)|(1<<TWEN);     // записывем один в флаговый бит, включаем стоп, и запускаем I2C
    644a:	80 e2       	ldi	r24, 0x20	; 32
    644c:	80 93 b8 00 	sts	0x00B8, r24	; 0x8000b8 <__TEXT_REGION_LENGTH__+0x7c00b8>
    6450:	08 95       	ret

00006452 <_Z18I2C_StartConditionv>:
    6452:	84 ea       	ldi	r24, 0xA4	; 164
    6454:	80 93 bc 00 	sts	0x00BC, r24	; 0x8000bc <__TEXT_REGION_LENGTH__+0x7c00bc>
    6458:	ec eb       	ldi	r30, 0xBC	; 188
    645a:	f0 e0       	ldi	r31, 0x00	; 0
    645c:	80 81       	ld	r24, Z
    645e:	88 23       	and	r24, r24
    6460:	ec f7       	brge	.-6      	; 0x645c <_Z18I2C_StartConditionv+0xa>
    6462:	08 95       	ret

00006464 <_Z12I2C_SendByteh>:
}

void I2C_SendByte(uint8_t c)              // передача байта
{
     TWDR = c;//запишем байт в регистр данных
    6464:	80 93 bb 00 	sts	0x00BB, r24	; 0x8000bb <__TEXT_REGION_LENGTH__+0x7c00bb>
     TWCR = (1<<TWINT)|(1<<TWEN);//включим передачу байта
    6468:	84 e8       	ldi	r24, 0x84	; 132
    646a:	80 93 bc 00 	sts	0x00BC, r24	; 0x8000bc <__TEXT_REGION_LENGTH__+0x7c00bc>
     while (!(TWCR & (1<<TWINT)));//подождем пока установится TWIN
    646e:	ec eb       	ldi	r30, 0xBC	; 188
    6470:	f0 e0       	ldi	r31, 0x00	; 0
    6472:	80 81       	ld	r24, Z
    6474:	88 23       	and	r24, r24
    6476:	ec f7       	brge	.-6      	; 0x6472 <_Z12I2C_SendByteh+0xe>
}
    6478:	08 95       	ret

0000647a <_Z16I2C_write_ds1338v>:

void I2C_write_ds1338 (void)            // это запись в часы (важен последний бит)
{
     I2C_SendByte (0b11010000);
    647a:	80 ed       	ldi	r24, 0xD0	; 208
    647c:	f3 df       	rcall	.-26     	; 0x6464 <_Z12I2C_SendByteh>
     if ((TWSR & 0xF8) != TW_MT_DATA_ASK) {false_I2C = true;}     // тут еще отслеживаем ошибку
    647e:	80 91 b9 00 	lds	r24, 0x00B9	; 0x8000b9 <__TEXT_REGION_LENGTH__+0x7c00b9>
    6482:	88 7f       	andi	r24, 0xF8	; 248
    6484:	88 32       	cpi	r24, 0x28	; 40
    6486:	19 f0       	breq	.+6      	; 0x648e <_Z16I2C_write_ds1338v+0x14>
    6488:	81 e0       	ldi	r24, 0x01	; 1
    648a:	80 93 e8 05 	sts	0x05E8, r24	; 0x8005e8 <false_I2C>
    648e:	08 95       	ret

00006490 <_Z15I2C_read_ds1338v>:
}

void I2C_read_ds1338 (void)             // это чтение из часов (важен последний бит) тут он единица
{
     I2C_SendByte (0b11010001);
    6490:	81 ed       	ldi	r24, 0xD1	; 209
    6492:	e8 df       	rcall	.-48     	; 0x6464 <_Z12I2C_SendByteh>
     if ((TWSR & 0xF8) != TW_MT_DATA_ASK) {false_I2C = true;}
    6494:	80 91 b9 00 	lds	r24, 0x00B9	; 0x8000b9 <__TEXT_REGION_LENGTH__+0x7c00b9>
    6498:	88 7f       	andi	r24, 0xF8	; 248
    649a:	88 32       	cpi	r24, 0x28	; 40
    649c:	19 f0       	breq	.+6      	; 0x64a4 <_Z15I2C_read_ds1338v+0x14>
    649e:	81 e0       	ldi	r24, 0x01	; 1
    64a0:	80 93 e8 05 	sts	0x05E8, r24	; 0x8005e8 <false_I2C>
    64a4:	08 95       	ret

000064a6 <_Z12I2C_ReadBytev>:
}

uint8_t I2C_ReadByte(void)              // это чтение по I2C
{
     TWCR = (1<<TWINT)|(1<<TWEN)|(1<<TWEA);  // тут разрешаем отправлять подтверждение после принятого байта
    64a6:	84 ec       	ldi	r24, 0xC4	; 196
    64a8:	80 93 bc 00 	sts	0x00BC, r24	; 0x8000bc <__TEXT_REGION_LENGTH__+0x7c00bc>
     while (!(TWCR & (1<<TWINT)));//ожидание установки бита TWIN
    64ac:	ec eb       	ldi	r30, 0xBC	; 188
    64ae:	f0 e0       	ldi	r31, 0x00	; 0
    64b0:	80 81       	ld	r24, Z
    64b2:	88 23       	and	r24, r24
    64b4:	ec f7       	brge	.-6      	; 0x64b0 <_Z12I2C_ReadBytev+0xa>
     return TWDR;//читаем регистр данных
    64b6:	80 91 bb 00 	lds	r24, 0x00BB	; 0x8000bb <__TEXT_REGION_LENGTH__+0x7c00bb>
}
    64ba:	08 95       	ret

000064bc <_Z16I2C_ReadLastBytev>:

uint8_t I2C_ReadLastByte(void)           // это чтение последнего байта, 
{
     TWCR = (1<<TWINT)|(1<<TWEN);        // тут не отправляем бит подтверждения
    64bc:	84 e8       	ldi	r24, 0x84	; 132
    64be:	80 93 bc 00 	sts	0x00BC, r24	; 0x8000bc <__TEXT_REGION_LENGTH__+0x7c00bc>
     while (!(TWCR & (1<<TWINT)));//ожидание установки бита TWIN
    64c2:	ec eb       	ldi	r30, 0xBC	; 188
    64c4:	f0 e0       	ldi	r31, 0x00	; 0
    64c6:	80 81       	ld	r24, Z
    64c8:	88 23       	and	r24, r24
    64ca:	ec f7       	brge	.-6      	; 0x64c6 <_Z16I2C_ReadLastBytev+0xa>
     return TWDR;//читаем регистр данных
    64cc:	80 91 bb 00 	lds	r24, 0x00BB	; 0x8000bb <__TEXT_REGION_LENGTH__+0x7c00bb>
}
    64d0:	08 95       	ret

000064d2 <_Z13DS_Write_timev>:

void DS_Write_time (void)                // функция записи времени в микру
{
    64d2:	0f 93       	push	r16
    64d4:	1f 93       	push	r17
    64d6:	cf 93       	push	r28
     I2C_StartCondition();               // отправим старт
    64d8:	bc df       	rcall	.-136    	; 0x6452 <_Z18I2C_StartConditionv>
     I2C_write_ds1338();                 // отправим адрес микры и бит записи
    64da:	cf df       	rcall	.-98     	; 0x647a <_Z16I2C_write_ds1338v>
     I2C_SendByte (0x00);                // отправим регистр с которого начнем запись
    64dc:	80 e0       	ldi	r24, 0x00	; 0
    64de:	c2 df       	rcall	.-124    	; 0x6464 <_Z12I2C_SendByteh>
    64e0:	0a ed       	ldi	r16, 0xDA	; 218
     I2C_SendByte (C_BinDec(DS.sec));    //секунды + преобразование в понятное для часов
    64e2:	15 e0       	ldi	r17, 0x05	; 5
    64e4:	f8 01       	movw	r30, r16
    64e6:	20 81       	ld	r18, Z
    64e8:	cd ec       	ldi	r28, 0xCD	; 205
    64ea:	2c 9f       	mul	r18, r28
    64ec:	91 2d       	mov	r25, r1
    64ee:	11 24       	eor	r1, r1
    64f0:	96 95       	lsr	r25
    64f2:	96 95       	lsr	r25
    64f4:	96 95       	lsr	r25
    64f6:	f0 e1       	ldi	r31, 0x10	; 16
    64f8:	9f 9f       	mul	r25, r31
    64fa:	a0 01       	movw	r20, r0
    64fc:	11 24       	eor	r1, r1
    64fe:	99 0f       	add	r25, r25
    6500:	39 2f       	mov	r19, r25
    6502:	33 0f       	add	r19, r19
    6504:	33 0f       	add	r19, r19
    6506:	93 0f       	add	r25, r19
    6508:	82 2f       	mov	r24, r18
    650a:	89 1b       	sub	r24, r25
    650c:	84 2b       	or	r24, r20
    650e:	aa df       	rcall	.-172    	; 0x6464 <_Z12I2C_SendByteh>
    6510:	f8 01       	movw	r30, r16
     I2C_SendByte (C_BinDec(DS.min));    //минуты
    6512:	22 81       	ldd	r18, Z+2	; 0x02
    6514:	2c 9f       	mul	r18, r28
    6516:	91 2d       	mov	r25, r1
    6518:	11 24       	eor	r1, r1
    651a:	96 95       	lsr	r25
    651c:	96 95       	lsr	r25
    651e:	96 95       	lsr	r25
    6520:	f0 e1       	ldi	r31, 0x10	; 16
    6522:	9f 9f       	mul	r25, r31
    6524:	a0 01       	movw	r20, r0
    6526:	11 24       	eor	r1, r1
    6528:	99 0f       	add	r25, r25
    652a:	39 2f       	mov	r19, r25
    652c:	33 0f       	add	r19, r19
    652e:	33 0f       	add	r19, r19
    6530:	93 0f       	add	r25, r19
    6532:	82 2f       	mov	r24, r18
    6534:	89 1b       	sub	r24, r25
    6536:	84 2b       	or	r24, r20
    6538:	95 df       	rcall	.-214    	; 0x6464 <_Z12I2C_SendByteh>
    653a:	f8 01       	movw	r30, r16
     I2C_SendByte (C_BinDec(DS.hour));   //часы
    653c:	94 81       	ldd	r25, Z+4	; 0x04
    653e:	9c 9f       	mul	r25, r28
    6540:	c1 2d       	mov	r28, r1
    6542:	11 24       	eor	r1, r1
    6544:	c6 95       	lsr	r28
    6546:	c6 95       	lsr	r28
    6548:	c6 95       	lsr	r28
    654a:	f0 e1       	ldi	r31, 0x10	; 16
    654c:	cf 9f       	mul	r28, r31
    654e:	a0 01       	movw	r20, r0
    6550:	11 24       	eor	r1, r1
    6552:	cc 0f       	add	r28, r28
    6554:	2c 2f       	mov	r18, r28
    6556:	22 0f       	add	r18, r18
    6558:	22 0f       	add	r18, r18
    655a:	c2 0f       	add	r28, r18
    655c:	89 2f       	mov	r24, r25
    655e:	8c 1b       	sub	r24, r28
    6560:	84 2b       	or	r24, r20
    6562:	80 df       	rcall	.-256    	; 0x6464 <_Z12I2C_SendByteh>
    6564:	84 e9       	ldi	r24, 0x94	; 148
     while(!(TWCR&(1<<TWINT)));//подождем пока установится TWIN // тоесть ответ от микры 
}

void I2C_StopCondition(void)        // отправка стоп бита
{
     TWCR = (1<<TWINT)|(1<<TWSTO)|(1<<TWEN);     // записывем один в флаговый бит, включаем стоп, и запускаем I2C
    6566:	80 93 bc 00 	sts	0x00BC, r24	; 0x8000bc <__TEXT_REGION_LENGTH__+0x7c00bc>
    656a:	cf 91       	pop	r28
     I2C_SendByte (0x00);                // отправим регистр с которого начнем запись
     I2C_SendByte (C_BinDec(DS.sec));    //секунды + преобразование в понятное для часов
     I2C_SendByte (C_BinDec(DS.min));    //минуты
     I2C_SendByte (C_BinDec(DS.hour));   //часы
     I2C_StopCondition();                // отправим стоп
}
    656c:	1f 91       	pop	r17
    656e:	0f 91       	pop	r16
    6570:	08 95       	ret

00006572 <_Z13DS_Write_datev>:
    6572:	0f 93       	push	r16

void DS_Write_date (void)                // функция записи даты
{
    6574:	1f 93       	push	r17
    6576:	cf 93       	push	r28
     I2C_StartCondition();               // отправим старт
    6578:	6c df       	rcall	.-296    	; 0x6452 <_Z18I2C_StartConditionv>
     I2C_write_ds1338();                 // отправим адрес микры и бит записи
    657a:	7f df       	rcall	.-258    	; 0x647a <_Z16I2C_write_ds1338v>
     I2C_SendByte (0x04);                // отправим регистр с которого записываем
    657c:	84 e0       	ldi	r24, 0x04	; 4
    657e:	72 df       	rcall	.-284    	; 0x6464 <_Z12I2C_SendByteh>
    6580:	0a ed       	ldi	r16, 0xDA	; 218
     I2C_SendByte (C_BinDec(DS.date));   //дата
    6582:	15 e0       	ldi	r17, 0x05	; 5
    6584:	f8 01       	movw	r30, r16
    6586:	20 85       	ldd	r18, Z+8	; 0x08
    6588:	cd ec       	ldi	r28, 0xCD	; 205
    658a:	2c 9f       	mul	r18, r28
    658c:	91 2d       	mov	r25, r1
    658e:	11 24       	eor	r1, r1
    6590:	96 95       	lsr	r25
    6592:	96 95       	lsr	r25
    6594:	96 95       	lsr	r25
    6596:	f0 e1       	ldi	r31, 0x10	; 16
    6598:	9f 9f       	mul	r25, r31
    659a:	a0 01       	movw	r20, r0
    659c:	11 24       	eor	r1, r1
    659e:	99 0f       	add	r25, r25
    65a0:	39 2f       	mov	r19, r25
    65a2:	33 0f       	add	r19, r19
    65a4:	33 0f       	add	r19, r19
    65a6:	93 0f       	add	r25, r19
    65a8:	82 2f       	mov	r24, r18
    65aa:	89 1b       	sub	r24, r25
    65ac:	84 2b       	or	r24, r20
    65ae:	5a df       	rcall	.-332    	; 0x6464 <_Z12I2C_SendByteh>
    65b0:	f8 01       	movw	r30, r16
     I2C_SendByte (C_BinDec(DS.month));  //месяц
    65b2:	22 85       	ldd	r18, Z+10	; 0x0a
    65b4:	2c 9f       	mul	r18, r28
    65b6:	91 2d       	mov	r25, r1
    65b8:	11 24       	eor	r1, r1
    65ba:	96 95       	lsr	r25
    65bc:	96 95       	lsr	r25
    65be:	96 95       	lsr	r25
    65c0:	f0 e1       	ldi	r31, 0x10	; 16
    65c2:	9f 9f       	mul	r25, r31
    65c4:	a0 01       	movw	r20, r0
    65c6:	11 24       	eor	r1, r1
    65c8:	99 0f       	add	r25, r25
    65ca:	39 2f       	mov	r19, r25
    65cc:	33 0f       	add	r19, r19
    65ce:	33 0f       	add	r19, r19
    65d0:	93 0f       	add	r25, r19
    65d2:	82 2f       	mov	r24, r18
    65d4:	89 1b       	sub	r24, r25
    65d6:	84 2b       	or	r24, r20
    65d8:	45 df       	rcall	.-374    	; 0x6464 <_Z12I2C_SendByteh>
    65da:	f8 01       	movw	r30, r16
     I2C_SendByte (C_BinDec(DS.year));   //год
    65dc:	94 85       	ldd	r25, Z+12	; 0x0c
    65de:	9c 9f       	mul	r25, r28
    65e0:	c1 2d       	mov	r28, r1
    65e2:	11 24       	eor	r1, r1
    65e4:	c6 95       	lsr	r28
    65e6:	c6 95       	lsr	r28
    65e8:	c6 95       	lsr	r28
    65ea:	f0 e1       	ldi	r31, 0x10	; 16
    65ec:	cf 9f       	mul	r28, r31
    65ee:	a0 01       	movw	r20, r0
    65f0:	11 24       	eor	r1, r1
    65f2:	cc 0f       	add	r28, r28
    65f4:	2c 2f       	mov	r18, r28
    65f6:	22 0f       	add	r18, r18
    65f8:	22 0f       	add	r18, r18
    65fa:	c2 0f       	add	r28, r18
    65fc:	89 2f       	mov	r24, r25
    65fe:	8c 1b       	sub	r24, r28
    6600:	84 2b       	or	r24, r20
    6602:	30 df       	rcall	.-416    	; 0x6464 <_Z12I2C_SendByteh>
    6604:	84 e9       	ldi	r24, 0x94	; 148
     while(!(TWCR&(1<<TWINT)));//подождем пока установится TWIN // тоесть ответ от микры 
}

void I2C_StopCondition(void)        // отправка стоп бита
{
     TWCR = (1<<TWINT)|(1<<TWSTO)|(1<<TWEN);     // записывем один в флаговый бит, включаем стоп, и запускаем I2C
    6606:	80 93 bc 00 	sts	0x00BC, r24	; 0x8000bc <__TEXT_REGION_LENGTH__+0x7c00bc>
    660a:	cf 91       	pop	r28
     I2C_SendByte (0x04);                // отправим регистр с которого записываем
     I2C_SendByte (C_BinDec(DS.date));   //дата
     I2C_SendByte (C_BinDec(DS.month));  //месяц
     I2C_SendByte (C_BinDec(DS.year));   //год
     I2C_StopCondition();                // стоп
}
    660c:	1f 91       	pop	r17
    660e:	0f 91       	pop	r16
    6610:	08 95       	ret

00006612 <_Z5C_Dech>:
    6612:	98 2f       	mov	r25, r24
     DS.date = C_Dec(DS.date);
}

uint8_t C_Dec(uint8_t data)      // функция для преобразования данных из микросхемы в нормальные символы
{
     return((data>>4)*10+(0x0F&data));
    6614:	96 95       	lsr	r25
    6616:	96 95       	lsr	r25
    6618:	96 95       	lsr	r25
    661a:	9e 71       	andi	r25, 0x1E	; 30
    661c:	29 2f       	mov	r18, r25
    661e:	22 0f       	add	r18, r18
    6620:	22 0f       	add	r18, r18
    6622:	92 0f       	add	r25, r18
    6624:	8f 70       	andi	r24, 0x0F	; 15
}
    6626:	89 0f       	add	r24, r25
    6628:	08 95       	ret

0000662a <_Z7DS_Readv>:
          I2C_StopCondition();           // отпавим стоп
     }
}

void DS_Read(void)                       // чтение из микры часов
{
    662a:	ef 92       	push	r14
    662c:	ff 92       	push	r15
    662e:	0f 93       	push	r16
    6630:	1f 93       	push	r17
    6632:	cf 93       	push	r28
    6634:	df 93       	push	r29
     I2C_StartCondition();               // отправим старт
    6636:	0d df       	rcall	.-486    	; 0x6452 <_Z18I2C_StartConditionv>
     I2C_write_ds1338();                 // отправим адрес микры и бит записи
    6638:	20 df       	rcall	.-448    	; 0x647a <_Z16I2C_write_ds1338v>
     I2C_SendByte (0x00);                // отправим адрес с которого читать
    663a:	80 e0       	ldi	r24, 0x00	; 0
    663c:	13 df       	rcall	.-474    	; 0x6464 <_Z12I2C_SendByteh>
    663e:	0c eb       	ldi	r16, 0xBC	; 188
     while(!(TWCR&(1<<TWINT)));//подождем пока установится TWIN // тоесть ответ от микры 
}

void I2C_StopCondition(void)        // отправка стоп бита
{
     TWCR = (1<<TWINT)|(1<<TWSTO)|(1<<TWEN);     // записывем один в флаговый бит, включаем стоп, и запускаем I2C
    6640:	10 e0       	ldi	r17, 0x00	; 0
    6642:	0f 2e       	mov	r0, r31
    6644:	f4 e9       	ldi	r31, 0x94	; 148
    6646:	ff 2e       	mov	r15, r31
    6648:	f0 2d       	mov	r31, r0
    664a:	f8 01       	movw	r30, r16
{
     I2C_StartCondition();               // отправим старт
     I2C_write_ds1338();                 // отправим адрес микры и бит записи
     I2C_SendByte (0x00);                // отправим адрес с которого читать
     I2C_StopCondition();                // отправим стоп
     I2C_StartCondition();               // отправим старт    // тут вроде можно отправлять повторный старт хз
    664c:	f0 82       	st	Z, r15
    664e:	01 df       	rcall	.-510    	; 0x6452 <_Z18I2C_StartConditionv>
     I2C_read_ds1338();                  // отправим адрес микры и бит чтения
    6650:	1f df       	rcall	.-450    	; 0x6490 <_Z15I2C_read_ds1338v>
    6652:	29 df       	rcall	.-430    	; 0x64a6 <_Z12I2C_ReadBytev>
     DS.sec = I2C_ReadByte(); DS.min = I2C_ReadByte(); DS.hour = I2C_ReadByte();    // считываем всю фигню
    6654:	ca ed       	ldi	r28, 0xDA	; 218
    6656:	d5 e0       	ldi	r29, 0x05	; 5
    6658:	90 e0       	ldi	r25, 0x00	; 0
    665a:	99 83       	std	Y+1, r25	; 0x01
    665c:	88 83       	st	Y, r24
    665e:	23 df       	rcall	.-442    	; 0x64a6 <_Z12I2C_ReadBytev>
    6660:	90 e0       	ldi	r25, 0x00	; 0
    6662:	9b 83       	std	Y+3, r25	; 0x03
    6664:	8a 83       	std	Y+2, r24	; 0x02
    6666:	1f df       	rcall	.-450    	; 0x64a6 <_Z12I2C_ReadBytev>
    6668:	90 e0       	ldi	r25, 0x00	; 0
    666a:	9d 83       	std	Y+5, r25	; 0x05
    666c:	8c 83       	std	Y+4, r24	; 0x04
     DS.day = I2C_ReadByte(); DS.date = I2C_ReadByte(); DS.month = I2C_ReadByte();
    666e:	1b df       	rcall	.-458    	; 0x64a6 <_Z12I2C_ReadBytev>
    6670:	90 e0       	ldi	r25, 0x00	; 0
    6672:	9f 83       	std	Y+7, r25	; 0x07
    6674:	8e 83       	std	Y+6, r24	; 0x06
    6676:	17 df       	rcall	.-466    	; 0x64a6 <_Z12I2C_ReadBytev>
    6678:	90 e0       	ldi	r25, 0x00	; 0
    667a:	99 87       	std	Y+9, r25	; 0x09
    667c:	88 87       	std	Y+8, r24	; 0x08
    667e:	13 df       	rcall	.-474    	; 0x64a6 <_Z12I2C_ReadBytev>
    6680:	90 e0       	ldi	r25, 0x00	; 0
    6682:	9b 87       	std	Y+11, r25	; 0x0b
    6684:	8a 87       	std	Y+10, r24	; 0x0a
     DS.year = I2C_ReadLastByte();       // по особому читаем последний байт
    6686:	1a df       	rcall	.-460    	; 0x64bc <_Z16I2C_ReadLastBytev>
    6688:	e8 2e       	mov	r14, r24
    668a:	f8 01       	movw	r30, r16
     while(!(TWCR&(1<<TWINT)));//подождем пока установится TWIN // тоесть ответ от микры 
}

void I2C_StopCondition(void)        // отправка стоп бита
{
     TWCR = (1<<TWINT)|(1<<TWSTO)|(1<<TWEN);     // записывем один в флаговый бит, включаем стоп, и запускаем I2C
    668c:	f0 82       	st	Z, r15
    668e:	88 81       	ld	r24, Y
     DS.sec = I2C_ReadByte(); DS.min = I2C_ReadByte(); DS.hour = I2C_ReadByte();    // считываем всю фигню
     DS.day = I2C_ReadByte(); DS.date = I2C_ReadByte(); DS.month = I2C_ReadByte();
     DS.year = I2C_ReadLastByte();       // по особому читаем последний байт
     I2C_StopCondition();                // стоп
     //преобразуем в десятичный формат
     DS.sec = C_Dec(DS.sec); DS.min = C_Dec(DS.min);
    6690:	c0 df       	rcall	.-128    	; 0x6612 <_Z5C_Dech>
    6692:	90 e0       	ldi	r25, 0x00	; 0
    6694:	99 83       	std	Y+1, r25	; 0x01
    6696:	88 83       	st	Y, r24
    6698:	8a 81       	ldd	r24, Y+2	; 0x02
    669a:	bb df       	rcall	.-138    	; 0x6612 <_Z5C_Dech>
    669c:	90 e0       	ldi	r25, 0x00	; 0
    669e:	9b 83       	std	Y+3, r25	; 0x03
    66a0:	8a 83       	std	Y+2, r24	; 0x02
    66a2:	8c 81       	ldd	r24, Y+4	; 0x04
     DS.hour &= ~0xC0;
     DS.hour = C_Dec(DS.hour);
    66a4:	8f 73       	andi	r24, 0x3F	; 63
    66a6:	b5 df       	rcall	.-150    	; 0x6612 <_Z5C_Dech>
    66a8:	90 e0       	ldi	r25, 0x00	; 0
    66aa:	9d 83       	std	Y+5, r25	; 0x05
    66ac:	8c 83       	std	Y+4, r24	; 0x04
    66ae:	8e 2d       	mov	r24, r14
     DS.year = C_Dec(DS.year); DS.month = C_Dec(DS.month);
    66b0:	b0 df       	rcall	.-160    	; 0x6612 <_Z5C_Dech>
    66b2:	90 e0       	ldi	r25, 0x00	; 0
    66b4:	9d 87       	std	Y+13, r25	; 0x0d
    66b6:	8c 87       	std	Y+12, r24	; 0x0c
    66b8:	8a 85       	ldd	r24, Y+10	; 0x0a
    66ba:	ab df       	rcall	.-170    	; 0x6612 <_Z5C_Dech>
    66bc:	90 e0       	ldi	r25, 0x00	; 0
    66be:	9b 87       	std	Y+11, r25	; 0x0b
    66c0:	8a 87       	std	Y+10, r24	; 0x0a
    66c2:	88 85       	ldd	r24, Y+8	; 0x08
    66c4:	a6 df       	rcall	.-180    	; 0x6612 <_Z5C_Dech>
    66c6:	90 e0       	ldi	r25, 0x00	; 0
     DS.date = C_Dec(DS.date);
    66c8:	99 87       	std	Y+9, r25	; 0x09
    66ca:	88 87       	std	Y+8, r24	; 0x08
    66cc:	df 91       	pop	r29
    66ce:	cf 91       	pop	r28
    66d0:	1f 91       	pop	r17
    66d2:	0f 91       	pop	r16
}
    66d4:	ff 90       	pop	r15
    66d6:	ef 90       	pop	r14
    66d8:	08 95       	ret

000066da <_Z18DS_Write_init_datev>:
    66da:	a7 df       	rcall	.-178    	; 0x662a <_Z7DS_Readv>
    66dc:	80 91 da 05 	lds	r24, 0x05DA	; 0x8005da <DS>
    66e0:	90 91 db 05 	lds	r25, 0x05DB	; 0x8005db <DS+0x1>
}

void DS_Write_init_date (void)           // при включении считать часы
{
     DS_Read ();
     if (DS.sec == 80) {                 // если была вытянута батарейка то бит работы сброшен, значит проведем инициализацию
    66e4:	80 35       	cpi	r24, 0x50	; 80
    66e6:	91 05       	cpc	r25, r1
          I2C_StartCondition();          // старт
    66e8:	a9 f4       	brne	.+42     	; 0x6714 <_Z18DS_Write_init_datev+0x3a>
          I2C_write_ds1338();            // адрес микры и бит записи
    66ea:	b3 de       	rcall	.-666    	; 0x6452 <_Z18I2C_StartConditionv>
          I2C_SendByte (0x00);           // адрес с которого начинаем писать
    66ec:	c6 de       	rcall	.-628    	; 0x647a <_Z16I2C_write_ds1338v>
    66ee:	80 e0       	ldi	r24, 0x00	; 0
          I2C_SendByte (C_BinDec(10));   //секунды
    66f0:	b9 de       	rcall	.-654    	; 0x6464 <_Z12I2C_SendByteh>
    66f2:	80 e1       	ldi	r24, 0x10	; 16
          I2C_SendByte (C_BinDec(10));   //минуты
    66f4:	b7 de       	rcall	.-658    	; 0x6464 <_Z12I2C_SendByteh>
    66f6:	80 e1       	ldi	r24, 0x10	; 16
          I2C_SendByte (C_BinDec(10));   //часы
    66f8:	b5 de       	rcall	.-662    	; 0x6464 <_Z12I2C_SendByteh>
    66fa:	80 e1       	ldi	r24, 0x10	; 16
          I2C_SendByte (C_BinDec(1));    //дни
    66fc:	b3 de       	rcall	.-666    	; 0x6464 <_Z12I2C_SendByteh>
    66fe:	81 e0       	ldi	r24, 0x01	; 1
          I2C_SendByte (C_BinDec(01));   //дата
    6700:	b1 de       	rcall	.-670    	; 0x6464 <_Z12I2C_SendByteh>
    6702:	81 e0       	ldi	r24, 0x01	; 1
    6704:	af de       	rcall	.-674    	; 0x6464 <_Z12I2C_SendByteh>
          I2C_SendByte (C_BinDec(01));   //месяц
    6706:	81 e0       	ldi	r24, 0x01	; 1
    6708:	ad de       	rcall	.-678    	; 0x6464 <_Z12I2C_SendByteh>
    670a:	80 e9       	ldi	r24, 0x90	; 144
          I2C_SendByte (C_BinDec(90));   //год 90 для удобного отслеживания
    670c:	ab de       	rcall	.-682    	; 0x6464 <_Z12I2C_SendByteh>
    670e:	84 e9       	ldi	r24, 0x94	; 148
    6710:	80 93 bc 00 	sts	0x00BC, r24	; 0x8000bc <__TEXT_REGION_LENGTH__+0x7c00bc>
     while(!(TWCR&(1<<TWINT)));//подождем пока установится TWIN // тоесть ответ от микры 
}

void I2C_StopCondition(void)        // отправка стоп бита
{
     TWCR = (1<<TWINT)|(1<<TWSTO)|(1<<TWEN);     // записывем один в флаговый бит, включаем стоп, и запускаем I2C
    6714:	08 95       	ret

00006716 <_Z15init_UART_tenzov>:
    6716:	87 e6       	ldi	r24, 0x67	; 103
    6718:	90 e0       	ldi	r25, 0x00	; 0
               uart1_tx_buf[i] = send1[i];
               if (uart1_tx_buf[i] == '$') break;
          }
          UDR1 = uart1_tx_buf[uart1_tx_caunter];
          uart1_tx_caunter ++;
          UCSR1B |= ( 1<<UDRIE1);
    671a:	90 93 d5 00 	sts	0x00D5, r25	; 0x8000d5 <__TEXT_REGION_LENGTH__+0x7c00d5>
    671e:	80 93 d4 00 	sts	0x00D4, r24	; 0x8000d4 <__TEXT_REGION_LENGTH__+0x7c00d4>
    6722:	e1 ed       	ldi	r30, 0xD1	; 209
    6724:	f0 e0       	ldi	r31, 0x00	; 0
    6726:	88 e1       	ldi	r24, 0x18	; 24
    6728:	80 83       	st	Z, r24
    672a:	80 81       	ld	r24, Z
    672c:	80 68       	ori	r24, 0x80	; 128
    672e:	80 83       	st	Z, r24
    6730:	86 e2       	ldi	r24, 0x26	; 38
    6732:	80 93 d2 00 	sts	0x00D2, r24	; 0x8000d2 <__TEXT_REGION_LENGTH__+0x7c00d2>
    6736:	08 95       	ret

00006738 <_Z15init_UART_tablov>:
    6738:	82 e8       	ldi	r24, 0x82	; 130
    673a:	96 e0       	ldi	r25, 0x06	; 6
    673c:	90 93 35 01 	sts	0x0135, r25	; 0x800135 <__TEXT_REGION_LENGTH__+0x7c0135>
    6740:	80 93 34 01 	sts	0x0134, r24	; 0x800134 <__TEXT_REGION_LENGTH__+0x7c0134>
    6744:	88 e0       	ldi	r24, 0x08	; 8
    6746:	80 93 31 01 	sts	0x0131, r24	; 0x800131 <__TEXT_REGION_LENGTH__+0x7c0131>
    674a:	86 e2       	ldi	r24, 0x26	; 38
    674c:	80 93 32 01 	sts	0x0132, r24	; 0x800132 <__TEXT_REGION_LENGTH__+0x7c0132>
    6750:	08 95       	ret

00006752 <_Z19init_Uart_0_1_startv>:
    6752:	e1 ec       	ldi	r30, 0xC1	; 193
    6754:	f0 e0       	ldi	r31, 0x00	; 0
    6756:	28 e1       	ldi	r18, 0x18	; 24
    6758:	20 83       	st	Z, r18
    675a:	80 81       	ld	r24, Z
    675c:	80 68       	ori	r24, 0x80	; 128
    675e:	80 83       	st	Z, r24
    6760:	96 e2       	ldi	r25, 0x26	; 38
    6762:	90 93 c2 00 	sts	0x00C2, r25	; 0x8000c2 <__TEXT_REGION_LENGTH__+0x7c00c2>
    6766:	e9 ec       	ldi	r30, 0xC9	; 201
    6768:	f0 e0       	ldi	r31, 0x00	; 0
    676a:	20 83       	st	Z, r18
    676c:	80 81       	ld	r24, Z
    676e:	80 68       	ori	r24, 0x80	; 128
    6770:	80 83       	st	Z, r24
    6772:	90 93 ca 00 	sts	0x00CA, r25	; 0x8000ca <__TEXT_REGION_LENGTH__+0x7c00ca>
    6776:	08 95       	ret

00006778 <_Z13init_UART_0_1hh>:
    6778:	81 30       	cpi	r24, 0x01	; 1
    677a:	69 f0       	breq	.+26     	; 0x6796 <_Z13init_UART_0_1hh+0x1e>
    677c:	28 f0       	brcs	.+10     	; 0x6788 <_Z13init_UART_0_1hh+0x10>
    677e:	82 30       	cpi	r24, 0x02	; 2
    6780:	89 f0       	breq	.+34     	; 0x67a4 <_Z13init_UART_0_1hh+0x2c>
    6782:	83 30       	cpi	r24, 0x03	; 3
    6784:	b1 f0       	breq	.+44     	; 0x67b2 <_Z13init_UART_0_1hh+0x3a>
    6786:	1b c0       	rjmp	.+54     	; 0x67be <_Z13init_UART_0_1hh+0x46>
    6788:	82 e8       	ldi	r24, 0x82	; 130
    678a:	96 e0       	ldi	r25, 0x06	; 6
    678c:	90 93 c5 00 	sts	0x00C5, r25	; 0x8000c5 <__TEXT_REGION_LENGTH__+0x7c00c5>
    6790:	80 93 c4 00 	sts	0x00C4, r24	; 0x8000c4 <__TEXT_REGION_LENGTH__+0x7c00c4>
    6794:	14 c0       	rjmp	.+40     	; 0x67be <_Z13init_UART_0_1hh+0x46>
    6796:	80 ea       	ldi	r24, 0xA0	; 160
    6798:	91 e0       	ldi	r25, 0x01	; 1
    679a:	90 93 c5 00 	sts	0x00C5, r25	; 0x8000c5 <__TEXT_REGION_LENGTH__+0x7c00c5>
    679e:	80 93 c4 00 	sts	0x00C4, r24	; 0x8000c4 <__TEXT_REGION_LENGTH__+0x7c00c4>
    67a2:	0d c0       	rjmp	.+26     	; 0x67be <_Z13init_UART_0_1hh+0x46>
    67a4:	87 e6       	ldi	r24, 0x67	; 103
    67a6:	90 e0       	ldi	r25, 0x00	; 0
    67a8:	90 93 c5 00 	sts	0x00C5, r25	; 0x8000c5 <__TEXT_REGION_LENGTH__+0x7c00c5>
    67ac:	80 93 c4 00 	sts	0x00C4, r24	; 0x8000c4 <__TEXT_REGION_LENGTH__+0x7c00c4>
    67b0:	06 c0       	rjmp	.+12     	; 0x67be <_Z13init_UART_0_1hh+0x46>
    67b2:	83 e3       	ldi	r24, 0x33	; 51
    67b4:	90 e0       	ldi	r25, 0x00	; 0
    67b6:	90 93 c5 00 	sts	0x00C5, r25	; 0x8000c5 <__TEXT_REGION_LENGTH__+0x7c00c5>
    67ba:	80 93 c4 00 	sts	0x00C4, r24	; 0x8000c4 <__TEXT_REGION_LENGTH__+0x7c00c4>
    67be:	61 30       	cpi	r22, 0x01	; 1
    67c0:	69 f0       	breq	.+26     	; 0x67dc <_Z13init_UART_0_1hh+0x64>
    67c2:	28 f0       	brcs	.+10     	; 0x67ce <_Z13init_UART_0_1hh+0x56>
    67c4:	62 30       	cpi	r22, 0x02	; 2
    67c6:	89 f0       	breq	.+34     	; 0x67ea <_Z13init_UART_0_1hh+0x72>
    67c8:	63 30       	cpi	r22, 0x03	; 3
    67ca:	b1 f0       	breq	.+44     	; 0x67f8 <_Z13init_UART_0_1hh+0x80>
    67cc:	08 95       	ret
    67ce:	82 e8       	ldi	r24, 0x82	; 130
    67d0:	96 e0       	ldi	r25, 0x06	; 6
    67d2:	90 93 cd 00 	sts	0x00CD, r25	; 0x8000cd <__TEXT_REGION_LENGTH__+0x7c00cd>
    67d6:	80 93 cc 00 	sts	0x00CC, r24	; 0x8000cc <__TEXT_REGION_LENGTH__+0x7c00cc>
    67da:	08 95       	ret
    67dc:	80 ea       	ldi	r24, 0xA0	; 160
    67de:	91 e0       	ldi	r25, 0x01	; 1
    67e0:	90 93 cd 00 	sts	0x00CD, r25	; 0x8000cd <__TEXT_REGION_LENGTH__+0x7c00cd>
    67e4:	80 93 cc 00 	sts	0x00CC, r24	; 0x8000cc <__TEXT_REGION_LENGTH__+0x7c00cc>
    67e8:	08 95       	ret
    67ea:	87 e6       	ldi	r24, 0x67	; 103
    67ec:	90 e0       	ldi	r25, 0x00	; 0
    67ee:	90 93 cd 00 	sts	0x00CD, r25	; 0x8000cd <__TEXT_REGION_LENGTH__+0x7c00cd>
    67f2:	80 93 cc 00 	sts	0x00CC, r24	; 0x8000cc <__TEXT_REGION_LENGTH__+0x7c00cc>
    67f6:	08 95       	ret
    67f8:	83 e3       	ldi	r24, 0x33	; 51
    67fa:	90 e0       	ldi	r25, 0x00	; 0
    67fc:	90 93 cd 00 	sts	0x00CD, r25	; 0x8000cd <__TEXT_REGION_LENGTH__+0x7c00cd>
    6800:	80 93 cc 00 	sts	0x00CC, r24	; 0x8000cc <__TEXT_REGION_LENGTH__+0x7c00cc>
    6804:	08 95       	ret

00006806 <_Z16parser_buf_zemicPc>:
    6806:	0f 93       	push	r16
    6808:	1f 93       	push	r17
    680a:	10 92 8f 06 	sts	0x068F, r1	; 0x80068f <rx2_done>
    680e:	fc 01       	movw	r30, r24
    6810:	20 81       	ld	r18, Z
    6812:	21 11       	cpse	r18, r1
    6814:	22 c0       	rjmp	.+68     	; 0x685a <_Z16parser_buf_zemicPc+0x54>
    6816:	24 81       	ldd	r18, Z+4	; 0x04
    6818:	2d 30       	cpi	r18, 0x0D	; 13
    681a:	21 f5       	brne	.+72     	; 0x6864 <_Z16parser_buf_zemicPc+0x5e>
    681c:	25 81       	ldd	r18, Z+5	; 0x05
    681e:	2a 30       	cpi	r18, 0x0A	; 10
    6820:	31 f5       	brne	.+76     	; 0x686e <_Z16parser_buf_zemicPc+0x68>
    6822:	43 81       	ldd	r20, Z+3	; 0x03
    6824:	50 e0       	ldi	r21, 0x00	; 0
    6826:	60 e0       	ldi	r22, 0x00	; 0
    6828:	70 e0       	ldi	r23, 0x00	; 0
    682a:	76 2f       	mov	r23, r22
    682c:	65 2f       	mov	r22, r21
    682e:	54 2f       	mov	r21, r20
    6830:	44 27       	eor	r20, r20
    6832:	22 81       	ldd	r18, Z+2	; 0x02
    6834:	42 2b       	or	r20, r18
    6836:	76 2f       	mov	r23, r22
    6838:	65 2f       	mov	r22, r21
    683a:	54 2f       	mov	r21, r20
    683c:	44 27       	eor	r20, r20
    683e:	81 81       	ldd	r24, Z+1	; 0x01
    6840:	8a 01       	movw	r16, r20
    6842:	9b 01       	movw	r18, r22
    6844:	08 2b       	or	r16, r24
    6846:	d9 01       	movw	r26, r18
    6848:	c8 01       	movw	r24, r16
    684a:	e2 ef       	ldi	r30, 0xF2	; 242
    684c:	f5 e0       	ldi	r31, 0x05	; 5
    684e:	14 82       	std	Z+4, r1	; 0x04
    6850:	15 82       	std	Z+5, r1	; 0x05
    6852:	bc 01       	movw	r22, r24
    6854:	cd 01       	movw	r24, r26
    6856:	80 58       	subi	r24, 0x80	; 128
    6858:	0e c0       	rjmp	.+28     	; 0x6876 <_Z16parser_buf_zemicPc+0x70>
    685a:	60 e0       	ldi	r22, 0x00	; 0
    685c:	70 e0       	ldi	r23, 0x00	; 0
    685e:	80 e8       	ldi	r24, 0x80	; 128
    6860:	90 e0       	ldi	r25, 0x00	; 0
    6862:	09 c0       	rjmp	.+18     	; 0x6876 <_Z16parser_buf_zemicPc+0x70>
    6864:	60 e0       	ldi	r22, 0x00	; 0
    6866:	70 e0       	ldi	r23, 0x00	; 0
    6868:	80 e8       	ldi	r24, 0x80	; 128
    686a:	90 e0       	ldi	r25, 0x00	; 0
    686c:	04 c0       	rjmp	.+8      	; 0x6876 <_Z16parser_buf_zemicPc+0x70>
    686e:	60 e0       	ldi	r22, 0x00	; 0
    6870:	70 e0       	ldi	r23, 0x00	; 0
    6872:	80 e8       	ldi	r24, 0x80	; 128
    6874:	90 e0       	ldi	r25, 0x00	; 0
    6876:	1f 91       	pop	r17
    6878:	0f 91       	pop	r16
    687a:	08 95       	ret

0000687c <_Z11parser_vislv>:
    687c:	80 91 91 06 	lds	r24, 0x0691	; 0x800691 <rx0_done>
    6880:	81 11       	cpse	r24, r1
    6882:	05 c0       	rjmp	.+10     	; 0x688e <_Z11parser_vislv+0x12>
    6884:	80 91 90 06 	lds	r24, 0x0690	; 0x800690 <rx1_done>
    6888:	88 23       	and	r24, r24
    688a:	09 f4       	brne	.+2      	; 0x688e <_Z11parser_vislv+0x12>
    688c:	fb c0       	rjmp	.+502    	; 0x6a84 <_Z11parser_vislv+0x208>
    688e:	80 91 8a 06 	lds	r24, 0x068A	; 0x80068a <boolean+0x3>
    6892:	84 fd       	sbrc	r24, 4
    6894:	f7 c0       	rjmp	.+494    	; 0x6a84 <_Z11parser_vislv+0x208>
    6896:	80 91 91 06 	lds	r24, 0x0691	; 0x800691 <rx0_done>
    689a:	88 23       	and	r24, r24
    689c:	09 f4       	brne	.+2      	; 0x68a0 <_Z11parser_vislv+0x24>
    689e:	79 c0       	rjmp	.+242    	; 0x6992 <_Z11parser_vislv+0x116>
    68a0:	10 92 91 06 	sts	0x0691, r1	; 0x800691 <rx0_done>
    68a4:	80 91 90 06 	lds	r24, 0x0690	; 0x800690 <rx1_done>
    68a8:	81 11       	cpse	r24, r1
    68aa:	10 92 90 06 	sts	0x0690, r1	; 0x800690 <rx1_done>
    68ae:	80 91 0b 06 	lds	r24, 0x060B	; 0x80060b <uart0_rx_buf>
    68b2:	82 30       	cpi	r24, 0x02	; 2
    68b4:	09 f0       	breq	.+2      	; 0x68b8 <_Z11parser_vislv+0x3c>
    68b6:	65 c0       	rjmp	.+202    	; 0x6982 <_Z11parser_vislv+0x106>
    68b8:	80 91 0c 06 	lds	r24, 0x060C	; 0x80060c <uart0_rx_buf+0x1>
    68bc:	81 34       	cpi	r24, 0x41	; 65
    68be:	09 f0       	breq	.+2      	; 0x68c2 <_Z11parser_vislv+0x46>
    68c0:	60 c0       	rjmp	.+192    	; 0x6982 <_Z11parser_vislv+0x106>
    68c2:	80 91 0d 06 	lds	r24, 0x060D	; 0x80060d <uart0_rx_buf+0x2>
    68c6:	82 34       	cpi	r24, 0x42	; 66
    68c8:	89 f4       	brne	.+34     	; 0x68ec <_Z11parser_vislv+0x70>
    68ca:	90 91 0e 06 	lds	r25, 0x060E	; 0x80060e <uart0_rx_buf+0x3>
    68ce:	90 33       	cpi	r25, 0x30	; 48
    68d0:	99 f5       	brne	.+102    	; 0x6938 <_Z11parser_vislv+0xbc>
    68d2:	90 91 0f 06 	lds	r25, 0x060F	; 0x80060f <uart0_rx_buf+0x4>
    68d6:	93 33       	cpi	r25, 0x33	; 51
    68d8:	79 f5       	brne	.+94     	; 0x6938 <_Z11parser_vislv+0xbc>
    68da:	91 e0       	ldi	r25, 0x01	; 1
    68dc:	90 93 ee 05 	sts	0x05EE, r25	; 0x8005ee <data_out>
    68e0:	ea e8       	ldi	r30, 0x8A	; 138
    68e2:	f6 e0       	ldi	r31, 0x06	; 6
    68e4:	90 81       	ld	r25, Z
    68e6:	90 61       	ori	r25, 0x10	; 16
    68e8:	90 83       	st	Z, r25
    68ea:	26 c0       	rjmp	.+76     	; 0x6938 <_Z11parser_vislv+0xbc>
    68ec:	83 35       	cpi	r24, 0x53	; 83
    68ee:	89 f4       	brne	.+34     	; 0x6912 <_Z11parser_vislv+0x96>
    68f0:	90 91 0e 06 	lds	r25, 0x060E	; 0x80060e <uart0_rx_buf+0x3>
    68f4:	91 33       	cpi	r25, 0x31	; 49
    68f6:	99 f5       	brne	.+102    	; 0x695e <_Z11parser_vislv+0xe2>
    68f8:	90 91 0f 06 	lds	r25, 0x060F	; 0x80060f <uart0_rx_buf+0x4>
    68fc:	92 33       	cpi	r25, 0x32	; 50
    68fe:	79 f5       	brne	.+94     	; 0x695e <_Z11parser_vislv+0xe2>
    6900:	92 e0       	ldi	r25, 0x02	; 2
    6902:	90 93 ee 05 	sts	0x05EE, r25	; 0x8005ee <data_out>
    6906:	ea e8       	ldi	r30, 0x8A	; 138
    6908:	f6 e0       	ldi	r31, 0x06	; 6
    690a:	90 81       	ld	r25, Z
    690c:	90 61       	ori	r25, 0x10	; 16
    690e:	90 83       	st	Z, r25
    6910:	26 c0       	rjmp	.+76     	; 0x695e <_Z11parser_vislv+0xe2>
    6912:	88 34       	cpi	r24, 0x48	; 72
    6914:	89 f4       	brne	.+34     	; 0x6938 <_Z11parser_vislv+0xbc>
    6916:	80 91 0e 06 	lds	r24, 0x060E	; 0x80060e <uart0_rx_buf+0x3>
    691a:	80 33       	cpi	r24, 0x30	; 48
    691c:	91 f5       	brne	.+100    	; 0x6982 <_Z11parser_vislv+0x106>
    691e:	80 91 0f 06 	lds	r24, 0x060F	; 0x80060f <uart0_rx_buf+0x4>
    6922:	89 33       	cpi	r24, 0x39	; 57
    6924:	71 f5       	brne	.+92     	; 0x6982 <_Z11parser_vislv+0x106>
    6926:	83 e0       	ldi	r24, 0x03	; 3
    6928:	80 93 ee 05 	sts	0x05EE, r24	; 0x8005ee <data_out>
    692c:	ea e8       	ldi	r30, 0x8A	; 138
    692e:	f6 e0       	ldi	r31, 0x06	; 6
    6930:	80 81       	ld	r24, Z
    6932:	80 61       	ori	r24, 0x10	; 16
    6934:	80 83       	st	Z, r24
    6936:	25 c0       	rjmp	.+74     	; 0x6982 <_Z11parser_vislv+0x106>
    6938:	84 35       	cpi	r24, 0x54	; 84
    693a:	89 f4       	brne	.+34     	; 0x695e <_Z11parser_vislv+0xe2>
    693c:	80 91 0e 06 	lds	r24, 0x060E	; 0x80060e <uart0_rx_buf+0x3>
    6940:	81 33       	cpi	r24, 0x31	; 49
    6942:	f9 f4       	brne	.+62     	; 0x6982 <_Z11parser_vislv+0x106>
    6944:	80 91 0f 06 	lds	r24, 0x060F	; 0x80060f <uart0_rx_buf+0x4>
    6948:	85 33       	cpi	r24, 0x35	; 53
    694a:	d9 f4       	brne	.+54     	; 0x6982 <_Z11parser_vislv+0x106>
    694c:	85 e0       	ldi	r24, 0x05	; 5
    694e:	80 93 ee 05 	sts	0x05EE, r24	; 0x8005ee <data_out>
    6952:	ea e8       	ldi	r30, 0x8A	; 138
    6954:	f6 e0       	ldi	r31, 0x06	; 6
    6956:	80 81       	ld	r24, Z
    6958:	80 61       	ori	r24, 0x10	; 16
    695a:	80 83       	st	Z, r24
    695c:	12 c0       	rjmp	.+36     	; 0x6982 <_Z11parser_vislv+0x106>
    695e:	88 35       	cpi	r24, 0x58	; 88
    6960:	81 f4       	brne	.+32     	; 0x6982 <_Z11parser_vislv+0x106>
    6962:	80 91 0e 06 	lds	r24, 0x060E	; 0x80060e <uart0_rx_buf+0x3>
    6966:	81 33       	cpi	r24, 0x31	; 49
    6968:	61 f4       	brne	.+24     	; 0x6982 <_Z11parser_vislv+0x106>
    696a:	80 91 0f 06 	lds	r24, 0x060F	; 0x80060f <uart0_rx_buf+0x4>
    696e:	89 33       	cpi	r24, 0x39	; 57
    6970:	41 f4       	brne	.+16     	; 0x6982 <_Z11parser_vislv+0x106>
    6972:	86 e0       	ldi	r24, 0x06	; 6
    6974:	80 93 ee 05 	sts	0x05EE, r24	; 0x8005ee <data_out>
    6978:	ea e8       	ldi	r30, 0x8A	; 138
    697a:	f6 e0       	ldi	r31, 0x06	; 6
    697c:	80 81       	ld	r24, Z
    697e:	80 61       	ori	r24, 0x10	; 16
    6980:	80 83       	st	Z, r24
    6982:	eb e0       	ldi	r30, 0x0B	; 11
    6984:	f6 e0       	ldi	r31, 0x06	; 6
    6986:	85 e1       	ldi	r24, 0x15	; 21
    6988:	96 e0       	ldi	r25, 0x06	; 6
    698a:	11 92       	st	Z+, r1
    698c:	e8 17       	cp	r30, r24
    698e:	f9 07       	cpc	r31, r25
    6990:	e1 f7       	brne	.-8      	; 0x698a <_Z11parser_vislv+0x10e>
    6992:	80 91 90 06 	lds	r24, 0x0690	; 0x800690 <rx1_done>
    6996:	88 23       	and	r24, r24
    6998:	09 f4       	brne	.+2      	; 0x699c <_Z11parser_vislv+0x120>
    699a:	74 c0       	rjmp	.+232    	; 0x6a84 <_Z11parser_vislv+0x208>
    699c:	10 92 90 06 	sts	0x0690, r1	; 0x800690 <rx1_done>
    69a0:	80 91 fc 05 	lds	r24, 0x05FC	; 0x8005fc <uart1_rx_buf>
    69a4:	82 30       	cpi	r24, 0x02	; 2
    69a6:	09 f0       	breq	.+2      	; 0x69aa <_Z11parser_vislv+0x12e>
    69a8:	65 c0       	rjmp	.+202    	; 0x6a74 <_Z11parser_vislv+0x1f8>
    69aa:	80 91 fd 05 	lds	r24, 0x05FD	; 0x8005fd <uart1_rx_buf+0x1>
    69ae:	81 34       	cpi	r24, 0x41	; 65
    69b0:	09 f0       	breq	.+2      	; 0x69b4 <_Z11parser_vislv+0x138>
    69b2:	60 c0       	rjmp	.+192    	; 0x6a74 <_Z11parser_vislv+0x1f8>
    69b4:	80 91 fe 05 	lds	r24, 0x05FE	; 0x8005fe <uart1_rx_buf+0x2>
    69b8:	82 34       	cpi	r24, 0x42	; 66
    69ba:	89 f4       	brne	.+34     	; 0x69de <_Z11parser_vislv+0x162>
    69bc:	90 91 ff 05 	lds	r25, 0x05FF	; 0x8005ff <uart1_rx_buf+0x3>
    69c0:	90 33       	cpi	r25, 0x30	; 48
    69c2:	99 f5       	brne	.+102    	; 0x6a2a <_Z11parser_vislv+0x1ae>
    69c4:	90 91 00 06 	lds	r25, 0x0600	; 0x800600 <uart1_rx_buf+0x4>
    69c8:	93 33       	cpi	r25, 0x33	; 51
    69ca:	79 f5       	brne	.+94     	; 0x6a2a <_Z11parser_vislv+0x1ae>
    69cc:	91 e0       	ldi	r25, 0x01	; 1
    69ce:	90 93 ee 05 	sts	0x05EE, r25	; 0x8005ee <data_out>
    69d2:	ea e8       	ldi	r30, 0x8A	; 138
    69d4:	f6 e0       	ldi	r31, 0x06	; 6
    69d6:	90 81       	ld	r25, Z
    69d8:	90 61       	ori	r25, 0x10	; 16
    69da:	90 83       	st	Z, r25
    69dc:	26 c0       	rjmp	.+76     	; 0x6a2a <_Z11parser_vislv+0x1ae>
    69de:	83 35       	cpi	r24, 0x53	; 83
    69e0:	89 f4       	brne	.+34     	; 0x6a04 <_Z11parser_vislv+0x188>
    69e2:	90 91 ff 05 	lds	r25, 0x05FF	; 0x8005ff <uart1_rx_buf+0x3>
    69e6:	91 33       	cpi	r25, 0x31	; 49
    69e8:	99 f5       	brne	.+102    	; 0x6a50 <_Z11parser_vislv+0x1d4>
    69ea:	90 91 00 06 	lds	r25, 0x0600	; 0x800600 <uart1_rx_buf+0x4>
    69ee:	92 33       	cpi	r25, 0x32	; 50
    69f0:	79 f5       	brne	.+94     	; 0x6a50 <_Z11parser_vislv+0x1d4>
    69f2:	92 e0       	ldi	r25, 0x02	; 2
    69f4:	90 93 ee 05 	sts	0x05EE, r25	; 0x8005ee <data_out>
    69f8:	ea e8       	ldi	r30, 0x8A	; 138
    69fa:	f6 e0       	ldi	r31, 0x06	; 6
    69fc:	90 81       	ld	r25, Z
    69fe:	90 61       	ori	r25, 0x10	; 16
    6a00:	90 83       	st	Z, r25
    6a02:	26 c0       	rjmp	.+76     	; 0x6a50 <_Z11parser_vislv+0x1d4>
    6a04:	88 34       	cpi	r24, 0x48	; 72
    6a06:	89 f4       	brne	.+34     	; 0x6a2a <_Z11parser_vislv+0x1ae>
    6a08:	80 91 ff 05 	lds	r24, 0x05FF	; 0x8005ff <uart1_rx_buf+0x3>
    6a0c:	80 33       	cpi	r24, 0x30	; 48
    6a0e:	91 f5       	brne	.+100    	; 0x6a74 <_Z11parser_vislv+0x1f8>
    6a10:	80 91 00 06 	lds	r24, 0x0600	; 0x800600 <uart1_rx_buf+0x4>
    6a14:	89 33       	cpi	r24, 0x39	; 57
    6a16:	71 f5       	brne	.+92     	; 0x6a74 <_Z11parser_vislv+0x1f8>
    6a18:	83 e0       	ldi	r24, 0x03	; 3
    6a1a:	80 93 ee 05 	sts	0x05EE, r24	; 0x8005ee <data_out>
    6a1e:	ea e8       	ldi	r30, 0x8A	; 138
    6a20:	f6 e0       	ldi	r31, 0x06	; 6
    6a22:	80 81       	ld	r24, Z
    6a24:	80 61       	ori	r24, 0x10	; 16
    6a26:	80 83       	st	Z, r24
    6a28:	25 c0       	rjmp	.+74     	; 0x6a74 <_Z11parser_vislv+0x1f8>
    6a2a:	84 35       	cpi	r24, 0x54	; 84
    6a2c:	89 f4       	brne	.+34     	; 0x6a50 <_Z11parser_vislv+0x1d4>
    6a2e:	80 91 ff 05 	lds	r24, 0x05FF	; 0x8005ff <uart1_rx_buf+0x3>
    6a32:	81 33       	cpi	r24, 0x31	; 49
    6a34:	f9 f4       	brne	.+62     	; 0x6a74 <_Z11parser_vislv+0x1f8>
    6a36:	80 91 00 06 	lds	r24, 0x0600	; 0x800600 <uart1_rx_buf+0x4>
    6a3a:	85 33       	cpi	r24, 0x35	; 53
    6a3c:	d9 f4       	brne	.+54     	; 0x6a74 <_Z11parser_vislv+0x1f8>
    6a3e:	85 e0       	ldi	r24, 0x05	; 5
    6a40:	80 93 ee 05 	sts	0x05EE, r24	; 0x8005ee <data_out>
    6a44:	ea e8       	ldi	r30, 0x8A	; 138
    6a46:	f6 e0       	ldi	r31, 0x06	; 6
    6a48:	80 81       	ld	r24, Z
    6a4a:	80 61       	ori	r24, 0x10	; 16
    6a4c:	80 83       	st	Z, r24
    6a4e:	12 c0       	rjmp	.+36     	; 0x6a74 <_Z11parser_vislv+0x1f8>
    6a50:	88 35       	cpi	r24, 0x58	; 88
    6a52:	81 f4       	brne	.+32     	; 0x6a74 <_Z11parser_vislv+0x1f8>
    6a54:	80 91 ff 05 	lds	r24, 0x05FF	; 0x8005ff <uart1_rx_buf+0x3>
    6a58:	81 33       	cpi	r24, 0x31	; 49
    6a5a:	61 f4       	brne	.+24     	; 0x6a74 <_Z11parser_vislv+0x1f8>
    6a5c:	80 91 00 06 	lds	r24, 0x0600	; 0x800600 <uart1_rx_buf+0x4>
    6a60:	89 33       	cpi	r24, 0x39	; 57
    6a62:	41 f4       	brne	.+16     	; 0x6a74 <_Z11parser_vislv+0x1f8>
    6a64:	86 e0       	ldi	r24, 0x06	; 6
    6a66:	80 93 ee 05 	sts	0x05EE, r24	; 0x8005ee <data_out>
    6a6a:	ea e8       	ldi	r30, 0x8A	; 138
    6a6c:	f6 e0       	ldi	r31, 0x06	; 6
    6a6e:	80 81       	ld	r24, Z
    6a70:	80 61       	ori	r24, 0x10	; 16
    6a72:	80 83       	st	Z, r24
    6a74:	ec ef       	ldi	r30, 0xFC	; 252
    6a76:	f5 e0       	ldi	r31, 0x05	; 5
    6a78:	86 e0       	ldi	r24, 0x06	; 6
    6a7a:	96 e0       	ldi	r25, 0x06	; 6
    6a7c:	11 92       	st	Z+, r1
    6a7e:	8e 17       	cp	r24, r30
    6a80:	9f 07       	cpc	r25, r31
    6a82:	e1 f7       	brne	.-8      	; 0x6a7c <_Z11parser_vislv+0x200>
    6a84:	08 95       	ret

00006a86 <__vector_25>:
    6a86:	1f 92       	push	r1
    6a88:	0f 92       	push	r0
    6a8a:	0f b6       	in	r0, 0x3f	; 63
    6a8c:	0f 92       	push	r0
    6a8e:	11 24       	eor	r1, r1
    6a90:	0b b6       	in	r0, 0x3b	; 59
    6a92:	0f 92       	push	r0
    6a94:	8f 93       	push	r24
    6a96:	ef 93       	push	r30
    6a98:	ff 93       	push	r31
    6a9a:	80 91 c0 00 	lds	r24, 0x00C0	; 0x8000c0 <__TEXT_REGION_LENGTH__+0x7c00c0>
    6a9e:	82 ff       	sbrs	r24, 2
    6aa0:	07 c0       	rjmp	.+14     	; 0x6ab0 <__vector_25+0x2a>
    6aa2:	80 91 c6 00 	lds	r24, 0x00C6	; 0x8000c6 <__TEXT_REGION_LENGTH__+0x7c00c6>
    6aa6:	80 93 1e 06 	sts	0x061E, r24	; 0x80061e <uart3_tx_buf>
    6aaa:	10 92 f1 05 	sts	0x05F1, r1	; 0x8005f1 <uart0_rx_caunter>
    6aae:	15 c0       	rjmp	.+42     	; 0x6ada <__vector_25+0x54>
    6ab0:	10 92 02 02 	sts	0x0202, r1	; 0x800202 <tim_uart0>
    6ab4:	e0 91 f1 05 	lds	r30, 0x05F1	; 0x8005f1 <uart0_rx_caunter>
    6ab8:	80 91 c6 00 	lds	r24, 0x00C6	; 0x8000c6 <__TEXT_REGION_LENGTH__+0x7c00c6>
    6abc:	f0 e0       	ldi	r31, 0x00	; 0
    6abe:	e5 5f       	subi	r30, 0xF5	; 245
    6ac0:	f9 4f       	sbci	r31, 0xF9	; 249
    6ac2:	80 83       	st	Z, r24
    6ac4:	80 91 f1 05 	lds	r24, 0x05F1	; 0x8005f1 <uart0_rx_caunter>
    6ac8:	8f 5f       	subi	r24, 0xFF	; 255
    6aca:	80 93 f1 05 	sts	0x05F1, r24	; 0x8005f1 <uart0_rx_caunter>
    6ace:	80 91 f1 05 	lds	r24, 0x05F1	; 0x8005f1 <uart0_rx_caunter>
    6ad2:	8e 30       	cpi	r24, 0x0E	; 14
    6ad4:	10 f0       	brcs	.+4      	; 0x6ada <__vector_25+0x54>
    6ad6:	10 92 f1 05 	sts	0x05F1, r1	; 0x8005f1 <uart0_rx_caunter>
    6ada:	ff 91       	pop	r31
    6adc:	ef 91       	pop	r30
    6ade:	8f 91       	pop	r24
    6ae0:	0f 90       	pop	r0
    6ae2:	0b be       	out	0x3b, r0	; 59
    6ae4:	0f 90       	pop	r0
    6ae6:	0f be       	out	0x3f, r0	; 63
    6ae8:	0f 90       	pop	r0
    6aea:	1f 90       	pop	r1
    6aec:	18 95       	reti

00006aee <__vector_36>:
    6aee:	1f 92       	push	r1
    6af0:	0f 92       	push	r0
    6af2:	0f b6       	in	r0, 0x3f	; 63
    6af4:	0f 92       	push	r0
    6af6:	11 24       	eor	r1, r1
    6af8:	0b b6       	in	r0, 0x3b	; 59
    6afa:	0f 92       	push	r0
    6afc:	8f 93       	push	r24
    6afe:	ef 93       	push	r30
    6b00:	ff 93       	push	r31
    6b02:	80 91 c8 00 	lds	r24, 0x00C8	; 0x8000c8 <__TEXT_REGION_LENGTH__+0x7c00c8>
    6b06:	82 ff       	sbrs	r24, 2
    6b08:	07 c0       	rjmp	.+14     	; 0x6b18 <__vector_36+0x2a>
    6b0a:	80 91 ce 00 	lds	r24, 0x00CE	; 0x8000ce <__TEXT_REGION_LENGTH__+0x7c00ce>
    6b0e:	80 93 0f 06 	sts	0x060F, r24	; 0x80060f <uart0_rx_buf+0x4>
    6b12:	10 92 f0 05 	sts	0x05F0, r1	; 0x8005f0 <uart1_rx_caunter>
    6b16:	15 c0       	rjmp	.+42     	; 0x6b42 <__vector_36+0x54>
    6b18:	10 92 01 02 	sts	0x0201, r1	; 0x800201 <tim_uart1>
    6b1c:	e0 91 f0 05 	lds	r30, 0x05F0	; 0x8005f0 <uart1_rx_caunter>
    6b20:	80 91 ce 00 	lds	r24, 0x00CE	; 0x8000ce <__TEXT_REGION_LENGTH__+0x7c00ce>
    6b24:	f0 e0       	ldi	r31, 0x00	; 0
    6b26:	e4 50       	subi	r30, 0x04	; 4
    6b28:	fa 4f       	sbci	r31, 0xFA	; 250
    6b2a:	80 83       	st	Z, r24
    6b2c:	80 91 f0 05 	lds	r24, 0x05F0	; 0x8005f0 <uart1_rx_caunter>
    6b30:	8f 5f       	subi	r24, 0xFF	; 255
    6b32:	80 93 f0 05 	sts	0x05F0, r24	; 0x8005f0 <uart1_rx_caunter>
    6b36:	80 91 f0 05 	lds	r24, 0x05F0	; 0x8005f0 <uart1_rx_caunter>
    6b3a:	8e 30       	cpi	r24, 0x0E	; 14
    6b3c:	10 f0       	brcs	.+4      	; 0x6b42 <__vector_36+0x54>
    6b3e:	10 92 f0 05 	sts	0x05F0, r1	; 0x8005f0 <uart1_rx_caunter>
    6b42:	ff 91       	pop	r31
    6b44:	ef 91       	pop	r30
    6b46:	8f 91       	pop	r24
    6b48:	0f 90       	pop	r0
    6b4a:	0b be       	out	0x3b, r0	; 59
    6b4c:	0f 90       	pop	r0
    6b4e:	0f be       	out	0x3f, r0	; 63
    6b50:	0f 90       	pop	r0
    6b52:	1f 90       	pop	r1
    6b54:	18 95       	reti

00006b56 <__vector_51>:
    6b56:	1f 92       	push	r1
    6b58:	0f 92       	push	r0
    6b5a:	0f b6       	in	r0, 0x3f	; 63
    6b5c:	0f 92       	push	r0
    6b5e:	11 24       	eor	r1, r1
    6b60:	0b b6       	in	r0, 0x3b	; 59
    6b62:	0f 92       	push	r0
    6b64:	8f 93       	push	r24
    6b66:	ef 93       	push	r30
    6b68:	ff 93       	push	r31
    6b6a:	80 91 d0 00 	lds	r24, 0x00D0	; 0x8000d0 <__TEXT_REGION_LENGTH__+0x7c00d0>
    6b6e:	82 ff       	sbrs	r24, 2
    6b70:	07 c0       	rjmp	.+14     	; 0x6b80 <__vector_51+0x2a>
    6b72:	80 91 d6 00 	lds	r24, 0x00D6	; 0x8000d6 <__TEXT_REGION_LENGTH__+0x7c00d6>
    6b76:	80 93 fb 05 	sts	0x05FB, r24	; 0x8005fb <uart2_rx_buf+0x9>
    6b7a:	10 92 ef 05 	sts	0x05EF, r1	; 0x8005ef <uart2_rx_caunter>
    6b7e:	1c c0       	rjmp	.+56     	; 0x6bb8 <__vector_51+0x62>
    6b80:	10 92 00 02 	sts	0x0200, r1	; 0x800200 <__DATA_REGION_ORIGIN__>
    6b84:	e0 91 ef 05 	lds	r30, 0x05EF	; 0x8005ef <uart2_rx_caunter>
    6b88:	80 91 d6 00 	lds	r24, 0x00D6	; 0x8000d6 <__TEXT_REGION_LENGTH__+0x7c00d6>
    6b8c:	f0 e0       	ldi	r31, 0x00	; 0
    6b8e:	ee 50       	subi	r30, 0x0E	; 14
    6b90:	fa 4f       	sbci	r31, 0xFA	; 250
    6b92:	80 83       	st	Z, r24
    6b94:	80 91 f2 05 	lds	r24, 0x05F2	; 0x8005f2 <uart2_rx_buf>
    6b98:	81 11       	cpse	r24, r1
    6b9a:	0c c0       	rjmp	.+24     	; 0x6bb4 <__vector_51+0x5e>
    6b9c:	80 91 ef 05 	lds	r24, 0x05EF	; 0x8005ef <uart2_rx_caunter>
    6ba0:	8f 5f       	subi	r24, 0xFF	; 255
    6ba2:	80 93 ef 05 	sts	0x05EF, r24	; 0x8005ef <uart2_rx_caunter>
    6ba6:	80 91 ef 05 	lds	r24, 0x05EF	; 0x8005ef <uart2_rx_caunter>
    6baa:	89 30       	cpi	r24, 0x09	; 9
    6bac:	28 f0       	brcs	.+10     	; 0x6bb8 <__vector_51+0x62>
    6bae:	10 92 ef 05 	sts	0x05EF, r1	; 0x8005ef <uart2_rx_caunter>
    6bb2:	02 c0       	rjmp	.+4      	; 0x6bb8 <__vector_51+0x62>
    6bb4:	10 92 ef 05 	sts	0x05EF, r1	; 0x8005ef <uart2_rx_caunter>
    6bb8:	ff 91       	pop	r31
    6bba:	ef 91       	pop	r30
    6bbc:	8f 91       	pop	r24
    6bbe:	0f 90       	pop	r0
    6bc0:	0b be       	out	0x3b, r0	; 59
    6bc2:	0f 90       	pop	r0
    6bc4:	0f be       	out	0x3f, r0	; 63
    6bc6:	0f 90       	pop	r0
    6bc8:	1f 90       	pop	r1
    6bca:	18 95       	reti

00006bcc <_Z17uart0_send_stringPc>:
    6bcc:	20 91 1d 06 	lds	r18, 0x061D	; 0x80061d <uart0_tx_caunter>
    6bd0:	21 11       	cpse	r18, r1
    6bd2:	25 c0       	rjmp	.+74     	; 0x6c1e <_Z17uart0_send_stringPc+0x52>
    6bd4:	fc 01       	movw	r30, r24
    6bd6:	20 81       	ld	r18, Z
    6bd8:	20 93 50 06 	sts	0x0650, r18	; 0x800650 <uart0_tx_buf>
    6bdc:	24 32       	cpi	r18, 0x24	; 36
    6bde:	69 f0       	breq	.+26     	; 0x6bfa <_Z17uart0_send_stringPc+0x2e>
    6be0:	dc 01       	movw	r26, r24
    6be2:	11 96       	adiw	r26, 0x01	; 1
    6be4:	e1 e5       	ldi	r30, 0x51	; 81
    6be6:	f6 e0       	ldi	r31, 0x06	; 6
    6be8:	24 e6       	ldi	r18, 0x64	; 100
    6bea:	36 e0       	ldi	r19, 0x06	; 6
    6bec:	9d 91       	ld	r25, X+
    6bee:	91 93       	st	Z+, r25
    6bf0:	94 32       	cpi	r25, 0x24	; 36
    6bf2:	19 f0       	breq	.+6      	; 0x6bfa <_Z17uart0_send_stringPc+0x2e>
    6bf4:	e2 17       	cp	r30, r18
    6bf6:	f3 07       	cpc	r31, r19
    6bf8:	c9 f7       	brne	.-14     	; 0x6bec <_Z17uart0_send_stringPc+0x20>
    6bfa:	e0 91 1d 06 	lds	r30, 0x061D	; 0x80061d <uart0_tx_caunter>
    6bfe:	f0 e0       	ldi	r31, 0x00	; 0
    6c00:	e0 5b       	subi	r30, 0xB0	; 176
    6c02:	f9 4f       	sbci	r31, 0xF9	; 249
    6c04:	80 81       	ld	r24, Z
    6c06:	80 93 c6 00 	sts	0x00C6, r24	; 0x8000c6 <__TEXT_REGION_LENGTH__+0x7c00c6>
    6c0a:	80 91 1d 06 	lds	r24, 0x061D	; 0x80061d <uart0_tx_caunter>
    6c0e:	8f 5f       	subi	r24, 0xFF	; 255
    6c10:	80 93 1d 06 	sts	0x061D, r24	; 0x80061d <uart0_tx_caunter>
    6c14:	e1 ec       	ldi	r30, 0xC1	; 193
    6c16:	f0 e0       	ldi	r31, 0x00	; 0
    6c18:	80 81       	ld	r24, Z
    6c1a:	80 62       	ori	r24, 0x20	; 32
    6c1c:	80 83       	st	Z, r24
    6c1e:	08 95       	ret

00006c20 <_Z10reply_vislv>:
    6c20:	cf 93       	push	r28
    6c22:	df 93       	push	r29
    6c24:	90 91 87 06 	lds	r25, 0x0687	; 0x800687 <boolean>
    6c28:	90 fd       	sbrc	r25, 0
    6c2a:	6e c1       	rjmp	.+732    	; 0x6f08 <_Z10reply_vislv+0x2e8>
    6c2c:	80 91 b5 05 	lds	r24, 0x05B5	; 0x8005b5 <param+0x1c>
    6c30:	81 11       	cpse	r24, r1
    6c32:	6a c1       	rjmp	.+724    	; 0x6f08 <_Z10reply_vislv+0x2e8>
    6c34:	80 91 88 06 	lds	r24, 0x0688	; 0x800688 <boolean+0x1>
    6c38:	86 fd       	sbrc	r24, 6
    6c3a:	66 c1       	rjmp	.+716    	; 0x6f08 <_Z10reply_vislv+0x2e8>
    6c3c:	40 91 ee 05 	lds	r20, 0x05EE	; 0x8005ee <data_out>
    6c40:	50 e0       	ldi	r21, 0x00	; 0
    6c42:	47 30       	cpi	r20, 0x07	; 7
    6c44:	51 05       	cpc	r21, r1
    6c46:	08 f0       	brcs	.+2      	; 0x6c4a <_Z10reply_vislv+0x2a>
    6c48:	61 c1       	rjmp	.+706    	; 0x6f0c <_Z10reply_vislv+0x2ec>
    6c4a:	fa 01       	movw	r30, r20
    6c4c:	88 27       	eor	r24, r24
    6c4e:	e7 56       	subi	r30, 0x67	; 103
    6c50:	ff 4f       	sbci	r31, 0xFF	; 255
    6c52:	8f 4f       	sbci	r24, 0xFF	; 255
    6c54:	0c 94 e2 44 	jmp	0x89c4	; 0x89c4 <__tablejump2__>
    6c58:	ea e8       	ldi	r30, 0x8A	; 138
    6c5a:	f6 e0       	ldi	r31, 0x06	; 6
    6c5c:	80 81       	ld	r24, Z
    6c5e:	8f 7e       	andi	r24, 0xEF	; 239
    6c60:	80 83       	st	Z, r24
    6c62:	54 c1       	rjmp	.+680    	; 0x6f0c <_Z10reply_vislv+0x2ec>
    6c64:	80 91 75 04 	lds	r24, 0x0475	; 0x800475 <massa_after_filtr+0x3>
    6c68:	8f 93       	push	r24
    6c6a:	80 91 74 04 	lds	r24, 0x0474	; 0x800474 <massa_after_filtr+0x2>
    6c6e:	8f 93       	push	r24
    6c70:	80 91 73 04 	lds	r24, 0x0473	; 0x800473 <massa_after_filtr+0x1>
    6c74:	8f 93       	push	r24
    6c76:	80 91 72 04 	lds	r24, 0x0472	; 0x800472 <massa_after_filtr>
    6c7a:	8f 93       	push	r24
    6c7c:	87 ee       	ldi	r24, 0xE7	; 231
    6c7e:	92 e0       	ldi	r25, 0x02	; 2
    6c80:	9f 93       	push	r25
    6c82:	8f 93       	push	r24
    6c84:	84 e6       	ldi	r24, 0x64	; 100
    6c86:	96 e0       	ldi	r25, 0x06	; 6
    6c88:	9f 93       	push	r25
    6c8a:	8f 93       	push	r24
    6c8c:	0e 94 79 46 	call	0x8cf2	; 0x8cf2 <sprintf>
    6c90:	83 e0       	ldi	r24, 0x03	; 3
    6c92:	80 93 e9 05 	sts	0x05E9, r24	; 0x8005e9 <_ZZ10reply_vislvE9xor_state>
    6c96:	e4 e6       	ldi	r30, 0x64	; 100
    6c98:	f6 e0       	ldi	r31, 0x06	; 6
    6c9a:	2c e6       	ldi	r18, 0x6C	; 108
    6c9c:	36 e0       	ldi	r19, 0x06	; 6
    6c9e:	8d b7       	in	r24, 0x3d	; 61
    6ca0:	9e b7       	in	r25, 0x3e	; 62
    6ca2:	08 96       	adiw	r24, 0x08	; 8
    6ca4:	0f b6       	in	r0, 0x3f	; 63
    6ca6:	f8 94       	cli
    6ca8:	9e bf       	out	0x3e, r25	; 62
    6caa:	0f be       	out	0x3f, r0	; 63
    6cac:	8d bf       	out	0x3d, r24	; 61
    6cae:	91 91       	ld	r25, Z+
    6cb0:	80 91 e9 05 	lds	r24, 0x05E9	; 0x8005e9 <_ZZ10reply_vislvE9xor_state>
    6cb4:	89 27       	eor	r24, r25
    6cb6:	80 93 e9 05 	sts	0x05E9, r24	; 0x8005e9 <_ZZ10reply_vislvE9xor_state>
    6cba:	2e 17       	cp	r18, r30
    6cbc:	3f 07       	cpc	r19, r31
    6cbe:	b9 f7       	brne	.-18     	; 0x6cae <_Z10reply_vislv+0x8e>
    6cc0:	80 91 e9 05 	lds	r24, 0x05E9	; 0x8005e9 <_ZZ10reply_vislvE9xor_state>
    6cc4:	1f 92       	push	r1
    6cc6:	8f 93       	push	r24
    6cc8:	80 91 75 04 	lds	r24, 0x0475	; 0x800475 <massa_after_filtr+0x3>
    6ccc:	8f 93       	push	r24
    6cce:	80 91 74 04 	lds	r24, 0x0474	; 0x800474 <massa_after_filtr+0x2>
    6cd2:	8f 93       	push	r24
    6cd4:	80 91 73 04 	lds	r24, 0x0473	; 0x800473 <massa_after_filtr+0x1>
    6cd8:	8f 93       	push	r24
    6cda:	80 91 72 04 	lds	r24, 0x0472	; 0x800472 <massa_after_filtr>
    6cde:	8f 93       	push	r24
    6ce0:	8e ee       	ldi	r24, 0xEE	; 238
    6ce2:	92 e0       	ldi	r25, 0x02	; 2
    6ce4:	9f 93       	push	r25
    6ce6:	8f 93       	push	r24
    6ce8:	c4 e6       	ldi	r28, 0x64	; 100
    6cea:	d6 e0       	ldi	r29, 0x06	; 6
    6cec:	df 93       	push	r29
    6cee:	cf 93       	push	r28
    6cf0:	0e 94 79 46 	call	0x8cf2	; 0x8cf2 <sprintf>
    6cf4:	82 e0       	ldi	r24, 0x02	; 2
    6cf6:	88 83       	st	Y, r24
    6cf8:	83 e0       	ldi	r24, 0x03	; 3
    6cfa:	8d 87       	std	Y+13, r24	; 0x0d
    6cfc:	ce 01       	movw	r24, r28
    6cfe:	66 df       	rcall	.-308    	; 0x6bcc <_Z17uart0_send_stringPc>
    6d00:	10 92 ee 05 	sts	0x05EE, r1	; 0x8005ee <data_out>
    6d04:	8d b7       	in	r24, 0x3d	; 61
    6d06:	9e b7       	in	r25, 0x3e	; 62
    6d08:	0a 96       	adiw	r24, 0x0a	; 10
    6d0a:	0f b6       	in	r0, 0x3f	; 63
    6d0c:	f8 94       	cli
    6d0e:	9e bf       	out	0x3e, r25	; 62
    6d10:	0f be       	out	0x3f, r0	; 63
    6d12:	8d bf       	out	0x3d, r24	; 61
    6d14:	fb c0       	rjmp	.+502    	; 0x6f0c <_Z10reply_vislv+0x2ec>
    6d16:	80 91 75 04 	lds	r24, 0x0475	; 0x800475 <massa_after_filtr+0x3>
    6d1a:	8f 93       	push	r24
    6d1c:	80 91 74 04 	lds	r24, 0x0474	; 0x800474 <massa_after_filtr+0x2>
    6d20:	8f 93       	push	r24
    6d22:	80 91 73 04 	lds	r24, 0x0473	; 0x800473 <massa_after_filtr+0x1>
    6d26:	8f 93       	push	r24
    6d28:	80 91 72 04 	lds	r24, 0x0472	; 0x800472 <massa_after_filtr>
    6d2c:	8f 93       	push	r24
    6d2e:	87 ee       	ldi	r24, 0xE7	; 231
    6d30:	92 e0       	ldi	r25, 0x02	; 2
    6d32:	9f 93       	push	r25
    6d34:	8f 93       	push	r24
    6d36:	84 e6       	ldi	r24, 0x64	; 100
    6d38:	96 e0       	ldi	r25, 0x06	; 6
    6d3a:	9f 93       	push	r25
    6d3c:	8f 93       	push	r24
    6d3e:	0e 94 79 46 	call	0x8cf2	; 0x8cf2 <sprintf>
    6d42:	83 e0       	ldi	r24, 0x03	; 3
    6d44:	80 93 e9 05 	sts	0x05E9, r24	; 0x8005e9 <_ZZ10reply_vislvE9xor_state>
    6d48:	e4 e6       	ldi	r30, 0x64	; 100
    6d4a:	f6 e0       	ldi	r31, 0x06	; 6
    6d4c:	2c e6       	ldi	r18, 0x6C	; 108
    6d4e:	36 e0       	ldi	r19, 0x06	; 6
    6d50:	8d b7       	in	r24, 0x3d	; 61
    6d52:	9e b7       	in	r25, 0x3e	; 62
    6d54:	08 96       	adiw	r24, 0x08	; 8
    6d56:	0f b6       	in	r0, 0x3f	; 63
    6d58:	f8 94       	cli
    6d5a:	9e bf       	out	0x3e, r25	; 62
    6d5c:	0f be       	out	0x3f, r0	; 63
    6d5e:	8d bf       	out	0x3d, r24	; 61
    6d60:	91 91       	ld	r25, Z+
    6d62:	80 91 e9 05 	lds	r24, 0x05E9	; 0x8005e9 <_ZZ10reply_vislvE9xor_state>
    6d66:	89 27       	eor	r24, r25
    6d68:	80 93 e9 05 	sts	0x05E9, r24	; 0x8005e9 <_ZZ10reply_vislvE9xor_state>
    6d6c:	e2 17       	cp	r30, r18
    6d6e:	f3 07       	cpc	r31, r19
    6d70:	b9 f7       	brne	.-18     	; 0x6d60 <_Z10reply_vislv+0x140>
    6d72:	80 91 e9 05 	lds	r24, 0x05E9	; 0x8005e9 <_ZZ10reply_vislvE9xor_state>
    6d76:	1f 92       	push	r1
    6d78:	8f 93       	push	r24
    6d7a:	80 91 75 04 	lds	r24, 0x0475	; 0x800475 <massa_after_filtr+0x3>
    6d7e:	8f 93       	push	r24
    6d80:	80 91 74 04 	lds	r24, 0x0474	; 0x800474 <massa_after_filtr+0x2>
    6d84:	8f 93       	push	r24
    6d86:	80 91 73 04 	lds	r24, 0x0473	; 0x800473 <massa_after_filtr+0x1>
    6d8a:	8f 93       	push	r24
    6d8c:	80 91 72 04 	lds	r24, 0x0472	; 0x800472 <massa_after_filtr>
    6d90:	8f 93       	push	r24
    6d92:	8e ef       	ldi	r24, 0xFE	; 254
    6d94:	92 e0       	ldi	r25, 0x02	; 2
    6d96:	9f 93       	push	r25
    6d98:	8f 93       	push	r24
    6d9a:	c4 e6       	ldi	r28, 0x64	; 100
    6d9c:	d6 e0       	ldi	r29, 0x06	; 6
    6d9e:	df 93       	push	r29
    6da0:	cf 93       	push	r28
    6da2:	0e 94 79 46 	call	0x8cf2	; 0x8cf2 <sprintf>
    6da6:	82 e0       	ldi	r24, 0x02	; 2
    6da8:	88 83       	st	Y, r24
    6daa:	8c e2       	ldi	r24, 0x2C	; 44
    6dac:	8b 87       	std	Y+11, r24	; 0x0b
    6dae:	80 91 89 06 	lds	r24, 0x0689	; 0x800689 <boolean+0x2>
    6db2:	2d b7       	in	r18, 0x3d	; 61
    6db4:	3e b7       	in	r19, 0x3e	; 62
    6db6:	26 5f       	subi	r18, 0xF6	; 246
    6db8:	3f 4f       	sbci	r19, 0xFF	; 255
    6dba:	0f b6       	in	r0, 0x3f	; 63
    6dbc:	f8 94       	cli
    6dbe:	3e bf       	out	0x3e, r19	; 62
    6dc0:	0f be       	out	0x3f, r0	; 63
    6dc2:	2d bf       	out	0x3d, r18	; 61
    6dc4:	83 ff       	sbrs	r24, 3
    6dc6:	04 c0       	rjmp	.+8      	; 0x6dd0 <_Z10reply_vislv+0x1b0>
    6dc8:	81 e3       	ldi	r24, 0x31	; 49
    6dca:	80 93 70 06 	sts	0x0670, r24	; 0x800670 <mirror_buf+0xc>
    6dce:	03 c0       	rjmp	.+6      	; 0x6dd6 <_Z10reply_vislv+0x1b6>
    6dd0:	80 e3       	ldi	r24, 0x30	; 48
    6dd2:	80 93 70 06 	sts	0x0670, r24	; 0x800670 <mirror_buf+0xc>
    6dd6:	83 e0       	ldi	r24, 0x03	; 3
    6dd8:	80 93 73 06 	sts	0x0673, r24	; 0x800673 <mirror_buf+0xf>
    6ddc:	84 e6       	ldi	r24, 0x64	; 100
    6dde:	96 e0       	ldi	r25, 0x06	; 6
    6de0:	f5 de       	rcall	.-534    	; 0x6bcc <_Z17uart0_send_stringPc>
    6de2:	10 92 ee 05 	sts	0x05EE, r1	; 0x8005ee <data_out>
    6de6:	92 c0       	rjmp	.+292    	; 0x6f0c <_Z10reply_vislv+0x2ec>
    6de8:	80 91 ee 05 	lds	r24, 0x05EE	; 0x8005ee <data_out>
    6dec:	8f 5f       	subi	r24, 0xFF	; 255
    6dee:	80 93 ee 05 	sts	0x05EE, r24	; 0x8005ee <data_out>
    6df2:	ea e8       	ldi	r30, 0x8A	; 138
    6df4:	f6 e0       	ldi	r31, 0x06	; 6
    6df6:	80 81       	ld	r24, Z
    6df8:	84 60       	ori	r24, 0x04	; 4
    6dfa:	80 83       	st	Z, r24
    6dfc:	87 c0       	rjmp	.+270    	; 0x6f0c <_Z10reply_vislv+0x2ec>
    6dfe:	80 91 89 06 	lds	r24, 0x0689	; 0x800689 <boolean+0x2>
    6e02:	98 2f       	mov	r25, r24
    6e04:	99 1f       	adc	r25, r25
    6e06:	99 27       	eor	r25, r25
    6e08:	99 1f       	adc	r25, r25
    6e0a:	80 91 8a 06 	lds	r24, 0x068A	; 0x80068a <boolean+0x3>
    6e0e:	81 70       	andi	r24, 0x01	; 1
    6e10:	88 0f       	add	r24, r24
    6e12:	89 2b       	or	r24, r25
    6e14:	82 30       	cpi	r24, 0x02	; 2
    6e16:	59 f4       	brne	.+22     	; 0x6e2e <_Z10reply_vislv+0x20e>
    6e18:	ef e3       	ldi	r30, 0x3F	; 63
    6e1a:	f7 e0       	ldi	r31, 0x07	; 7
    6e1c:	65 91       	lpm	r22, Z+
    6e1e:	74 91       	lpm	r23, Z
    6e20:	84 e6       	ldi	r24, 0x64	; 100
    6e22:	96 e0       	ldi	r25, 0x06	; 6
    6e24:	0e 94 04 46 	call	0x8c08	; 0x8c08 <strcpy_P>
    6e28:	84 e6       	ldi	r24, 0x64	; 100
    6e2a:	96 e0       	ldi	r25, 0x06	; 6
    6e2c:	cf de       	rcall	.-610    	; 0x6bcc <_Z17uart0_send_stringPc>
    6e2e:	80 91 89 06 	lds	r24, 0x0689	; 0x800689 <boolean+0x2>
    6e32:	98 2f       	mov	r25, r24
    6e34:	99 1f       	adc	r25, r25
    6e36:	99 27       	eor	r25, r25
    6e38:	99 1f       	adc	r25, r25
    6e3a:	80 91 8a 06 	lds	r24, 0x068A	; 0x80068a <boolean+0x3>
    6e3e:	81 70       	andi	r24, 0x01	; 1
    6e40:	88 0f       	add	r24, r24
    6e42:	89 2b       	or	r24, r25
    6e44:	81 30       	cpi	r24, 0x01	; 1
    6e46:	59 f4       	brne	.+22     	; 0x6e5e <_Z10reply_vislv+0x23e>
    6e48:	e1 e4       	ldi	r30, 0x41	; 65
    6e4a:	f7 e0       	ldi	r31, 0x07	; 7
    6e4c:	65 91       	lpm	r22, Z+
    6e4e:	74 91       	lpm	r23, Z
    6e50:	84 e6       	ldi	r24, 0x64	; 100
    6e52:	96 e0       	ldi	r25, 0x06	; 6
    6e54:	0e 94 04 46 	call	0x8c08	; 0x8c08 <strcpy_P>
    6e58:	84 e6       	ldi	r24, 0x64	; 100
    6e5a:	96 e0       	ldi	r25, 0x06	; 6
    6e5c:	b7 de       	rcall	.-658    	; 0x6bcc <_Z17uart0_send_stringPc>
    6e5e:	10 92 ee 05 	sts	0x05EE, r1	; 0x8005ee <data_out>
    6e62:	e9 e8       	ldi	r30, 0x89	; 137
    6e64:	f6 e0       	ldi	r31, 0x06	; 6
    6e66:	80 81       	ld	r24, Z
    6e68:	8f 77       	andi	r24, 0x7F	; 127
    6e6a:	80 83       	st	Z, r24
    6e6c:	ea e8       	ldi	r30, 0x8A	; 138
    6e6e:	f6 e0       	ldi	r31, 0x06	; 6
    6e70:	80 81       	ld	r24, Z
    6e72:	8e 7f       	andi	r24, 0xFE	; 254
    6e74:	80 83       	st	Z, r24
    6e76:	4a c0       	rjmp	.+148    	; 0x6f0c <_Z10reply_vislv+0x2ec>
    6e78:	94 fd       	sbrc	r25, 4
    6e7a:	14 c0       	rjmp	.+40     	; 0x6ea4 <_Z10reply_vislv+0x284>
    6e7c:	e3 e4       	ldi	r30, 0x43	; 67
    6e7e:	f7 e0       	ldi	r31, 0x07	; 7
    6e80:	65 91       	lpm	r22, Z+
    6e82:	74 91       	lpm	r23, Z
    6e84:	84 e6       	ldi	r24, 0x64	; 100
    6e86:	96 e0       	ldi	r25, 0x06	; 6
    6e88:	0e 94 04 46 	call	0x8c08	; 0x8c08 <strcpy_P>
    6e8c:	84 e6       	ldi	r24, 0x64	; 100
    6e8e:	96 e0       	ldi	r25, 0x06	; 6
    6e90:	9d de       	rcall	.-710    	; 0x6bcc <_Z17uart0_send_stringPc>
    6e92:	ea e8       	ldi	r30, 0x8A	; 138
    6e94:	f6 e0       	ldi	r31, 0x06	; 6
    6e96:	80 81       	ld	r24, Z
    6e98:	82 60       	ori	r24, 0x02	; 2
    6e9a:	80 83       	st	Z, r24
    6e9c:	80 91 87 06 	lds	r24, 0x0687	; 0x800687 <boolean>
    6ea0:	84 ff       	sbrs	r24, 4
    6ea2:	0b c0       	rjmp	.+22     	; 0x6eba <_Z10reply_vislv+0x29a>
    6ea4:	e5 e4       	ldi	r30, 0x45	; 69
    6ea6:	f7 e0       	ldi	r31, 0x07	; 7
    6ea8:	65 91       	lpm	r22, Z+
    6eaa:	74 91       	lpm	r23, Z
    6eac:	84 e6       	ldi	r24, 0x64	; 100
    6eae:	96 e0       	ldi	r25, 0x06	; 6
    6eb0:	0e 94 04 46 	call	0x8c08	; 0x8c08 <strcpy_P>
    6eb4:	84 e6       	ldi	r24, 0x64	; 100
    6eb6:	96 e0       	ldi	r25, 0x06	; 6
    6eb8:	89 de       	rcall	.-750    	; 0x6bcc <_Z17uart0_send_stringPc>
    6eba:	10 92 ee 05 	sts	0x05EE, r1	; 0x8005ee <data_out>
    6ebe:	26 c0       	rjmp	.+76     	; 0x6f0c <_Z10reply_vislv+0x2ec>
    6ec0:	94 ff       	sbrs	r25, 4
    6ec2:	14 c0       	rjmp	.+40     	; 0x6eec <_Z10reply_vislv+0x2cc>
    6ec4:	e7 e4       	ldi	r30, 0x47	; 71
    6ec6:	f7 e0       	ldi	r31, 0x07	; 7
    6ec8:	65 91       	lpm	r22, Z+
    6eca:	74 91       	lpm	r23, Z
    6ecc:	84 e6       	ldi	r24, 0x64	; 100
    6ece:	96 e0       	ldi	r25, 0x06	; 6
    6ed0:	0e 94 04 46 	call	0x8c08	; 0x8c08 <strcpy_P>
    6ed4:	84 e6       	ldi	r24, 0x64	; 100
    6ed6:	96 e0       	ldi	r25, 0x06	; 6
    6ed8:	79 de       	rcall	.-782    	; 0x6bcc <_Z17uart0_send_stringPc>
    6eda:	ea e8       	ldi	r30, 0x8A	; 138
    6edc:	f6 e0       	ldi	r31, 0x06	; 6
    6ede:	80 81       	ld	r24, Z
    6ee0:	82 60       	ori	r24, 0x02	; 2
    6ee2:	80 83       	st	Z, r24
    6ee4:	80 91 87 06 	lds	r24, 0x0687	; 0x800687 <boolean>
    6ee8:	84 fd       	sbrc	r24, 4
    6eea:	0b c0       	rjmp	.+22     	; 0x6f02 <_Z10reply_vislv+0x2e2>
    6eec:	e9 e4       	ldi	r30, 0x49	; 73
    6eee:	f7 e0       	ldi	r31, 0x07	; 7
    6ef0:	65 91       	lpm	r22, Z+
    6ef2:	74 91       	lpm	r23, Z
    6ef4:	84 e6       	ldi	r24, 0x64	; 100
    6ef6:	96 e0       	ldi	r25, 0x06	; 6
    6ef8:	0e 94 04 46 	call	0x8c08	; 0x8c08 <strcpy_P>
    6efc:	84 e6       	ldi	r24, 0x64	; 100
    6efe:	96 e0       	ldi	r25, 0x06	; 6
    6f00:	65 de       	rcall	.-822    	; 0x6bcc <_Z17uart0_send_stringPc>
    6f02:	10 92 ee 05 	sts	0x05EE, r1	; 0x8005ee <data_out>
    6f06:	02 c0       	rjmp	.+4      	; 0x6f0c <_Z10reply_vislv+0x2ec>
    6f08:	10 92 ee 05 	sts	0x05EE, r1	; 0x8005ee <data_out>
    6f0c:	df 91       	pop	r29
    6f0e:	cf 91       	pop	r28
    6f10:	08 95       	ret

00006f12 <_Z17uart2_send_stringPc>:
     }
}

void uart2_send_string ( char *send2)
{
     if (uart2_tx_caunter == 0)
    6f12:	20 91 1b 06 	lds	r18, 0x061B	; 0x80061b <uart2_tx_caunter>
    6f16:	21 11       	cpse	r18, r1
    6f18:	1b c0       	rjmp	.+54     	; 0x6f50 <_Z17uart2_send_stringPc+0x3e>
     {
          for (int i = 0; i < 20; i ++)
          {
               uart2_tx_buf[i] = send2[i];
    6f1a:	fc 01       	movw	r30, r24
    6f1c:	20 81       	ld	r18, Z
    6f1e:	20 93 2d 06 	sts	0x062D, r18	; 0x80062d <uart2_tx_buf>
               if (uart2_tx_buf[i] == '$') break;
    6f22:	24 32       	cpi	r18, 0x24	; 36
    6f24:	39 f0       	breq	.+14     	; 0x6f34 <_Z17uart2_send_stringPc+0x22>
    6f26:	31 96       	adiw	r30, 0x01	; 1
    6f28:	ae e2       	ldi	r26, 0x2E	; 46
    6f2a:	b6 e0       	ldi	r27, 0x06	; 6
{
     if (uart2_tx_caunter == 0)
     {
          for (int i = 0; i < 20; i ++)
          {
               uart2_tx_buf[i] = send2[i];
    6f2c:	91 91       	ld	r25, Z+
    6f2e:	9d 93       	st	X+, r25
               if (uart2_tx_buf[i] == '$') break;
    6f30:	94 32       	cpi	r25, 0x24	; 36
    6f32:	e1 f7       	brne	.-8      	; 0x6f2c <_Z17uart2_send_stringPc+0x1a>
          }
          UDR2 = uart2_tx_buf[0];
    6f34:	80 91 2d 06 	lds	r24, 0x062D	; 0x80062d <uart2_tx_buf>
    6f38:	80 93 d6 00 	sts	0x00D6, r24	; 0x8000d6 <__TEXT_REGION_LENGTH__+0x7c00d6>
          uart2_tx_caunter ++;
    6f3c:	80 91 1b 06 	lds	r24, 0x061B	; 0x80061b <uart2_tx_caunter>
    6f40:	8f 5f       	subi	r24, 0xFF	; 255
    6f42:	80 93 1b 06 	sts	0x061B, r24	; 0x80061b <uart2_tx_caunter>
          UCSR2B |= ( 1<<UDRIE2);
    6f46:	e1 ed       	ldi	r30, 0xD1	; 209
    6f48:	f0 e0       	ldi	r31, 0x00	; 0
    6f4a:	80 81       	ld	r24, Z
    6f4c:	80 62       	ori	r24, 0x20	; 32
    6f4e:	80 83       	st	Z, r24
    6f50:	08 95       	ret

00006f52 <_Z17get_zemik_sensorsh>:
     else {return 8388608;}                                         // если данные битые вернуть код нуля
}

//strcpy_P копирует пока не встретит символ 0!!
void get_zemik_sensors (uint8_t amount)                             // функция для опроса датчиков земик ( передаем количество датчиков которое нужно опросить)
{
    6f52:	cf 93       	push	r28
     static uint8_t caunter_send;                                   // счетчик перемещения по кейсам
     switch (caunter_send){
    6f54:	90 91 ed 05 	lds	r25, 0x05ED	; 0x8005ed <_ZZ17get_zemik_sensorshE12caunter_send>
    6f58:	49 2f       	mov	r20, r25
    6f5a:	50 e0       	ldi	r21, 0x00	; 0
    6f5c:	49 31       	cpi	r20, 0x19	; 25
    6f5e:	51 05       	cpc	r21, r1
    6f60:	08 f0       	brcs	.+2      	; 0x6f64 <_Z17get_zemik_sensorsh+0x12>
    6f62:	dc c2       	rjmp	.+1464   	; 0x751c <_Z17get_zemik_sensorsh+0x5ca>
    6f64:	c8 2f       	mov	r28, r24
    6f66:	fa 01       	movw	r30, r20
    6f68:	88 27       	eor	r24, r24
    6f6a:	e0 56       	subi	r30, 0x60	; 96
    6f6c:	ff 4f       	sbci	r31, 0xFF	; 255
    6f6e:	8f 4f       	sbci	r24, 0xFF	; 255
    6f70:	0c 94 e2 44 	jmp	0x89c4	; 0x89c4 <__tablejump2__>
          case 0: strcpy_P(str_cpy_buf ,(PGM_P)pgm_read_word_near(&(uart_string[S98_MSV])));                 caunter_send ++; uart2_send_string (str_cpy_buf);   tim_2 = TIM_TO_UART ; break ;
    6f74:	e3 e2       	ldi	r30, 0x23	; 35
    6f76:	f7 e0       	ldi	r31, 0x07	; 7
    6f78:	65 91       	lpm	r22, Z+
    6f7a:	74 91       	lpm	r23, Z
    6f7c:	88 e7       	ldi	r24, 0x78	; 120
    6f7e:	96 e0       	ldi	r25, 0x06	; 6
    6f80:	0e 94 04 46 	call	0x8c08	; 0x8c08 <strcpy_P>
    6f84:	80 91 ed 05 	lds	r24, 0x05ED	; 0x8005ed <_ZZ17get_zemik_sensorshE12caunter_send>
    6f88:	8f 5f       	subi	r24, 0xFF	; 255
    6f8a:	80 93 ed 05 	sts	0x05ED, r24	; 0x8005ed <_ZZ17get_zemik_sensorshE12caunter_send>
    6f8e:	88 e7       	ldi	r24, 0x78	; 120
    6f90:	96 e0       	ldi	r25, 0x06	; 6
    6f92:	bf df       	rcall	.-130    	; 0x6f12 <_Z17uart2_send_stringPc>
    6f94:	88 e8       	ldi	r24, 0x88	; 136
    6f96:	93 e1       	ldi	r25, 0x13	; 19
    6f98:	90 93 35 03 	sts	0x0335, r25	; 0x800335 <tim_2+0x1>
    6f9c:	80 93 34 03 	sts	0x0334, r24	; 0x800334 <tim_2>
    6fa0:	f6 c2       	rjmp	.+1516   	; 0x758e <_Z17get_zemik_sensorsh+0x63c>
           // отправляем посылку для всех датчиков, плюсуем счетчик чтоб попасть в следующий кейс     
          case 1: if (tim_2 < 4000){strcpy_P( str_cpy_buf ,(PGM_P)pgm_read_word_near(&(uart_string[S01])));    caunter_send ++; uart2_send_string (str_cpy_buf);   tim_2 = TIM_TO_UART;} break;
    6fa2:	80 91 34 03 	lds	r24, 0x0334	; 0x800334 <tim_2>
    6fa6:	90 91 35 03 	lds	r25, 0x0335	; 0x800335 <tim_2+0x1>
    6faa:	80 3a       	cpi	r24, 0xA0	; 160
    6fac:	9f 40       	sbci	r25, 0x0F	; 15
    6fae:	08 f0       	brcs	.+2      	; 0x6fb2 <_Z17get_zemik_sensorsh+0x60>
    6fb0:	0e c3       	rjmp	.+1564   	; 0x75ce <_Z17get_zemik_sensorsh+0x67c>
    6fb2:	e5 e2       	ldi	r30, 0x25	; 37
    6fb4:	f7 e0       	ldi	r31, 0x07	; 7
    6fb6:	65 91       	lpm	r22, Z+
    6fb8:	74 91       	lpm	r23, Z
    6fba:	88 e7       	ldi	r24, 0x78	; 120
    6fbc:	96 e0       	ldi	r25, 0x06	; 6
    6fbe:	0e 94 04 46 	call	0x8c08	; 0x8c08 <strcpy_P>
    6fc2:	80 91 ed 05 	lds	r24, 0x05ED	; 0x8005ed <_ZZ17get_zemik_sensorshE12caunter_send>
    6fc6:	8f 5f       	subi	r24, 0xFF	; 255
    6fc8:	80 93 ed 05 	sts	0x05ED, r24	; 0x8005ed <_ZZ17get_zemik_sensorshE12caunter_send>
    6fcc:	88 e7       	ldi	r24, 0x78	; 120
    6fce:	96 e0       	ldi	r25, 0x06	; 6
    6fd0:	a0 df       	rcall	.-192    	; 0x6f12 <_Z17uart2_send_stringPc>
    6fd2:	88 e8       	ldi	r24, 0x88	; 136
    6fd4:	93 e1       	ldi	r25, 0x13	; 19
    6fd6:	90 93 35 03 	sts	0x0335, r25	; 0x800335 <tim_2+0x1>
    6fda:	80 93 34 03 	sts	0x0334, r24	; 0x800334 <tim_2>
    6fde:	d7 c2       	rjmp	.+1454   	; 0x758e <_Z17get_zemik_sensorsh+0x63c>
          // потом отправляем код первого датчика, опять плюсуем кейсометр и запускаем время
          case 2: if(rx2_done){ metrology.cod_sensor1 = parser_buf_zemic (uart2_rx_buf);                caunter_send ++; sens_cod |= 1; }  break;
    6fe0:	80 91 8f 06 	lds	r24, 0x068F	; 0x80068f <rx2_done>
    6fe4:	88 23       	and	r24, r24
    6fe6:	09 f4       	brne	.+2      	; 0x6fea <_Z17get_zemik_sensorsh+0x98>
    6fe8:	f2 c2       	rjmp	.+1508   	; 0x75ce <_Z17get_zemik_sensorsh+0x67c>
    6fea:	82 ef       	ldi	r24, 0xF2	; 242
    6fec:	95 e0       	ldi	r25, 0x05	; 5
    6fee:	0b dc       	rcall	.-2026   	; 0x6806 <_Z16parser_buf_zemicPc>
    6ff0:	60 93 11 05 	sts	0x0511, r22	; 0x800511 <metrology+0xc>
    6ff4:	70 93 12 05 	sts	0x0512, r23	; 0x800512 <metrology+0xd>
    6ff8:	80 93 13 05 	sts	0x0513, r24	; 0x800513 <metrology+0xe>
    6ffc:	90 93 14 05 	sts	0x0514, r25	; 0x800514 <metrology+0xf>
    7000:	83 e0       	ldi	r24, 0x03	; 3
    7002:	80 93 ed 05 	sts	0x05ED, r24	; 0x8005ed <_ZZ17get_zemik_sensorshE12caunter_send>
    7006:	80 91 8d 06 	lds	r24, 0x068D	; 0x80068d <sens_cod>
    700a:	90 91 8e 06 	lds	r25, 0x068E	; 0x80068e <sens_cod+0x1>
    700e:	81 60       	ori	r24, 0x01	; 1
    7010:	90 93 8e 06 	sts	0x068E, r25	; 0x80068e <sens_cod+0x1>
    7014:	80 93 8d 06 	sts	0x068D, r24	; 0x80068d <sens_cod>
    7018:	da c2       	rjmp	.+1460   	; 0x75ce <_Z17get_zemik_sensorsh+0x67c>
          // заходим и смотрим поднялся ли флаг принятых данных, если да то преобразуем код датчика и увеличим счетчик
          case 3: strcpy_P( str_cpy_buf ,(PGM_P)pgm_read_word_near(&(uart_string[S02])));               caunter_send ++; uart2_send_string (str_cpy_buf);   tim_2 = TIM_TO_UART; break;
    701a:	e7 e2       	ldi	r30, 0x27	; 39
    701c:	f7 e0       	ldi	r31, 0x07	; 7
    701e:	65 91       	lpm	r22, Z+
    7020:	74 91       	lpm	r23, Z
    7022:	88 e7       	ldi	r24, 0x78	; 120
    7024:	96 e0       	ldi	r25, 0x06	; 6
    7026:	0e 94 04 46 	call	0x8c08	; 0x8c08 <strcpy_P>
    702a:	80 91 ed 05 	lds	r24, 0x05ED	; 0x8005ed <_ZZ17get_zemik_sensorshE12caunter_send>
    702e:	8f 5f       	subi	r24, 0xFF	; 255
    7030:	80 93 ed 05 	sts	0x05ED, r24	; 0x8005ed <_ZZ17get_zemik_sensorshE12caunter_send>
    7034:	88 e7       	ldi	r24, 0x78	; 120
    7036:	96 e0       	ldi	r25, 0x06	; 6
    7038:	6c df       	rcall	.-296    	; 0x6f12 <_Z17uart2_send_stringPc>
    703a:	88 e8       	ldi	r24, 0x88	; 136
    703c:	93 e1       	ldi	r25, 0x13	; 19
    703e:	90 93 35 03 	sts	0x0335, r25	; 0x800335 <tim_2+0x1>
    7042:	80 93 34 03 	sts	0x0334, r24	; 0x800334 <tim_2>
    7046:	a3 c2       	rjmp	.+1350   	; 0x758e <_Z17get_zemik_sensorsh+0x63c>
          case 4: if(rx2_done){ metrology.cod_sensor2 = parser_buf_zemic (uart2_rx_buf);                caunter_send ++; sens_cod |= 2;\
    7048:	80 91 8f 06 	lds	r24, 0x068F	; 0x80068f <rx2_done>
    704c:	88 23       	and	r24, r24
    704e:	09 f4       	brne	.+2      	; 0x7052 <_Z17get_zemik_sensorsh+0x100>
    7050:	be c2       	rjmp	.+1404   	; 0x75ce <_Z17get_zemik_sensorsh+0x67c>
    7052:	82 ef       	ldi	r24, 0xF2	; 242
    7054:	95 e0       	ldi	r25, 0x05	; 5
    7056:	d7 db       	rcall	.-2130   	; 0x6806 <_Z16parser_buf_zemicPc>
    7058:	60 93 1d 05 	sts	0x051D, r22	; 0x80051d <metrology+0x18>
    705c:	70 93 1e 05 	sts	0x051E, r23	; 0x80051e <metrology+0x19>
    7060:	80 93 1f 05 	sts	0x051F, r24	; 0x80051f <metrology+0x1a>
    7064:	90 93 20 05 	sts	0x0520, r25	; 0x800520 <metrology+0x1b>
    7068:	85 e0       	ldi	r24, 0x05	; 5
    706a:	80 93 ed 05 	sts	0x05ED, r24	; 0x8005ed <_ZZ17get_zemik_sensorshE12caunter_send>
    706e:	80 91 8d 06 	lds	r24, 0x068D	; 0x80068d <sens_cod>
    7072:	90 91 8e 06 	lds	r25, 0x068E	; 0x80068e <sens_cod+0x1>
    7076:	82 60       	ori	r24, 0x02	; 2
    7078:	90 93 8e 06 	sts	0x068E, r25	; 0x80068e <sens_cod+0x1>
    707c:	80 93 8d 06 	sts	0x068D, r24	; 0x80068d <sens_cod>
          if (amount == 2 && sens_cod == 3){boolean.data_ok = true; }      }   break;     
    7080:	c2 30       	cpi	r28, 0x02	; 2
    7082:	09 f0       	breq	.+2      	; 0x7086 <_Z17get_zemik_sensorsh+0x134>
    7084:	a4 c2       	rjmp	.+1352   	; 0x75ce <_Z17get_zemik_sensorsh+0x67c>
    7086:	03 97       	sbiw	r24, 0x03	; 3
    7088:	09 f0       	breq	.+2      	; 0x708c <_Z17get_zemik_sensorsh+0x13a>
    708a:	a1 c2       	rjmp	.+1346   	; 0x75ce <_Z17get_zemik_sensorsh+0x67c>
    708c:	ea e8       	ldi	r30, 0x8A	; 138
    708e:	f6 e0       	ldi	r31, 0x06	; 6
    7090:	80 81       	ld	r24, Z
    7092:	88 60       	ori	r24, 0x08	; 8
    7094:	80 83       	st	Z, r24
    7096:	9b c2       	rjmp	.+1334   	; 0x75ce <_Z17get_zemik_sensorsh+0x67c>
          // если выбрано два датчика и сбоев не обнаружено то поднимаем флаг что данные приняты, сбрасываем счетчик и начинаем все с нуля, если ошибка то передаем ее в отображение
          case 5: strcpy_P(str_cpy_buf, (PGM_P)pgm_read_word(&(uart_string[S03])));                     caunter_send ++; uart2_send_string (str_cpy_buf); tim_2 = TIM_TO_UART; break;
    7098:	e9 e2       	ldi	r30, 0x29	; 41
    709a:	f7 e0       	ldi	r31, 0x07	; 7
    709c:	65 91       	lpm	r22, Z+
    709e:	74 91       	lpm	r23, Z
    70a0:	88 e7       	ldi	r24, 0x78	; 120
    70a2:	96 e0       	ldi	r25, 0x06	; 6
    70a4:	0e 94 04 46 	call	0x8c08	; 0x8c08 <strcpy_P>
    70a8:	80 91 ed 05 	lds	r24, 0x05ED	; 0x8005ed <_ZZ17get_zemik_sensorshE12caunter_send>
    70ac:	8f 5f       	subi	r24, 0xFF	; 255
    70ae:	80 93 ed 05 	sts	0x05ED, r24	; 0x8005ed <_ZZ17get_zemik_sensorshE12caunter_send>
    70b2:	88 e7       	ldi	r24, 0x78	; 120
    70b4:	96 e0       	ldi	r25, 0x06	; 6
    70b6:	2d df       	rcall	.-422    	; 0x6f12 <_Z17uart2_send_stringPc>
    70b8:	88 e8       	ldi	r24, 0x88	; 136
    70ba:	93 e1       	ldi	r25, 0x13	; 19
    70bc:	90 93 35 03 	sts	0x0335, r25	; 0x800335 <tim_2+0x1>
    70c0:	80 93 34 03 	sts	0x0334, r24	; 0x800334 <tim_2>
    70c4:	64 c2       	rjmp	.+1224   	; 0x758e <_Z17get_zemik_sensorsh+0x63c>
          case 6: if (rx2_done){ metrology.cod_sensor3 = parser_buf_zemic (uart2_rx_buf);               caunter_send ++; sens_cod |= 4;}  break;
    70c6:	80 91 8f 06 	lds	r24, 0x068F	; 0x80068f <rx2_done>
    70ca:	88 23       	and	r24, r24
    70cc:	09 f4       	brne	.+2      	; 0x70d0 <_Z17get_zemik_sensorsh+0x17e>
    70ce:	7f c2       	rjmp	.+1278   	; 0x75ce <_Z17get_zemik_sensorsh+0x67c>
    70d0:	82 ef       	ldi	r24, 0xF2	; 242
    70d2:	95 e0       	ldi	r25, 0x05	; 5
    70d4:	98 db       	rcall	.-2256   	; 0x6806 <_Z16parser_buf_zemicPc>
    70d6:	60 93 29 05 	sts	0x0529, r22	; 0x800529 <metrology+0x24>
    70da:	70 93 2a 05 	sts	0x052A, r23	; 0x80052a <metrology+0x25>
    70de:	80 93 2b 05 	sts	0x052B, r24	; 0x80052b <metrology+0x26>
    70e2:	90 93 2c 05 	sts	0x052C, r25	; 0x80052c <metrology+0x27>
    70e6:	87 e0       	ldi	r24, 0x07	; 7
    70e8:	80 93 ed 05 	sts	0x05ED, r24	; 0x8005ed <_ZZ17get_zemik_sensorshE12caunter_send>
    70ec:	80 91 8d 06 	lds	r24, 0x068D	; 0x80068d <sens_cod>
    70f0:	90 91 8e 06 	lds	r25, 0x068E	; 0x80068e <sens_cod+0x1>
    70f4:	84 60       	ori	r24, 0x04	; 4
    70f6:	90 93 8e 06 	sts	0x068E, r25	; 0x80068e <sens_cod+0x1>
    70fa:	80 93 8d 06 	sts	0x068D, r24	; 0x80068d <sens_cod>
    70fe:	67 c2       	rjmp	.+1230   	; 0x75ce <_Z17get_zemik_sensorsh+0x67c>
          case 7: strcpy_P(str_cpy_buf, (PGM_P)pgm_read_word(&(uart_string[S04])));                     caunter_send ++; uart2_send_string (str_cpy_buf); tim_2 = TIM_TO_UART; break;     
    7100:	eb e2       	ldi	r30, 0x2B	; 43
    7102:	f7 e0       	ldi	r31, 0x07	; 7
    7104:	65 91       	lpm	r22, Z+
    7106:	74 91       	lpm	r23, Z
    7108:	88 e7       	ldi	r24, 0x78	; 120
    710a:	96 e0       	ldi	r25, 0x06	; 6
    710c:	0e 94 04 46 	call	0x8c08	; 0x8c08 <strcpy_P>
    7110:	80 91 ed 05 	lds	r24, 0x05ED	; 0x8005ed <_ZZ17get_zemik_sensorshE12caunter_send>
    7114:	8f 5f       	subi	r24, 0xFF	; 255
    7116:	80 93 ed 05 	sts	0x05ED, r24	; 0x8005ed <_ZZ17get_zemik_sensorshE12caunter_send>
    711a:	88 e7       	ldi	r24, 0x78	; 120
    711c:	96 e0       	ldi	r25, 0x06	; 6
    711e:	f9 de       	rcall	.-526    	; 0x6f12 <_Z17uart2_send_stringPc>
    7120:	88 e8       	ldi	r24, 0x88	; 136
    7122:	93 e1       	ldi	r25, 0x13	; 19
    7124:	90 93 35 03 	sts	0x0335, r25	; 0x800335 <tim_2+0x1>
    7128:	80 93 34 03 	sts	0x0334, r24	; 0x800334 <tim_2>
    712c:	30 c2       	rjmp	.+1120   	; 0x758e <_Z17get_zemik_sensorsh+0x63c>
          case 8: if (rx2_done){ metrology.cod_sensor4 = parser_buf_zemic (uart2_rx_buf);               caunter_send ++; sens_cod |= 8;\
    712e:	80 91 8f 06 	lds	r24, 0x068F	; 0x80068f <rx2_done>
    7132:	88 23       	and	r24, r24
    7134:	09 f4       	brne	.+2      	; 0x7138 <_Z17get_zemik_sensorsh+0x1e6>
    7136:	4b c2       	rjmp	.+1174   	; 0x75ce <_Z17get_zemik_sensorsh+0x67c>
    7138:	82 ef       	ldi	r24, 0xF2	; 242
    713a:	95 e0       	ldi	r25, 0x05	; 5
    713c:	64 db       	rcall	.-2360   	; 0x6806 <_Z16parser_buf_zemicPc>
    713e:	60 93 35 05 	sts	0x0535, r22	; 0x800535 <metrology+0x30>
    7142:	70 93 36 05 	sts	0x0536, r23	; 0x800536 <metrology+0x31>
    7146:	80 93 37 05 	sts	0x0537, r24	; 0x800537 <metrology+0x32>
    714a:	90 93 38 05 	sts	0x0538, r25	; 0x800538 <metrology+0x33>
    714e:	89 e0       	ldi	r24, 0x09	; 9
    7150:	80 93 ed 05 	sts	0x05ED, r24	; 0x8005ed <_ZZ17get_zemik_sensorshE12caunter_send>
    7154:	80 91 8d 06 	lds	r24, 0x068D	; 0x80068d <sens_cod>
    7158:	90 91 8e 06 	lds	r25, 0x068E	; 0x80068e <sens_cod+0x1>
    715c:	88 60       	ori	r24, 0x08	; 8
    715e:	90 93 8e 06 	sts	0x068E, r25	; 0x80068e <sens_cod+0x1>
    7162:	80 93 8d 06 	sts	0x068D, r24	; 0x80068d <sens_cod>
    7166:	c4 30       	cpi	r28, 0x04	; 4
          if (amount == 4 && sens_cod == 15){ boolean.data_ok = true; }     }  break;
    7168:	09 f0       	breq	.+2      	; 0x716c <_Z17get_zemik_sensorsh+0x21a>
    716a:	31 c2       	rjmp	.+1122   	; 0x75ce <_Z17get_zemik_sensorsh+0x67c>
    716c:	0f 97       	sbiw	r24, 0x0f	; 15
    716e:	09 f0       	breq	.+2      	; 0x7172 <_Z17get_zemik_sensorsh+0x220>
    7170:	2e c2       	rjmp	.+1116   	; 0x75ce <_Z17get_zemik_sensorsh+0x67c>
    7172:	ea e8       	ldi	r30, 0x8A	; 138
    7174:	f6 e0       	ldi	r31, 0x06	; 6
    7176:	80 81       	ld	r24, Z
    7178:	88 60       	ori	r24, 0x08	; 8
    717a:	80 83       	st	Z, r24
    717c:	28 c2       	rjmp	.+1104   	; 0x75ce <_Z17get_zemik_sensorsh+0x67c>
    717e:	ed e2       	ldi	r30, 0x2D	; 45
          case 9: strcpy_P(str_cpy_buf, (PGM_P)pgm_read_word(&(uart_string[S05])));                     caunter_send ++; uart2_send_string (str_cpy_buf); tim_2 = TIM_TO_UART; break;
    7180:	f7 e0       	ldi	r31, 0x07	; 7
    7182:	65 91       	lpm	r22, Z+
    7184:	74 91       	lpm	r23, Z
    7186:	88 e7       	ldi	r24, 0x78	; 120
    7188:	96 e0       	ldi	r25, 0x06	; 6
    718a:	0e 94 04 46 	call	0x8c08	; 0x8c08 <strcpy_P>
    718e:	80 91 ed 05 	lds	r24, 0x05ED	; 0x8005ed <_ZZ17get_zemik_sensorshE12caunter_send>
    7192:	8f 5f       	subi	r24, 0xFF	; 255
    7194:	80 93 ed 05 	sts	0x05ED, r24	; 0x8005ed <_ZZ17get_zemik_sensorshE12caunter_send>
    7198:	88 e7       	ldi	r24, 0x78	; 120
    719a:	96 e0       	ldi	r25, 0x06	; 6
    719c:	ba de       	rcall	.-652    	; 0x6f12 <_Z17uart2_send_stringPc>
    719e:	88 e8       	ldi	r24, 0x88	; 136
    71a0:	93 e1       	ldi	r25, 0x13	; 19
    71a2:	90 93 35 03 	sts	0x0335, r25	; 0x800335 <tim_2+0x1>
    71a6:	80 93 34 03 	sts	0x0334, r24	; 0x800334 <tim_2>
    71aa:	f1 c1       	rjmp	.+994    	; 0x758e <_Z17get_zemik_sensorsh+0x63c>
          case 10: if (rx2_done){ metrology.cod_sensor5 = parser_buf_zemic (uart2_rx_buf);              caunter_send ++; sens_cod |= 16; }  break;     
    71ac:	80 91 8f 06 	lds	r24, 0x068F	; 0x80068f <rx2_done>
    71b0:	88 23       	and	r24, r24
    71b2:	09 f4       	brne	.+2      	; 0x71b6 <_Z17get_zemik_sensorsh+0x264>
    71b4:	0c c2       	rjmp	.+1048   	; 0x75ce <_Z17get_zemik_sensorsh+0x67c>
    71b6:	82 ef       	ldi	r24, 0xF2	; 242
    71b8:	95 e0       	ldi	r25, 0x05	; 5
    71ba:	25 db       	rcall	.-2486   	; 0x6806 <_Z16parser_buf_zemicPc>
    71bc:	60 93 41 05 	sts	0x0541, r22	; 0x800541 <metrology+0x3c>
    71c0:	70 93 42 05 	sts	0x0542, r23	; 0x800542 <metrology+0x3d>
    71c4:	80 93 43 05 	sts	0x0543, r24	; 0x800543 <metrology+0x3e>
    71c8:	90 93 44 05 	sts	0x0544, r25	; 0x800544 <metrology+0x3f>
    71cc:	8b e0       	ldi	r24, 0x0B	; 11
    71ce:	80 93 ed 05 	sts	0x05ED, r24	; 0x8005ed <_ZZ17get_zemik_sensorshE12caunter_send>
    71d2:	80 91 8d 06 	lds	r24, 0x068D	; 0x80068d <sens_cod>
    71d6:	90 91 8e 06 	lds	r25, 0x068E	; 0x80068e <sens_cod+0x1>
    71da:	80 61       	ori	r24, 0x10	; 16
    71dc:	90 93 8e 06 	sts	0x068E, r25	; 0x80068e <sens_cod+0x1>
    71e0:	80 93 8d 06 	sts	0x068D, r24	; 0x80068d <sens_cod>
    71e4:	f4 c1       	rjmp	.+1000   	; 0x75ce <_Z17get_zemik_sensorsh+0x67c>
    71e6:	ef e2       	ldi	r30, 0x2F	; 47
          case 11:strcpy_P(str_cpy_buf, (PGM_P)pgm_read_word(&(uart_string[S06])));                     caunter_send ++; uart2_send_string (str_cpy_buf); tim_2 = TIM_TO_UART; break;
    71e8:	f7 e0       	ldi	r31, 0x07	; 7
    71ea:	65 91       	lpm	r22, Z+
    71ec:	74 91       	lpm	r23, Z
    71ee:	88 e7       	ldi	r24, 0x78	; 120
    71f0:	96 e0       	ldi	r25, 0x06	; 6
    71f2:	0e 94 04 46 	call	0x8c08	; 0x8c08 <strcpy_P>
    71f6:	80 91 ed 05 	lds	r24, 0x05ED	; 0x8005ed <_ZZ17get_zemik_sensorshE12caunter_send>
    71fa:	8f 5f       	subi	r24, 0xFF	; 255
    71fc:	80 93 ed 05 	sts	0x05ED, r24	; 0x8005ed <_ZZ17get_zemik_sensorshE12caunter_send>
    7200:	88 e7       	ldi	r24, 0x78	; 120
    7202:	96 e0       	ldi	r25, 0x06	; 6
    7204:	86 de       	rcall	.-756    	; 0x6f12 <_Z17uart2_send_stringPc>
    7206:	88 e8       	ldi	r24, 0x88	; 136
    7208:	93 e1       	ldi	r25, 0x13	; 19
    720a:	90 93 35 03 	sts	0x0335, r25	; 0x800335 <tim_2+0x1>
    720e:	80 93 34 03 	sts	0x0334, r24	; 0x800334 <tim_2>
    7212:	bd c1       	rjmp	.+890    	; 0x758e <_Z17get_zemik_sensorsh+0x63c>
          case 12: if (rx2_done){ metrology.cod_sensor6 = parser_buf_zemic (uart2_rx_buf);              caunter_send ++; sens_cod |= 32;\
    7214:	80 91 8f 06 	lds	r24, 0x068F	; 0x80068f <rx2_done>
    7218:	88 23       	and	r24, r24
    721a:	09 f4       	brne	.+2      	; 0x721e <_Z17get_zemik_sensorsh+0x2cc>
    721c:	d8 c1       	rjmp	.+944    	; 0x75ce <_Z17get_zemik_sensorsh+0x67c>
    721e:	82 ef       	ldi	r24, 0xF2	; 242
    7220:	95 e0       	ldi	r25, 0x05	; 5
    7222:	f1 da       	rcall	.-2590   	; 0x6806 <_Z16parser_buf_zemicPc>
    7224:	60 93 4d 05 	sts	0x054D, r22	; 0x80054d <metrology+0x48>
    7228:	70 93 4e 05 	sts	0x054E, r23	; 0x80054e <metrology+0x49>
    722c:	80 93 4f 05 	sts	0x054F, r24	; 0x80054f <metrology+0x4a>
    7230:	90 93 50 05 	sts	0x0550, r25	; 0x800550 <metrology+0x4b>
    7234:	8d e0       	ldi	r24, 0x0D	; 13
    7236:	80 93 ed 05 	sts	0x05ED, r24	; 0x8005ed <_ZZ17get_zemik_sensorshE12caunter_send>
    723a:	80 91 8d 06 	lds	r24, 0x068D	; 0x80068d <sens_cod>
    723e:	90 91 8e 06 	lds	r25, 0x068E	; 0x80068e <sens_cod+0x1>
    7242:	80 62       	ori	r24, 0x20	; 32
    7244:	90 93 8e 06 	sts	0x068E, r25	; 0x80068e <sens_cod+0x1>
    7248:	80 93 8d 06 	sts	0x068D, r24	; 0x80068d <sens_cod>
    724c:	c6 30       	cpi	r28, 0x06	; 6
          if (amount == 6 && sens_cod == 63){boolean.data_ok = true; }     }  break;
    724e:	09 f0       	breq	.+2      	; 0x7252 <_Z17get_zemik_sensorsh+0x300>
    7250:	be c1       	rjmp	.+892    	; 0x75ce <_Z17get_zemik_sensorsh+0x67c>
    7252:	cf 97       	sbiw	r24, 0x3f	; 63
    7254:	09 f0       	breq	.+2      	; 0x7258 <_Z17get_zemik_sensorsh+0x306>
    7256:	bb c1       	rjmp	.+886    	; 0x75ce <_Z17get_zemik_sensorsh+0x67c>
    7258:	ea e8       	ldi	r30, 0x8A	; 138
    725a:	f6 e0       	ldi	r31, 0x06	; 6
    725c:	80 81       	ld	r24, Z
    725e:	88 60       	ori	r24, 0x08	; 8
    7260:	80 83       	st	Z, r24
    7262:	b5 c1       	rjmp	.+874    	; 0x75ce <_Z17get_zemik_sensorsh+0x67c>
    7264:	e1 e3       	ldi	r30, 0x31	; 49
          case 13: strcpy_P(str_cpy_buf, (PGM_P)pgm_read_word(&(uart_string[S07])));                    caunter_send ++; uart2_send_string (str_cpy_buf); tim_2 = TIM_TO_UART; break;
    7266:	f7 e0       	ldi	r31, 0x07	; 7
    7268:	65 91       	lpm	r22, Z+
    726a:	74 91       	lpm	r23, Z
    726c:	88 e7       	ldi	r24, 0x78	; 120
    726e:	96 e0       	ldi	r25, 0x06	; 6
    7270:	0e 94 04 46 	call	0x8c08	; 0x8c08 <strcpy_P>
    7274:	80 91 ed 05 	lds	r24, 0x05ED	; 0x8005ed <_ZZ17get_zemik_sensorshE12caunter_send>
    7278:	8f 5f       	subi	r24, 0xFF	; 255
    727a:	80 93 ed 05 	sts	0x05ED, r24	; 0x8005ed <_ZZ17get_zemik_sensorshE12caunter_send>
    727e:	88 e7       	ldi	r24, 0x78	; 120
    7280:	96 e0       	ldi	r25, 0x06	; 6
    7282:	47 de       	rcall	.-882    	; 0x6f12 <_Z17uart2_send_stringPc>
    7284:	88 e8       	ldi	r24, 0x88	; 136
    7286:	93 e1       	ldi	r25, 0x13	; 19
    7288:	90 93 35 03 	sts	0x0335, r25	; 0x800335 <tim_2+0x1>
    728c:	80 93 34 03 	sts	0x0334, r24	; 0x800334 <tim_2>
    7290:	7e c1       	rjmp	.+764    	; 0x758e <_Z17get_zemik_sensorsh+0x63c>
          case 14: if (rx2_done){ metrology.cod_sensor7 = parser_buf_zemic (uart2_rx_buf);              caunter_send ++; sens_cod |= 64; }  break;
    7292:	80 91 8f 06 	lds	r24, 0x068F	; 0x80068f <rx2_done>
    7296:	88 23       	and	r24, r24
    7298:	09 f4       	brne	.+2      	; 0x729c <_Z17get_zemik_sensorsh+0x34a>
    729a:	99 c1       	rjmp	.+818    	; 0x75ce <_Z17get_zemik_sensorsh+0x67c>
    729c:	82 ef       	ldi	r24, 0xF2	; 242
    729e:	95 e0       	ldi	r25, 0x05	; 5
    72a0:	b2 da       	rcall	.-2716   	; 0x6806 <_Z16parser_buf_zemicPc>
    72a2:	60 93 59 05 	sts	0x0559, r22	; 0x800559 <metrology+0x54>
    72a6:	70 93 5a 05 	sts	0x055A, r23	; 0x80055a <metrology+0x55>
    72aa:	80 93 5b 05 	sts	0x055B, r24	; 0x80055b <metrology+0x56>
    72ae:	90 93 5c 05 	sts	0x055C, r25	; 0x80055c <metrology+0x57>
    72b2:	8f e0       	ldi	r24, 0x0F	; 15
    72b4:	80 93 ed 05 	sts	0x05ED, r24	; 0x8005ed <_ZZ17get_zemik_sensorshE12caunter_send>
    72b8:	80 91 8d 06 	lds	r24, 0x068D	; 0x80068d <sens_cod>
    72bc:	90 91 8e 06 	lds	r25, 0x068E	; 0x80068e <sens_cod+0x1>
    72c0:	80 64       	ori	r24, 0x40	; 64
    72c2:	90 93 8e 06 	sts	0x068E, r25	; 0x80068e <sens_cod+0x1>
    72c6:	80 93 8d 06 	sts	0x068D, r24	; 0x80068d <sens_cod>
    72ca:	81 c1       	rjmp	.+770    	; 0x75ce <_Z17get_zemik_sensorsh+0x67c>
    72cc:	e3 e3       	ldi	r30, 0x33	; 51
          case 15: strcpy_P(str_cpy_buf, (PGM_P)pgm_read_word(&(uart_string[S08])));                    caunter_send ++; uart2_send_string (str_cpy_buf); tim_2 = TIM_TO_UART; break;
    72ce:	f7 e0       	ldi	r31, 0x07	; 7
    72d0:	65 91       	lpm	r22, Z+
    72d2:	74 91       	lpm	r23, Z
    72d4:	88 e7       	ldi	r24, 0x78	; 120
    72d6:	96 e0       	ldi	r25, 0x06	; 6
    72d8:	0e 94 04 46 	call	0x8c08	; 0x8c08 <strcpy_P>
    72dc:	80 91 ed 05 	lds	r24, 0x05ED	; 0x8005ed <_ZZ17get_zemik_sensorshE12caunter_send>
    72e0:	8f 5f       	subi	r24, 0xFF	; 255
    72e2:	80 93 ed 05 	sts	0x05ED, r24	; 0x8005ed <_ZZ17get_zemik_sensorshE12caunter_send>
    72e6:	88 e7       	ldi	r24, 0x78	; 120
    72e8:	96 e0       	ldi	r25, 0x06	; 6
    72ea:	13 de       	rcall	.-986    	; 0x6f12 <_Z17uart2_send_stringPc>
    72ec:	88 e8       	ldi	r24, 0x88	; 136
    72ee:	93 e1       	ldi	r25, 0x13	; 19
    72f0:	90 93 35 03 	sts	0x0335, r25	; 0x800335 <tim_2+0x1>
    72f4:	80 93 34 03 	sts	0x0334, r24	; 0x800334 <tim_2>
    72f8:	4a c1       	rjmp	.+660    	; 0x758e <_Z17get_zemik_sensorsh+0x63c>
          case 16: if (rx2_done){ metrology.cod_sensor8 = parser_buf_zemic (uart2_rx_buf);              caunter_send ++; sens_cod |= 128;\
    72fa:	80 91 8f 06 	lds	r24, 0x068F	; 0x80068f <rx2_done>
    72fe:	88 23       	and	r24, r24
    7300:	09 f4       	brne	.+2      	; 0x7304 <_Z17get_zemik_sensorsh+0x3b2>
    7302:	65 c1       	rjmp	.+714    	; 0x75ce <_Z17get_zemik_sensorsh+0x67c>
    7304:	82 ef       	ldi	r24, 0xF2	; 242
    7306:	95 e0       	ldi	r25, 0x05	; 5
    7308:	7e da       	rcall	.-2820   	; 0x6806 <_Z16parser_buf_zemicPc>
    730a:	60 93 65 05 	sts	0x0565, r22	; 0x800565 <metrology+0x60>
    730e:	70 93 66 05 	sts	0x0566, r23	; 0x800566 <metrology+0x61>
    7312:	80 93 67 05 	sts	0x0567, r24	; 0x800567 <metrology+0x62>
    7316:	90 93 68 05 	sts	0x0568, r25	; 0x800568 <metrology+0x63>
    731a:	81 e1       	ldi	r24, 0x11	; 17
    731c:	80 93 ed 05 	sts	0x05ED, r24	; 0x8005ed <_ZZ17get_zemik_sensorshE12caunter_send>
    7320:	80 91 8d 06 	lds	r24, 0x068D	; 0x80068d <sens_cod>
    7324:	90 91 8e 06 	lds	r25, 0x068E	; 0x80068e <sens_cod+0x1>
    7328:	80 68       	ori	r24, 0x80	; 128
    732a:	90 93 8e 06 	sts	0x068E, r25	; 0x80068e <sens_cod+0x1>
    732e:	80 93 8d 06 	sts	0x068D, r24	; 0x80068d <sens_cod>
    7332:	c8 30       	cpi	r28, 0x08	; 8
          if (amount == 8 && sens_cod == 255){ boolean.data_ok = true; }   }  break;    
    7334:	09 f0       	breq	.+2      	; 0x7338 <_Z17get_zemik_sensorsh+0x3e6>
    7336:	4b c1       	rjmp	.+662    	; 0x75ce <_Z17get_zemik_sensorsh+0x67c>
    7338:	8f 3f       	cpi	r24, 0xFF	; 255
    733a:	91 05       	cpc	r25, r1
    733c:	09 f0       	breq	.+2      	; 0x7340 <_Z17get_zemik_sensorsh+0x3ee>
    733e:	47 c1       	rjmp	.+654    	; 0x75ce <_Z17get_zemik_sensorsh+0x67c>
    7340:	ea e8       	ldi	r30, 0x8A	; 138
    7342:	f6 e0       	ldi	r31, 0x06	; 6
    7344:	80 81       	ld	r24, Z
    7346:	88 60       	ori	r24, 0x08	; 8
    7348:	80 83       	st	Z, r24
    734a:	41 c1       	rjmp	.+642    	; 0x75ce <_Z17get_zemik_sensorsh+0x67c>
          case 17: strcpy_P(str_cpy_buf, (PGM_P)pgm_read_word(&(uart_string[S09])));                    caunter_send ++; uart2_send_string (str_cpy_buf); tim_2 = TIM_TO_UART; break;    
    734c:	e5 e3       	ldi	r30, 0x35	; 53
    734e:	f7 e0       	ldi	r31, 0x07	; 7
    7350:	65 91       	lpm	r22, Z+
    7352:	74 91       	lpm	r23, Z
    7354:	88 e7       	ldi	r24, 0x78	; 120
    7356:	96 e0       	ldi	r25, 0x06	; 6
    7358:	0e 94 04 46 	call	0x8c08	; 0x8c08 <strcpy_P>
    735c:	80 91 ed 05 	lds	r24, 0x05ED	; 0x8005ed <_ZZ17get_zemik_sensorshE12caunter_send>
    7360:	8f 5f       	subi	r24, 0xFF	; 255
    7362:	80 93 ed 05 	sts	0x05ED, r24	; 0x8005ed <_ZZ17get_zemik_sensorshE12caunter_send>
    7366:	88 e7       	ldi	r24, 0x78	; 120
    7368:	96 e0       	ldi	r25, 0x06	; 6
    736a:	d3 dd       	rcall	.-1114   	; 0x6f12 <_Z17uart2_send_stringPc>
    736c:	88 e8       	ldi	r24, 0x88	; 136
    736e:	93 e1       	ldi	r25, 0x13	; 19
    7370:	90 93 35 03 	sts	0x0335, r25	; 0x800335 <tim_2+0x1>
    7374:	80 93 34 03 	sts	0x0334, r24	; 0x800334 <tim_2>
    7378:	0a c1       	rjmp	.+532    	; 0x758e <_Z17get_zemik_sensorsh+0x63c>
          case 18: if (rx2_done){ metrology.cod_sensor9 = parser_buf_zemic (uart2_rx_buf);              caunter_send ++; sens_cod |= 256;}  break; 
    737a:	80 91 8f 06 	lds	r24, 0x068F	; 0x80068f <rx2_done>
    737e:	88 23       	and	r24, r24
    7380:	09 f4       	brne	.+2      	; 0x7384 <_Z17get_zemik_sensorsh+0x432>
    7382:	25 c1       	rjmp	.+586    	; 0x75ce <_Z17get_zemik_sensorsh+0x67c>
    7384:	82 ef       	ldi	r24, 0xF2	; 242
    7386:	95 e0       	ldi	r25, 0x05	; 5
    7388:	3e da       	rcall	.-2948   	; 0x6806 <_Z16parser_buf_zemicPc>
    738a:	60 93 71 05 	sts	0x0571, r22	; 0x800571 <metrology+0x6c>
    738e:	70 93 72 05 	sts	0x0572, r23	; 0x800572 <metrology+0x6d>
    7392:	80 93 73 05 	sts	0x0573, r24	; 0x800573 <metrology+0x6e>
    7396:	90 93 74 05 	sts	0x0574, r25	; 0x800574 <metrology+0x6f>
    739a:	83 e1       	ldi	r24, 0x13	; 19
    739c:	80 93 ed 05 	sts	0x05ED, r24	; 0x8005ed <_ZZ17get_zemik_sensorshE12caunter_send>
    73a0:	80 91 8d 06 	lds	r24, 0x068D	; 0x80068d <sens_cod>
    73a4:	90 91 8e 06 	lds	r25, 0x068E	; 0x80068e <sens_cod+0x1>
    73a8:	91 60       	ori	r25, 0x01	; 1
    73aa:	90 93 8e 06 	sts	0x068E, r25	; 0x80068e <sens_cod+0x1>
    73ae:	80 93 8d 06 	sts	0x068D, r24	; 0x80068d <sens_cod>
    73b2:	0d c1       	rjmp	.+538    	; 0x75ce <_Z17get_zemik_sensorsh+0x67c>
          case 19: strcpy_P(str_cpy_buf, (PGM_P)pgm_read_word(&(uart_string[S10])));                    caunter_send ++; uart2_send_string (str_cpy_buf); tim_2 = TIM_TO_UART; break;  
    73b4:	e7 e3       	ldi	r30, 0x37	; 55
    73b6:	f7 e0       	ldi	r31, 0x07	; 7
    73b8:	65 91       	lpm	r22, Z+
    73ba:	74 91       	lpm	r23, Z
    73bc:	88 e7       	ldi	r24, 0x78	; 120
    73be:	96 e0       	ldi	r25, 0x06	; 6
    73c0:	0e 94 04 46 	call	0x8c08	; 0x8c08 <strcpy_P>
    73c4:	80 91 ed 05 	lds	r24, 0x05ED	; 0x8005ed <_ZZ17get_zemik_sensorshE12caunter_send>
    73c8:	8f 5f       	subi	r24, 0xFF	; 255
    73ca:	80 93 ed 05 	sts	0x05ED, r24	; 0x8005ed <_ZZ17get_zemik_sensorshE12caunter_send>
    73ce:	88 e7       	ldi	r24, 0x78	; 120
    73d0:	96 e0       	ldi	r25, 0x06	; 6
    73d2:	9f dd       	rcall	.-1218   	; 0x6f12 <_Z17uart2_send_stringPc>
    73d4:	88 e8       	ldi	r24, 0x88	; 136
    73d6:	93 e1       	ldi	r25, 0x13	; 19
    73d8:	90 93 35 03 	sts	0x0335, r25	; 0x800335 <tim_2+0x1>
    73dc:	80 93 34 03 	sts	0x0334, r24	; 0x800334 <tim_2>
    73e0:	d6 c0       	rjmp	.+428    	; 0x758e <_Z17get_zemik_sensorsh+0x63c>
          case 20: if (rx2_done){ metrology.cod_sensor10 = parser_buf_zemic (uart2_rx_buf);             caunter_send ++; sens_cod |= 512;\
    73e2:	80 91 8f 06 	lds	r24, 0x068F	; 0x80068f <rx2_done>
    73e6:	88 23       	and	r24, r24
    73e8:	09 f4       	brne	.+2      	; 0x73ec <_Z17get_zemik_sensorsh+0x49a>
    73ea:	f1 c0       	rjmp	.+482    	; 0x75ce <_Z17get_zemik_sensorsh+0x67c>
    73ec:	82 ef       	ldi	r24, 0xF2	; 242
    73ee:	95 e0       	ldi	r25, 0x05	; 5
    73f0:	0a da       	rcall	.-3052   	; 0x6806 <_Z16parser_buf_zemicPc>
    73f2:	60 93 7d 05 	sts	0x057D, r22	; 0x80057d <metrology+0x78>
    73f6:	70 93 7e 05 	sts	0x057E, r23	; 0x80057e <metrology+0x79>
    73fa:	80 93 7f 05 	sts	0x057F, r24	; 0x80057f <metrology+0x7a>
    73fe:	90 93 80 05 	sts	0x0580, r25	; 0x800580 <metrology+0x7b>
    7402:	85 e1       	ldi	r24, 0x15	; 21
    7404:	80 93 ed 05 	sts	0x05ED, r24	; 0x8005ed <_ZZ17get_zemik_sensorshE12caunter_send>
    7408:	80 91 8d 06 	lds	r24, 0x068D	; 0x80068d <sens_cod>
    740c:	90 91 8e 06 	lds	r25, 0x068E	; 0x80068e <sens_cod+0x1>
    7410:	92 60       	ori	r25, 0x02	; 2
    7412:	90 93 8e 06 	sts	0x068E, r25	; 0x80068e <sens_cod+0x1>
    7416:	80 93 8d 06 	sts	0x068D, r24	; 0x80068d <sens_cod>
    741a:	ca 30       	cpi	r28, 0x0A	; 10
          if (amount == 10 && sens_cod == 1023){boolean.data_ok = true; }  }  break;       
    741c:	09 f0       	breq	.+2      	; 0x7420 <_Z17get_zemik_sensorsh+0x4ce>
    741e:	d7 c0       	rjmp	.+430    	; 0x75ce <_Z17get_zemik_sensorsh+0x67c>
    7420:	8f 3f       	cpi	r24, 0xFF	; 255
    7422:	93 40       	sbci	r25, 0x03	; 3
    7424:	09 f0       	breq	.+2      	; 0x7428 <_Z17get_zemik_sensorsh+0x4d6>
    7426:	d3 c0       	rjmp	.+422    	; 0x75ce <_Z17get_zemik_sensorsh+0x67c>
    7428:	ea e8       	ldi	r30, 0x8A	; 138
    742a:	f6 e0       	ldi	r31, 0x06	; 6
    742c:	80 81       	ld	r24, Z
    742e:	88 60       	ori	r24, 0x08	; 8
    7430:	80 83       	st	Z, r24
    7432:	cd c0       	rjmp	.+410    	; 0x75ce <_Z17get_zemik_sensorsh+0x67c>
          case 21: strcpy_P(str_cpy_buf, (PGM_P)pgm_read_word(&(uart_string[S11])));                    caunter_send ++; uart2_send_string (str_cpy_buf); tim_2 = TIM_TO_UART; break;    
    7434:	e9 e3       	ldi	r30, 0x39	; 57
    7436:	f7 e0       	ldi	r31, 0x07	; 7
    7438:	65 91       	lpm	r22, Z+
    743a:	74 91       	lpm	r23, Z
    743c:	88 e7       	ldi	r24, 0x78	; 120
    743e:	96 e0       	ldi	r25, 0x06	; 6
    7440:	0e 94 04 46 	call	0x8c08	; 0x8c08 <strcpy_P>
    7444:	80 91 ed 05 	lds	r24, 0x05ED	; 0x8005ed <_ZZ17get_zemik_sensorshE12caunter_send>
    7448:	8f 5f       	subi	r24, 0xFF	; 255
    744a:	80 93 ed 05 	sts	0x05ED, r24	; 0x8005ed <_ZZ17get_zemik_sensorshE12caunter_send>
    744e:	88 e7       	ldi	r24, 0x78	; 120
    7450:	96 e0       	ldi	r25, 0x06	; 6
    7452:	5f dd       	rcall	.-1346   	; 0x6f12 <_Z17uart2_send_stringPc>
    7454:	88 e8       	ldi	r24, 0x88	; 136
    7456:	93 e1       	ldi	r25, 0x13	; 19
    7458:	90 93 35 03 	sts	0x0335, r25	; 0x800335 <tim_2+0x1>
    745c:	80 93 34 03 	sts	0x0334, r24	; 0x800334 <tim_2>
    7460:	96 c0       	rjmp	.+300    	; 0x758e <_Z17get_zemik_sensorsh+0x63c>
          case 22: if (rx2_done){ metrology.cod_sensor11 = parser_buf_zemic (uart2_rx_buf);             caunter_send ++; sens_cod |= 1024;}  break; 
    7462:	80 91 8f 06 	lds	r24, 0x068F	; 0x80068f <rx2_done>
    7466:	88 23       	and	r24, r24
    7468:	09 f4       	brne	.+2      	; 0x746c <_Z17get_zemik_sensorsh+0x51a>
    746a:	b1 c0       	rjmp	.+354    	; 0x75ce <_Z17get_zemik_sensorsh+0x67c>
    746c:	82 ef       	ldi	r24, 0xF2	; 242
    746e:	95 e0       	ldi	r25, 0x05	; 5
    7470:	ca d9       	rcall	.-3180   	; 0x6806 <_Z16parser_buf_zemicPc>
    7472:	60 93 89 05 	sts	0x0589, r22	; 0x800589 <metrology+0x84>
    7476:	70 93 8a 05 	sts	0x058A, r23	; 0x80058a <metrology+0x85>
    747a:	80 93 8b 05 	sts	0x058B, r24	; 0x80058b <metrology+0x86>
    747e:	90 93 8c 05 	sts	0x058C, r25	; 0x80058c <metrology+0x87>
    7482:	87 e1       	ldi	r24, 0x17	; 23
    7484:	80 93 ed 05 	sts	0x05ED, r24	; 0x8005ed <_ZZ17get_zemik_sensorshE12caunter_send>
    7488:	80 91 8d 06 	lds	r24, 0x068D	; 0x80068d <sens_cod>
    748c:	90 91 8e 06 	lds	r25, 0x068E	; 0x80068e <sens_cod+0x1>
    7490:	94 60       	ori	r25, 0x04	; 4
    7492:	90 93 8e 06 	sts	0x068E, r25	; 0x80068e <sens_cod+0x1>
    7496:	80 93 8d 06 	sts	0x068D, r24	; 0x80068d <sens_cod>
    749a:	99 c0       	rjmp	.+306    	; 0x75ce <_Z17get_zemik_sensorsh+0x67c>
          case 23: strcpy_P(str_cpy_buf, (PGM_P)pgm_read_word(&(uart_string[S12])));                    caunter_send ++; uart2_send_string (str_cpy_buf); tim_2 = TIM_TO_UART; break;     
    749c:	eb e3       	ldi	r30, 0x3B	; 59
    749e:	f7 e0       	ldi	r31, 0x07	; 7
    74a0:	65 91       	lpm	r22, Z+
    74a2:	74 91       	lpm	r23, Z
    74a4:	88 e7       	ldi	r24, 0x78	; 120
    74a6:	96 e0       	ldi	r25, 0x06	; 6
    74a8:	0e 94 04 46 	call	0x8c08	; 0x8c08 <strcpy_P>
    74ac:	80 91 ed 05 	lds	r24, 0x05ED	; 0x8005ed <_ZZ17get_zemik_sensorshE12caunter_send>
    74b0:	8f 5f       	subi	r24, 0xFF	; 255
    74b2:	80 93 ed 05 	sts	0x05ED, r24	; 0x8005ed <_ZZ17get_zemik_sensorshE12caunter_send>
    74b6:	88 e7       	ldi	r24, 0x78	; 120
    74b8:	96 e0       	ldi	r25, 0x06	; 6
    74ba:	2b dd       	rcall	.-1450   	; 0x6f12 <_Z17uart2_send_stringPc>
    74bc:	88 e8       	ldi	r24, 0x88	; 136
    74be:	93 e1       	ldi	r25, 0x13	; 19
    74c0:	90 93 35 03 	sts	0x0335, r25	; 0x800335 <tim_2+0x1>
    74c4:	80 93 34 03 	sts	0x0334, r24	; 0x800334 <tim_2>
    74c8:	62 c0       	rjmp	.+196    	; 0x758e <_Z17get_zemik_sensorsh+0x63c>
          case 24: if (rx2_done){ metrology.cod_sensor12 = parser_buf_zemic (uart2_rx_buf);             caunter_send ++; sens_cod |= 2048;\
    74ca:	80 91 8f 06 	lds	r24, 0x068F	; 0x80068f <rx2_done>
    74ce:	88 23       	and	r24, r24
    74d0:	09 f4       	brne	.+2      	; 0x74d4 <_Z17get_zemik_sensorsh+0x582>
    74d2:	72 c0       	rjmp	.+228    	; 0x75b8 <_Z17get_zemik_sensorsh+0x666>
    74d4:	82 ef       	ldi	r24, 0xF2	; 242
    74d6:	95 e0       	ldi	r25, 0x05	; 5
    74d8:	96 d9       	rcall	.-3284   	; 0x6806 <_Z16parser_buf_zemicPc>
    74da:	60 93 95 05 	sts	0x0595, r22	; 0x800595 <metrology+0x90>
    74de:	70 93 96 05 	sts	0x0596, r23	; 0x800596 <metrology+0x91>
    74e2:	80 93 97 05 	sts	0x0597, r24	; 0x800597 <metrology+0x92>
    74e6:	90 93 98 05 	sts	0x0598, r25	; 0x800598 <metrology+0x93>
    74ea:	89 e1       	ldi	r24, 0x19	; 25
    74ec:	80 93 ed 05 	sts	0x05ED, r24	; 0x8005ed <_ZZ17get_zemik_sensorshE12caunter_send>
    74f0:	80 91 8d 06 	lds	r24, 0x068D	; 0x80068d <sens_cod>
    74f4:	90 91 8e 06 	lds	r25, 0x068E	; 0x80068e <sens_cod+0x1>
    74f8:	98 60       	ori	r25, 0x08	; 8
    74fa:	90 93 8e 06 	sts	0x068E, r25	; 0x80068e <sens_cod+0x1>
    74fe:	80 93 8d 06 	sts	0x068D, r24	; 0x80068d <sens_cod>
    7502:	cc 30       	cpi	r28, 0x0C	; 12
          if (amount == 12 && sens_cod == 4095){boolean.data_ok = true; }  }  break;
    7504:	09 f0       	breq	.+2      	; 0x7508 <_Z17get_zemik_sensorsh+0x5b6>
    7506:	58 c0       	rjmp	.+176    	; 0x75b8 <_Z17get_zemik_sensorsh+0x666>
    7508:	8f 3f       	cpi	r24, 0xFF	; 255
    750a:	9f 40       	sbci	r25, 0x0F	; 15
    750c:	09 f0       	breq	.+2      	; 0x7510 <_Z17get_zemik_sensorsh+0x5be>
    750e:	54 c0       	rjmp	.+168    	; 0x75b8 <_Z17get_zemik_sensorsh+0x666>
    7510:	ea e8       	ldi	r30, 0x8A	; 138
    7512:	f6 e0       	ldi	r31, 0x06	; 6
    7514:	80 81       	ld	r24, Z
    7516:	88 60       	ori	r24, 0x08	; 8
    7518:	80 83       	st	Z, r24
    751a:	4e c0       	rjmp	.+156    	; 0x75b8 <_Z17get_zemik_sensorsh+0x666>
    751c:	20 91 34 03 	lds	r18, 0x0334	; 0x800334 <tim_2>
     }
     
        if (tim_2 == 0 ) {  if(caunter_send < 24){caunter_send ++;} else {caunter_send = 0; sens_cod_led = sens_cod; sens_cod = 0;if (boolean.caunt_err < 5) boolean.caunt_err ++; if (boolean.caunt_err > 1){ boolean.errors = 1;}}}
    7520:	30 91 35 03 	lds	r19, 0x0335	; 0x800335 <tim_2+0x1>
    7524:	23 2b       	or	r18, r19
    7526:	99 f5       	brne	.+102    	; 0x758e <_Z17get_zemik_sensorsh+0x63c>
    7528:	98 31       	cpi	r25, 0x18	; 24
    752a:	20 f4       	brcc	.+8      	; 0x7534 <_Z17get_zemik_sensorsh+0x5e2>
    752c:	9f 5f       	subi	r25, 0xFF	; 255
    752e:	90 93 ed 05 	sts	0x05ED, r25	; 0x8005ed <_ZZ17get_zemik_sensorshE12caunter_send>
    7532:	2d c0       	rjmp	.+90     	; 0x758e <_Z17get_zemik_sensorsh+0x63c>
    7534:	10 92 ed 05 	sts	0x05ED, r1	; 0x8005ed <_ZZ17get_zemik_sensorshE12caunter_send>
    7538:	80 91 8d 06 	lds	r24, 0x068D	; 0x80068d <sens_cod>
    753c:	90 91 8e 06 	lds	r25, 0x068E	; 0x80068e <sens_cod+0x1>
    7540:	90 93 8c 06 	sts	0x068C, r25	; 0x80068c <sens_cod_led+0x1>
    7544:	80 93 8b 06 	sts	0x068B, r24	; 0x80068b <sens_cod_led>
    7548:	10 92 8e 06 	sts	0x068E, r1	; 0x80068e <sens_cod+0x1>
    754c:	10 92 8d 06 	sts	0x068D, r1	; 0x80068d <sens_cod>
    7550:	80 91 88 06 	lds	r24, 0x0688	; 0x800688 <boolean+0x1>
    7554:	86 95       	lsr	r24
    7556:	87 70       	andi	r24, 0x07	; 7
    7558:	28 2f       	mov	r18, r24
    755a:	30 e0       	ldi	r19, 0x00	; 0
    755c:	25 30       	cpi	r18, 0x05	; 5
    755e:	31 05       	cpc	r19, r1
    7560:	54 f4       	brge	.+20     	; 0x7576 <_Z17get_zemik_sensorsh+0x624>
    7562:	8f 5f       	subi	r24, 0xFF	; 255
    7564:	87 70       	andi	r24, 0x07	; 7
    7566:	e8 e8       	ldi	r30, 0x88	; 136
    7568:	f6 e0       	ldi	r31, 0x06	; 6
    756a:	98 2f       	mov	r25, r24
    756c:	99 0f       	add	r25, r25
    756e:	80 81       	ld	r24, Z
    7570:	81 7f       	andi	r24, 0xF1	; 241
    7572:	89 2b       	or	r24, r25
    7574:	80 83       	st	Z, r24
    7576:	80 91 88 06 	lds	r24, 0x0688	; 0x800688 <boolean+0x1>
    757a:	86 95       	lsr	r24
    757c:	87 70       	andi	r24, 0x07	; 7
    757e:	90 e0       	ldi	r25, 0x00	; 0
    7580:	02 97       	sbiw	r24, 0x02	; 2
    7582:	2c f0       	brlt	.+10     	; 0x758e <_Z17get_zemik_sensorsh+0x63c>
    7584:	e7 e8       	ldi	r30, 0x87	; 135
    7586:	f6 e0       	ldi	r31, 0x06	; 6
    7588:	80 81       	ld	r24, Z
    758a:	81 60       	ori	r24, 0x01	; 1
    758c:	80 83       	st	Z, r24
    758e:	80 91 8a 06 	lds	r24, 0x068A	; 0x80068a <boolean+0x3>
        // если таймер отсчелкал значит чтото не ладно, начинаем увеличивать счетчик чтоб ерр показать не сразу, а так же смотрим что у нас с счетчиком если мы уже на 24 кейсе, сбрасываем в ноль, копируем какие датчики в ошибке и сбрасываем     
        if (boolean.data_ok) { boolean.errors = 0; boolean.caunt_err = 0; sens_cod = 0; caunter_send = 0; }
    7592:	83 ff       	sbrs	r24, 3
    7594:	23 c0       	rjmp	.+70     	; 0x75dc <_Z17get_zemik_sensorsh+0x68a>
    7596:	e7 e8       	ldi	r30, 0x87	; 135
    7598:	f6 e0       	ldi	r31, 0x06	; 6
    759a:	80 81       	ld	r24, Z
    759c:	8e 7f       	andi	r24, 0xFE	; 254
    759e:	80 83       	st	Z, r24
    75a0:	e8 e8       	ldi	r30, 0x88	; 136
    75a2:	f6 e0       	ldi	r31, 0x06	; 6
    75a4:	80 81       	ld	r24, Z
    75a6:	81 7f       	andi	r24, 0xF1	; 241
    75a8:	80 83       	st	Z, r24
    75aa:	10 92 8e 06 	sts	0x068E, r1	; 0x80068e <sens_cod+0x1>
    75ae:	10 92 8d 06 	sts	0x068D, r1	; 0x80068d <sens_cod>
    75b2:	10 92 ed 05 	sts	0x05ED, r1	; 0x8005ed <_ZZ17get_zemik_sensorshE12caunter_send>
    75b6:	12 c0       	rjmp	.+36     	; 0x75dc <_Z17get_zemik_sensorsh+0x68a>
        // эта функция позволяет не занимать процессорное время, а заходить сюда, выполнять один кейс и дальше заниматься своими делами. и например если очень часто заходить то ничего не будет, так как мы ждем подтверждений  
}               
    75b8:	80 91 34 03 	lds	r24, 0x0334	; 0x800334 <tim_2>
          case 23: strcpy_P(str_cpy_buf, (PGM_P)pgm_read_word(&(uart_string[S12])));                    caunter_send ++; uart2_send_string (str_cpy_buf); tim_2 = TIM_TO_UART; break;     
          case 24: if (rx2_done){ metrology.cod_sensor12 = parser_buf_zemic (uart2_rx_buf);             caunter_send ++; sens_cod |= 2048;\
          if (amount == 12 && sens_cod == 4095){boolean.data_ok = true; }  }  break;
     }
     
        if (tim_2 == 0 ) {  if(caunter_send < 24){caunter_send ++;} else {caunter_send = 0; sens_cod_led = sens_cod; sens_cod = 0;if (boolean.caunt_err < 5) boolean.caunt_err ++; if (boolean.caunt_err > 1){ boolean.errors = 1;}}}
    75bc:	90 91 35 03 	lds	r25, 0x0335	; 0x800335 <tim_2+0x1>
    75c0:	89 2b       	or	r24, r25
    75c2:	09 f4       	brne	.+2      	; 0x75c6 <_Z17get_zemik_sensorsh+0x674>
    75c4:	b7 cf       	rjmp	.-146    	; 0x7534 <_Z17get_zemik_sensorsh+0x5e2>
    75c6:	e3 cf       	rjmp	.-58     	; 0x758e <_Z17get_zemik_sensorsh+0x63c>
    75c8:	90 91 ed 05 	lds	r25, 0x05ED	; 0x8005ed <_ZZ17get_zemik_sensorshE12caunter_send>
    75cc:	af cf       	rjmp	.-162    	; 0x752c <_Z17get_zemik_sensorsh+0x5da>
    75ce:	80 91 34 03 	lds	r24, 0x0334	; 0x800334 <tim_2>
    75d2:	90 91 35 03 	lds	r25, 0x0335	; 0x800335 <tim_2+0x1>
    75d6:	89 2b       	or	r24, r25
    75d8:	b9 f3       	breq	.-18     	; 0x75c8 <_Z17get_zemik_sensorsh+0x676>
    75da:	d9 cf       	rjmp	.-78     	; 0x758e <_Z17get_zemik_sensorsh+0x63c>
    75dc:	cf 91       	pop	r28
        // если таймер отсчелкал значит чтото не ладно, начинаем увеличивать счетчик чтоб ерр показать не сразу, а так же смотрим что у нас с счетчиком если мы уже на 24 кейсе, сбрасываем в ноль, копируем какие датчики в ошибке и сбрасываем     
        if (boolean.data_ok) { boolean.errors = 0; boolean.caunt_err = 0; sens_cod = 0; caunter_send = 0; }
        // эта функция позволяет не занимать процессорное время, а заходить сюда, выполнять один кейс и дальше заниматься своими делами. и например если очень часто заходить то ничего не будет, так как мы ждем подтверждений  
}               
    75de:	08 95       	ret

000075e0 <_Z17get_number_sensorv>:
    75e0:	2f 92       	push	r2

uint8_t get_number_sensor (void)
{
    75e2:	3f 92       	push	r3
    75e4:	4f 92       	push	r4
    75e6:	5f 92       	push	r5
    75e8:	6f 92       	push	r6
    75ea:	7f 92       	push	r7
    75ec:	8f 92       	push	r8
    75ee:	9f 92       	push	r9
    75f0:	af 92       	push	r10
    75f2:	bf 92       	push	r11
    75f4:	cf 92       	push	r12
    75f6:	df 92       	push	r13
    75f8:	ef 92       	push	r14
    75fa:	ff 92       	push	r15
    75fc:	0f 93       	push	r16
    75fe:	1f 93       	push	r17
    7600:	cf 93       	push	r28
    7602:	df 93       	push	r29
     static uint8_t caunter;
     static uint8_t caunter_sens;
     static uint8_t namber_sensor;
     caunter = 0; caunter_sens = 0; namber_sensor = 0;
    7604:	10 92 ec 05 	sts	0x05EC, r1	; 0x8005ec <_ZZ17get_number_sensorvE7caunter>
    7608:	10 92 eb 05 	sts	0x05EB, r1	; 0x8005eb <_ZZ17get_number_sensorvE12caunter_sens>
    760c:	10 92 ea 05 	sts	0x05EA, r1	; 0x8005ea <_ZZ17get_number_sensorvE13namber_sensor>
     rx2_done = false;
    7610:	10 92 8f 06 	sts	0x068F, r1	; 0x80068f <rx2_done>
               case 18: if (rx2_done || tim_2 == 0){ if(rx2_done){ rx2_done = false; caunter_sens ++; namber_sensor = 9;} caunter ++; }   break;
               case 19: strcpy_P(str_cpy_buf ,(PGM_P)pgm_read_word_near(&(uart_string[S10]))); caunter ++; uart2_send_string (str_cpy_buf); tim_2 = TIM_SPEED;   break;
               case 20: if (rx2_done || tim_2 == 0){ if(rx2_done){ rx2_done = false; caunter_sens ++; namber_sensor = 10;} caunter ++; }   break;
               case 21: strcpy_P(str_cpy_buf ,(PGM_P)pgm_read_word_near(&(uart_string[S11]))); caunter ++; uart2_send_string (str_cpy_buf); tim_2 = TIM_SPEED;   break;
               case 22: if (rx2_done || tim_2 == 0){ if(rx2_done){ rx2_done = false; caunter_sens ++; namber_sensor = 11;} caunter ++; }   break;
               case 23: strcpy_P(str_cpy_buf ,(PGM_P)pgm_read_word_near(&(uart_string[S12]))); caunter ++; uart2_send_string (str_cpy_buf); tim_2 = TIM_SPEED;   break;
    7614:	0f 2e       	mov	r0, r31
    7616:	fb e3       	ldi	r31, 0x3B	; 59
    7618:	af 2e       	mov	r10, r31
    761a:	f7 e0       	ldi	r31, 0x07	; 7
    761c:	bf 2e       	mov	r11, r31
    761e:	f0 2d       	mov	r31, r0
    7620:	c0 ed       	ldi	r28, 0xD0	; 208
    7622:	d7 e0       	ldi	r29, 0x07	; 7
               case 16: if (rx2_done || tim_2 == 0){ if(rx2_done){ rx2_done = false; caunter_sens ++; namber_sensor = 8;} caunter ++; }   break;
               case 17: strcpy_P(str_cpy_buf ,(PGM_P)pgm_read_word_near(&(uart_string[S09]))); caunter ++; uart2_send_string (str_cpy_buf); tim_2 = TIM_SPEED;   break;
               case 18: if (rx2_done || tim_2 == 0){ if(rx2_done){ rx2_done = false; caunter_sens ++; namber_sensor = 9;} caunter ++; }   break;
               case 19: strcpy_P(str_cpy_buf ,(PGM_P)pgm_read_word_near(&(uart_string[S10]))); caunter ++; uart2_send_string (str_cpy_buf); tim_2 = TIM_SPEED;   break;
               case 20: if (rx2_done || tim_2 == 0){ if(rx2_done){ rx2_done = false; caunter_sens ++; namber_sensor = 10;} caunter ++; }   break;
               case 21: strcpy_P(str_cpy_buf ,(PGM_P)pgm_read_word_near(&(uart_string[S11]))); caunter ++; uart2_send_string (str_cpy_buf); tim_2 = TIM_SPEED;   break;
    7624:	0f 2e       	mov	r0, r31
    7626:	f9 e3       	ldi	r31, 0x39	; 57
    7628:	cf 2e       	mov	r12, r31
    762a:	f7 e0       	ldi	r31, 0x07	; 7
    762c:	df 2e       	mov	r13, r31
    762e:	f0 2d       	mov	r31, r0
               case 14: if (rx2_done || tim_2 == 0){ if(rx2_done){ rx2_done = false; caunter_sens ++; namber_sensor = 7;} caunter ++; }   break;
               case 15: strcpy_P(str_cpy_buf ,(PGM_P)pgm_read_word_near(&(uart_string[S08]))); caunter ++; uart2_send_string (str_cpy_buf); tim_2 = TIM_SPEED;   break;
               case 16: if (rx2_done || tim_2 == 0){ if(rx2_done){ rx2_done = false; caunter_sens ++; namber_sensor = 8;} caunter ++; }   break;
               case 17: strcpy_P(str_cpy_buf ,(PGM_P)pgm_read_word_near(&(uart_string[S09]))); caunter ++; uart2_send_string (str_cpy_buf); tim_2 = TIM_SPEED;   break;
               case 18: if (rx2_done || tim_2 == 0){ if(rx2_done){ rx2_done = false; caunter_sens ++; namber_sensor = 9;} caunter ++; }   break;
               case 19: strcpy_P(str_cpy_buf ,(PGM_P)pgm_read_word_near(&(uart_string[S10]))); caunter ++; uart2_send_string (str_cpy_buf); tim_2 = TIM_SPEED;   break;
    7630:	0f 2e       	mov	r0, r31
    7632:	f7 e3       	ldi	r31, 0x37	; 55
    7634:	ef 2e       	mov	r14, r31
    7636:	f7 e0       	ldi	r31, 0x07	; 7
    7638:	ff 2e       	mov	r15, r31
    763a:	f0 2d       	mov	r31, r0
               case 12: if (rx2_done || tim_2 == 0){ if(rx2_done){ rx2_done = false; caunter_sens ++; namber_sensor = 6;} caunter ++; }   break;
               case 13: strcpy_P(str_cpy_buf ,(PGM_P)pgm_read_word_near(&(uart_string[S07]))); caunter ++; uart2_send_string (str_cpy_buf); tim_2 = TIM_SPEED;   break;
               case 14: if (rx2_done || tim_2 == 0){ if(rx2_done){ rx2_done = false; caunter_sens ++; namber_sensor = 7;} caunter ++; }   break;
               case 15: strcpy_P(str_cpy_buf ,(PGM_P)pgm_read_word_near(&(uart_string[S08]))); caunter ++; uart2_send_string (str_cpy_buf); tim_2 = TIM_SPEED;   break;
               case 16: if (rx2_done || tim_2 == 0){ if(rx2_done){ rx2_done = false; caunter_sens ++; namber_sensor = 8;} caunter ++; }   break;
               case 17: strcpy_P(str_cpy_buf ,(PGM_P)pgm_read_word_near(&(uart_string[S09]))); caunter ++; uart2_send_string (str_cpy_buf); tim_2 = TIM_SPEED;   break;
    763c:	05 e3       	ldi	r16, 0x35	; 53
    763e:	17 e0       	ldi	r17, 0x07	; 7
               case 10: if (rx2_done || tim_2 == 0){ if(rx2_done){ rx2_done = false; caunter_sens ++; namber_sensor = 5;} caunter ++; }   break;
               case 11: strcpy_P(str_cpy_buf ,(PGM_P)pgm_read_word_near(&(uart_string[S06]))); caunter ++; uart2_send_string (str_cpy_buf); tim_2 = TIM_SPEED;   break;
               case 12: if (rx2_done || tim_2 == 0){ if(rx2_done){ rx2_done = false; caunter_sens ++; namber_sensor = 6;} caunter ++; }   break;
               case 13: strcpy_P(str_cpy_buf ,(PGM_P)pgm_read_word_near(&(uart_string[S07]))); caunter ++; uart2_send_string (str_cpy_buf); tim_2 = TIM_SPEED;   break;
               case 14: if (rx2_done || tim_2 == 0){ if(rx2_done){ rx2_done = false; caunter_sens ++; namber_sensor = 7;} caunter ++; }   break;
               case 15: strcpy_P(str_cpy_buf ,(PGM_P)pgm_read_word_near(&(uart_string[S08]))); caunter ++; uart2_send_string (str_cpy_buf); tim_2 = TIM_SPEED;   break;
    7640:	0f 2e       	mov	r0, r31
    7642:	f3 e3       	ldi	r31, 0x33	; 51
    7644:	8f 2e       	mov	r8, r31
    7646:	f7 e0       	ldi	r31, 0x07	; 7
    7648:	9f 2e       	mov	r9, r31
    764a:	f0 2d       	mov	r31, r0
               case 8: if (rx2_done || tim_2 == 0){ if(rx2_done){ rx2_done = false; caunter_sens ++;  namber_sensor = 4;}  caunter ++; }  break;
               case 9: strcpy_P(str_cpy_buf ,(PGM_P)pgm_read_word_near(&(uart_string[S05]))); caunter ++; uart2_send_string (str_cpy_buf); tim_2 = TIM_SPEED;   break;
               case 10: if (rx2_done || tim_2 == 0){ if(rx2_done){ rx2_done = false; caunter_sens ++; namber_sensor = 5;} caunter ++; }   break;
               case 11: strcpy_P(str_cpy_buf ,(PGM_P)pgm_read_word_near(&(uart_string[S06]))); caunter ++; uart2_send_string (str_cpy_buf); tim_2 = TIM_SPEED;   break;
               case 12: if (rx2_done || tim_2 == 0){ if(rx2_done){ rx2_done = false; caunter_sens ++; namber_sensor = 6;} caunter ++; }   break;
               case 13: strcpy_P(str_cpy_buf ,(PGM_P)pgm_read_word_near(&(uart_string[S07]))); caunter ++; uart2_send_string (str_cpy_buf); tim_2 = TIM_SPEED;   break;
    764c:	0f 2e       	mov	r0, r31
    764e:	f1 e3       	ldi	r31, 0x31	; 49
    7650:	6f 2e       	mov	r6, r31
    7652:	f7 e0       	ldi	r31, 0x07	; 7
    7654:	7f 2e       	mov	r7, r31
    7656:	f0 2d       	mov	r31, r0
               case 6: if (rx2_done || tim_2 == 0){ if(rx2_done){ rx2_done = false; caunter_sens ++;  namber_sensor = 3;}  caunter ++; }  break;
               case 7: strcpy_P(str_cpy_buf ,(PGM_P)pgm_read_word_near(&(uart_string[S04]))); caunter ++; uart2_send_string (str_cpy_buf); tim_2 = TIM_SPEED;   break;
               case 8: if (rx2_done || tim_2 == 0){ if(rx2_done){ rx2_done = false; caunter_sens ++;  namber_sensor = 4;}  caunter ++; }  break;
               case 9: strcpy_P(str_cpy_buf ,(PGM_P)pgm_read_word_near(&(uart_string[S05]))); caunter ++; uart2_send_string (str_cpy_buf); tim_2 = TIM_SPEED;   break;
               case 10: if (rx2_done || tim_2 == 0){ if(rx2_done){ rx2_done = false; caunter_sens ++; namber_sensor = 5;} caunter ++; }   break;
               case 11: strcpy_P(str_cpy_buf ,(PGM_P)pgm_read_word_near(&(uart_string[S06]))); caunter ++; uart2_send_string (str_cpy_buf); tim_2 = TIM_SPEED;   break;
    7658:	0f 2e       	mov	r0, r31
    765a:	ff e2       	ldi	r31, 0x2F	; 47
    765c:	4f 2e       	mov	r4, r31
    765e:	f7 e0       	ldi	r31, 0x07	; 7
    7660:	5f 2e       	mov	r5, r31
    7662:	f0 2d       	mov	r31, r0
               case 4: if (rx2_done || tim_2 == 0){ if(rx2_done){ rx2_done = false; caunter_sens ++;  namber_sensor = 2;}  caunter ++; }  break;
               case 5: strcpy_P(str_cpy_buf ,(PGM_P)pgm_read_word_near(&(uart_string[S03]))); caunter ++; uart2_send_string (str_cpy_buf); tim_2 = TIM_SPEED;   break;
               case 6: if (rx2_done || tim_2 == 0){ if(rx2_done){ rx2_done = false; caunter_sens ++;  namber_sensor = 3;}  caunter ++; }  break;
               case 7: strcpy_P(str_cpy_buf ,(PGM_P)pgm_read_word_near(&(uart_string[S04]))); caunter ++; uart2_send_string (str_cpy_buf); tim_2 = TIM_SPEED;   break;
               case 8: if (rx2_done || tim_2 == 0){ if(rx2_done){ rx2_done = false; caunter_sens ++;  namber_sensor = 4;}  caunter ++; }  break;
               case 9: strcpy_P(str_cpy_buf ,(PGM_P)pgm_read_word_near(&(uart_string[S05]))); caunter ++; uart2_send_string (str_cpy_buf); tim_2 = TIM_SPEED;   break;
    7664:	0f 2e       	mov	r0, r31
    7666:	fd e2       	ldi	r31, 0x2D	; 45
    7668:	2f 2e       	mov	r2, r31
    766a:	f7 e0       	ldi	r31, 0x07	; 7
    766c:	3f 2e       	mov	r3, r31
    766e:	f0 2d       	mov	r31, r0
     static uint8_t caunter;
     static uint8_t caunter_sens;
     static uint8_t namber_sensor;
     caunter = 0; caunter_sens = 0; namber_sensor = 0;
     rx2_done = false;
     while (caunter != 25){
    7670:	20 91 ec 05 	lds	r18, 0x05EC	; 0x8005ec <_ZZ17get_number_sensorvE7caunter>
          switch (caunter)
    7674:	82 2f       	mov	r24, r18
    7676:	90 e0       	ldi	r25, 0x00	; 0
     static uint8_t caunter;
     static uint8_t caunter_sens;
     static uint8_t namber_sensor;
     caunter = 0; caunter_sens = 0; namber_sensor = 0;
     rx2_done = false;
     while (caunter != 25){
    7678:	29 31       	cpi	r18, 0x19	; 25
    767a:	09 f4       	brne	.+2      	; 0x767e <_Z17get_number_sensorv+0x9e>
    767c:	78 c2       	rjmp	.+1264   	; 0x7b6e <_Z17get_number_sensorv+0x58e>
          switch (caunter)
    767e:	e8 2f       	mov	r30, r24
    7680:	f9 2f       	mov	r31, r25
    7682:	89 31       	cpi	r24, 0x19	; 25
    7684:	91 05       	cpc	r25, r1
    7686:	c0 f7       	brcc	.-16     	; 0x7678 <_Z17get_number_sensorv+0x98>
    7688:	88 27       	eor	r24, r24
    768a:	e7 54       	subi	r30, 0x47	; 71
    768c:	ff 4f       	sbci	r31, 0xFF	; 255
    768e:	8f 4f       	sbci	r24, 0xFF	; 255
    7690:	0c 94 e2 44 	jmp	0x89c4	; 0x89c4 <__tablejump2__>
          {
               case 0: strcpy_P(str_cpy_buf ,(PGM_P)pgm_read_word_near(&(uart_string[S98_MSV]))); caunter ++; uart2_send_string (str_cpy_buf); tim_2 = TIM_SPEED + 500;   break;
    7694:	e3 e2       	ldi	r30, 0x23	; 35
    7696:	f7 e0       	ldi	r31, 0x07	; 7
    7698:	65 91       	lpm	r22, Z+
    769a:	74 91       	lpm	r23, Z
    769c:	88 e7       	ldi	r24, 0x78	; 120
    769e:	96 e0       	ldi	r25, 0x06	; 6
    76a0:	0e 94 04 46 	call	0x8c08	; 0x8c08 <strcpy_P>
    76a4:	80 91 ec 05 	lds	r24, 0x05EC	; 0x8005ec <_ZZ17get_number_sensorvE7caunter>
    76a8:	8f 5f       	subi	r24, 0xFF	; 255
    76aa:	80 93 ec 05 	sts	0x05EC, r24	; 0x8005ec <_ZZ17get_number_sensorvE7caunter>
    76ae:	88 e7       	ldi	r24, 0x78	; 120
    76b0:	96 e0       	ldi	r25, 0x06	; 6
    76b2:	2f dc       	rcall	.-1954   	; 0x6f12 <_Z17uart2_send_stringPc>
    76b4:	84 ec       	ldi	r24, 0xC4	; 196
    76b6:	99 e0       	ldi	r25, 0x09	; 9
    76b8:	90 93 35 03 	sts	0x0335, r25	; 0x800335 <tim_2+0x1>
    76bc:	80 93 34 03 	sts	0x0334, r24	; 0x800334 <tim_2>
    76c0:	d7 cf       	rjmp	.-82     	; 0x7670 <_Z17get_number_sensorv+0x90>
               case 1: if (tim_2 == 0){strcpy_P(str_cpy_buf ,(PGM_P)pgm_read_word_near(&(uart_string[S01]))); caunter ++; uart2_send_string (str_cpy_buf); tim_2 = TIM_SPEED; }  break;
    76c2:	80 91 34 03 	lds	r24, 0x0334	; 0x800334 <tim_2>
    76c6:	90 91 35 03 	lds	r25, 0x0335	; 0x800335 <tim_2+0x1>
    76ca:	89 2b       	or	r24, r25
    76cc:	89 f6       	brne	.-94     	; 0x7670 <_Z17get_number_sensorv+0x90>
    76ce:	e5 e2       	ldi	r30, 0x25	; 37
    76d0:	f7 e0       	ldi	r31, 0x07	; 7
    76d2:	65 91       	lpm	r22, Z+
    76d4:	74 91       	lpm	r23, Z
    76d6:	88 e7       	ldi	r24, 0x78	; 120
    76d8:	96 e0       	ldi	r25, 0x06	; 6
    76da:	0e 94 04 46 	call	0x8c08	; 0x8c08 <strcpy_P>
    76de:	80 91 ec 05 	lds	r24, 0x05EC	; 0x8005ec <_ZZ17get_number_sensorvE7caunter>
    76e2:	8f 5f       	subi	r24, 0xFF	; 255
    76e4:	80 93 ec 05 	sts	0x05EC, r24	; 0x8005ec <_ZZ17get_number_sensorvE7caunter>
    76e8:	88 e7       	ldi	r24, 0x78	; 120
    76ea:	96 e0       	ldi	r25, 0x06	; 6
    76ec:	12 dc       	rcall	.-2012   	; 0x6f12 <_Z17uart2_send_stringPc>
    76ee:	d0 93 35 03 	sts	0x0335, r29	; 0x800335 <tim_2+0x1>
    76f2:	c0 93 34 03 	sts	0x0334, r28	; 0x800334 <tim_2>
    76f6:	bc cf       	rjmp	.-136    	; 0x7670 <_Z17get_number_sensorv+0x90>
               case 2: if (rx2_done || tim_2 == 0){ if(rx2_done){ rx2_done = false; caunter_sens ++;  namber_sensor = 1; }  caunter ++; }  break;
    76f8:	80 91 8f 06 	lds	r24, 0x068F	; 0x80068f <rx2_done>
    76fc:	81 11       	cpse	r24, r1
    76fe:	07 c0       	rjmp	.+14     	; 0x770e <_Z17get_number_sensorv+0x12e>
    7700:	80 91 34 03 	lds	r24, 0x0334	; 0x800334 <tim_2>
    7704:	90 91 35 03 	lds	r25, 0x0335	; 0x800335 <tim_2+0x1>
    7708:	89 2b       	or	r24, r25
    770a:	09 f0       	breq	.+2      	; 0x770e <_Z17get_number_sensorv+0x12e>
    770c:	b1 cf       	rjmp	.-158    	; 0x7670 <_Z17get_number_sensorv+0x90>
    770e:	80 91 8f 06 	lds	r24, 0x068F	; 0x80068f <rx2_done>
    7712:	88 23       	and	r24, r24
    7714:	51 f0       	breq	.+20     	; 0x772a <_Z17get_number_sensorv+0x14a>
    7716:	10 92 8f 06 	sts	0x068F, r1	; 0x80068f <rx2_done>
    771a:	80 91 eb 05 	lds	r24, 0x05EB	; 0x8005eb <_ZZ17get_number_sensorvE12caunter_sens>
    771e:	8f 5f       	subi	r24, 0xFF	; 255
    7720:	80 93 eb 05 	sts	0x05EB, r24	; 0x8005eb <_ZZ17get_number_sensorvE12caunter_sens>
    7724:	81 e0       	ldi	r24, 0x01	; 1
    7726:	80 93 ea 05 	sts	0x05EA, r24	; 0x8005ea <_ZZ17get_number_sensorvE13namber_sensor>
    772a:	83 e0       	ldi	r24, 0x03	; 3
    772c:	80 93 ec 05 	sts	0x05EC, r24	; 0x8005ec <_ZZ17get_number_sensorvE7caunter>
    7730:	9f cf       	rjmp	.-194    	; 0x7670 <_Z17get_number_sensorv+0x90>
               case 3: strcpy_P(str_cpy_buf ,(PGM_P)pgm_read_word_near(&(uart_string[S02]))); caunter ++; uart2_send_string (str_cpy_buf); tim_2 = TIM_SPEED;   break;
    7732:	e7 e2       	ldi	r30, 0x27	; 39
    7734:	f7 e0       	ldi	r31, 0x07	; 7
    7736:	65 91       	lpm	r22, Z+
    7738:	74 91       	lpm	r23, Z
    773a:	88 e7       	ldi	r24, 0x78	; 120
    773c:	96 e0       	ldi	r25, 0x06	; 6
    773e:	0e 94 04 46 	call	0x8c08	; 0x8c08 <strcpy_P>
    7742:	80 91 ec 05 	lds	r24, 0x05EC	; 0x8005ec <_ZZ17get_number_sensorvE7caunter>
    7746:	8f 5f       	subi	r24, 0xFF	; 255
    7748:	80 93 ec 05 	sts	0x05EC, r24	; 0x8005ec <_ZZ17get_number_sensorvE7caunter>
    774c:	88 e7       	ldi	r24, 0x78	; 120
    774e:	96 e0       	ldi	r25, 0x06	; 6
    7750:	e0 db       	rcall	.-2112   	; 0x6f12 <_Z17uart2_send_stringPc>
    7752:	d0 93 35 03 	sts	0x0335, r29	; 0x800335 <tim_2+0x1>
    7756:	c0 93 34 03 	sts	0x0334, r28	; 0x800334 <tim_2>
    775a:	8a cf       	rjmp	.-236    	; 0x7670 <_Z17get_number_sensorv+0x90>
               case 4: if (rx2_done || tim_2 == 0){ if(rx2_done){ rx2_done = false; caunter_sens ++;  namber_sensor = 2;}  caunter ++; }  break;
    775c:	80 91 8f 06 	lds	r24, 0x068F	; 0x80068f <rx2_done>
    7760:	81 11       	cpse	r24, r1
    7762:	07 c0       	rjmp	.+14     	; 0x7772 <_Z17get_number_sensorv+0x192>
    7764:	80 91 34 03 	lds	r24, 0x0334	; 0x800334 <tim_2>
    7768:	90 91 35 03 	lds	r25, 0x0335	; 0x800335 <tim_2+0x1>
    776c:	89 2b       	or	r24, r25
    776e:	09 f0       	breq	.+2      	; 0x7772 <_Z17get_number_sensorv+0x192>
    7770:	7f cf       	rjmp	.-258    	; 0x7670 <_Z17get_number_sensorv+0x90>
    7772:	80 91 8f 06 	lds	r24, 0x068F	; 0x80068f <rx2_done>
    7776:	88 23       	and	r24, r24
    7778:	51 f0       	breq	.+20     	; 0x778e <_Z17get_number_sensorv+0x1ae>
    777a:	10 92 8f 06 	sts	0x068F, r1	; 0x80068f <rx2_done>
    777e:	80 91 eb 05 	lds	r24, 0x05EB	; 0x8005eb <_ZZ17get_number_sensorvE12caunter_sens>
    7782:	8f 5f       	subi	r24, 0xFF	; 255
    7784:	80 93 eb 05 	sts	0x05EB, r24	; 0x8005eb <_ZZ17get_number_sensorvE12caunter_sens>
    7788:	82 e0       	ldi	r24, 0x02	; 2
    778a:	80 93 ea 05 	sts	0x05EA, r24	; 0x8005ea <_ZZ17get_number_sensorvE13namber_sensor>
    778e:	85 e0       	ldi	r24, 0x05	; 5
    7790:	80 93 ec 05 	sts	0x05EC, r24	; 0x8005ec <_ZZ17get_number_sensorvE7caunter>
    7794:	6d cf       	rjmp	.-294    	; 0x7670 <_Z17get_number_sensorv+0x90>
               case 5: strcpy_P(str_cpy_buf ,(PGM_P)pgm_read_word_near(&(uart_string[S03]))); caunter ++; uart2_send_string (str_cpy_buf); tim_2 = TIM_SPEED;   break;
    7796:	e9 e2       	ldi	r30, 0x29	; 41
    7798:	f7 e0       	ldi	r31, 0x07	; 7
    779a:	65 91       	lpm	r22, Z+
    779c:	74 91       	lpm	r23, Z
    779e:	88 e7       	ldi	r24, 0x78	; 120
    77a0:	96 e0       	ldi	r25, 0x06	; 6
    77a2:	0e 94 04 46 	call	0x8c08	; 0x8c08 <strcpy_P>
    77a6:	80 91 ec 05 	lds	r24, 0x05EC	; 0x8005ec <_ZZ17get_number_sensorvE7caunter>
    77aa:	8f 5f       	subi	r24, 0xFF	; 255
    77ac:	80 93 ec 05 	sts	0x05EC, r24	; 0x8005ec <_ZZ17get_number_sensorvE7caunter>
    77b0:	88 e7       	ldi	r24, 0x78	; 120
    77b2:	96 e0       	ldi	r25, 0x06	; 6
    77b4:	ae db       	rcall	.-2212   	; 0x6f12 <_Z17uart2_send_stringPc>
    77b6:	d0 93 35 03 	sts	0x0335, r29	; 0x800335 <tim_2+0x1>
    77ba:	c0 93 34 03 	sts	0x0334, r28	; 0x800334 <tim_2>
    77be:	58 cf       	rjmp	.-336    	; 0x7670 <_Z17get_number_sensorv+0x90>
               case 6: if (rx2_done || tim_2 == 0){ if(rx2_done){ rx2_done = false; caunter_sens ++;  namber_sensor = 3;}  caunter ++; }  break;
    77c0:	80 91 8f 06 	lds	r24, 0x068F	; 0x80068f <rx2_done>
    77c4:	81 11       	cpse	r24, r1
    77c6:	07 c0       	rjmp	.+14     	; 0x77d6 <_Z17get_number_sensorv+0x1f6>
    77c8:	80 91 34 03 	lds	r24, 0x0334	; 0x800334 <tim_2>
    77cc:	90 91 35 03 	lds	r25, 0x0335	; 0x800335 <tim_2+0x1>
    77d0:	89 2b       	or	r24, r25
    77d2:	09 f0       	breq	.+2      	; 0x77d6 <_Z17get_number_sensorv+0x1f6>
    77d4:	4d cf       	rjmp	.-358    	; 0x7670 <_Z17get_number_sensorv+0x90>
    77d6:	80 91 8f 06 	lds	r24, 0x068F	; 0x80068f <rx2_done>
    77da:	88 23       	and	r24, r24
    77dc:	51 f0       	breq	.+20     	; 0x77f2 <_Z17get_number_sensorv+0x212>
    77de:	10 92 8f 06 	sts	0x068F, r1	; 0x80068f <rx2_done>
    77e2:	80 91 eb 05 	lds	r24, 0x05EB	; 0x8005eb <_ZZ17get_number_sensorvE12caunter_sens>
    77e6:	8f 5f       	subi	r24, 0xFF	; 255
    77e8:	80 93 eb 05 	sts	0x05EB, r24	; 0x8005eb <_ZZ17get_number_sensorvE12caunter_sens>
    77ec:	83 e0       	ldi	r24, 0x03	; 3
    77ee:	80 93 ea 05 	sts	0x05EA, r24	; 0x8005ea <_ZZ17get_number_sensorvE13namber_sensor>
    77f2:	87 e0       	ldi	r24, 0x07	; 7
    77f4:	80 93 ec 05 	sts	0x05EC, r24	; 0x8005ec <_ZZ17get_number_sensorvE7caunter>
    77f8:	3b cf       	rjmp	.-394    	; 0x7670 <_Z17get_number_sensorv+0x90>
               case 7: strcpy_P(str_cpy_buf ,(PGM_P)pgm_read_word_near(&(uart_string[S04]))); caunter ++; uart2_send_string (str_cpy_buf); tim_2 = TIM_SPEED;   break;
    77fa:	eb e2       	ldi	r30, 0x2B	; 43
    77fc:	f7 e0       	ldi	r31, 0x07	; 7
    77fe:	65 91       	lpm	r22, Z+
    7800:	74 91       	lpm	r23, Z
    7802:	88 e7       	ldi	r24, 0x78	; 120
    7804:	96 e0       	ldi	r25, 0x06	; 6
    7806:	0e 94 04 46 	call	0x8c08	; 0x8c08 <strcpy_P>
    780a:	80 91 ec 05 	lds	r24, 0x05EC	; 0x8005ec <_ZZ17get_number_sensorvE7caunter>
    780e:	8f 5f       	subi	r24, 0xFF	; 255
    7810:	80 93 ec 05 	sts	0x05EC, r24	; 0x8005ec <_ZZ17get_number_sensorvE7caunter>
    7814:	88 e7       	ldi	r24, 0x78	; 120
    7816:	96 e0       	ldi	r25, 0x06	; 6
    7818:	7c db       	rcall	.-2312   	; 0x6f12 <_Z17uart2_send_stringPc>
    781a:	d0 93 35 03 	sts	0x0335, r29	; 0x800335 <tim_2+0x1>
    781e:	c0 93 34 03 	sts	0x0334, r28	; 0x800334 <tim_2>
    7822:	26 cf       	rjmp	.-436    	; 0x7670 <_Z17get_number_sensorv+0x90>
               case 8: if (rx2_done || tim_2 == 0){ if(rx2_done){ rx2_done = false; caunter_sens ++;  namber_sensor = 4;}  caunter ++; }  break;
    7824:	80 91 8f 06 	lds	r24, 0x068F	; 0x80068f <rx2_done>
    7828:	81 11       	cpse	r24, r1
    782a:	07 c0       	rjmp	.+14     	; 0x783a <_Z17get_number_sensorv+0x25a>
    782c:	80 91 34 03 	lds	r24, 0x0334	; 0x800334 <tim_2>
    7830:	90 91 35 03 	lds	r25, 0x0335	; 0x800335 <tim_2+0x1>
    7834:	89 2b       	or	r24, r25
    7836:	09 f0       	breq	.+2      	; 0x783a <_Z17get_number_sensorv+0x25a>
    7838:	1b cf       	rjmp	.-458    	; 0x7670 <_Z17get_number_sensorv+0x90>
    783a:	80 91 8f 06 	lds	r24, 0x068F	; 0x80068f <rx2_done>
    783e:	88 23       	and	r24, r24
    7840:	51 f0       	breq	.+20     	; 0x7856 <_Z17get_number_sensorv+0x276>
    7842:	10 92 8f 06 	sts	0x068F, r1	; 0x80068f <rx2_done>
    7846:	80 91 eb 05 	lds	r24, 0x05EB	; 0x8005eb <_ZZ17get_number_sensorvE12caunter_sens>
    784a:	8f 5f       	subi	r24, 0xFF	; 255
    784c:	80 93 eb 05 	sts	0x05EB, r24	; 0x8005eb <_ZZ17get_number_sensorvE12caunter_sens>
    7850:	84 e0       	ldi	r24, 0x04	; 4
    7852:	80 93 ea 05 	sts	0x05EA, r24	; 0x8005ea <_ZZ17get_number_sensorvE13namber_sensor>
    7856:	89 e0       	ldi	r24, 0x09	; 9
    7858:	80 93 ec 05 	sts	0x05EC, r24	; 0x8005ec <_ZZ17get_number_sensorvE7caunter>
    785c:	09 cf       	rjmp	.-494    	; 0x7670 <_Z17get_number_sensorv+0x90>
               case 9: strcpy_P(str_cpy_buf ,(PGM_P)pgm_read_word_near(&(uart_string[S05]))); caunter ++; uart2_send_string (str_cpy_buf); tim_2 = TIM_SPEED;   break;
    785e:	f1 01       	movw	r30, r2
    7860:	65 91       	lpm	r22, Z+
    7862:	74 91       	lpm	r23, Z
    7864:	88 e7       	ldi	r24, 0x78	; 120
    7866:	96 e0       	ldi	r25, 0x06	; 6
    7868:	0e 94 04 46 	call	0x8c08	; 0x8c08 <strcpy_P>
    786c:	80 91 ec 05 	lds	r24, 0x05EC	; 0x8005ec <_ZZ17get_number_sensorvE7caunter>
    7870:	8f 5f       	subi	r24, 0xFF	; 255
    7872:	80 93 ec 05 	sts	0x05EC, r24	; 0x8005ec <_ZZ17get_number_sensorvE7caunter>
    7876:	88 e7       	ldi	r24, 0x78	; 120
    7878:	96 e0       	ldi	r25, 0x06	; 6
    787a:	4b db       	rcall	.-2410   	; 0x6f12 <_Z17uart2_send_stringPc>
    787c:	d0 93 35 03 	sts	0x0335, r29	; 0x800335 <tim_2+0x1>
    7880:	c0 93 34 03 	sts	0x0334, r28	; 0x800334 <tim_2>
    7884:	f5 ce       	rjmp	.-534    	; 0x7670 <_Z17get_number_sensorv+0x90>
               case 10: if (rx2_done || tim_2 == 0){ if(rx2_done){ rx2_done = false; caunter_sens ++; namber_sensor = 5;} caunter ++; }   break;
    7886:	80 91 8f 06 	lds	r24, 0x068F	; 0x80068f <rx2_done>
    788a:	81 11       	cpse	r24, r1
    788c:	07 c0       	rjmp	.+14     	; 0x789c <_Z17get_number_sensorv+0x2bc>
    788e:	80 91 34 03 	lds	r24, 0x0334	; 0x800334 <tim_2>
    7892:	90 91 35 03 	lds	r25, 0x0335	; 0x800335 <tim_2+0x1>
    7896:	89 2b       	or	r24, r25
    7898:	09 f0       	breq	.+2      	; 0x789c <_Z17get_number_sensorv+0x2bc>
    789a:	ea ce       	rjmp	.-556    	; 0x7670 <_Z17get_number_sensorv+0x90>
    789c:	80 91 8f 06 	lds	r24, 0x068F	; 0x80068f <rx2_done>
    78a0:	88 23       	and	r24, r24
    78a2:	51 f0       	breq	.+20     	; 0x78b8 <_Z17get_number_sensorv+0x2d8>
    78a4:	10 92 8f 06 	sts	0x068F, r1	; 0x80068f <rx2_done>
    78a8:	80 91 eb 05 	lds	r24, 0x05EB	; 0x8005eb <_ZZ17get_number_sensorvE12caunter_sens>
    78ac:	8f 5f       	subi	r24, 0xFF	; 255
    78ae:	80 93 eb 05 	sts	0x05EB, r24	; 0x8005eb <_ZZ17get_number_sensorvE12caunter_sens>
    78b2:	85 e0       	ldi	r24, 0x05	; 5
    78b4:	80 93 ea 05 	sts	0x05EA, r24	; 0x8005ea <_ZZ17get_number_sensorvE13namber_sensor>
    78b8:	8b e0       	ldi	r24, 0x0B	; 11
    78ba:	80 93 ec 05 	sts	0x05EC, r24	; 0x8005ec <_ZZ17get_number_sensorvE7caunter>
    78be:	d8 ce       	rjmp	.-592    	; 0x7670 <_Z17get_number_sensorv+0x90>
               case 11: strcpy_P(str_cpy_buf ,(PGM_P)pgm_read_word_near(&(uart_string[S06]))); caunter ++; uart2_send_string (str_cpy_buf); tim_2 = TIM_SPEED;   break;
    78c0:	f2 01       	movw	r30, r4
    78c2:	65 91       	lpm	r22, Z+
    78c4:	74 91       	lpm	r23, Z
    78c6:	88 e7       	ldi	r24, 0x78	; 120
    78c8:	96 e0       	ldi	r25, 0x06	; 6
    78ca:	0e 94 04 46 	call	0x8c08	; 0x8c08 <strcpy_P>
    78ce:	80 91 ec 05 	lds	r24, 0x05EC	; 0x8005ec <_ZZ17get_number_sensorvE7caunter>
    78d2:	8f 5f       	subi	r24, 0xFF	; 255
    78d4:	80 93 ec 05 	sts	0x05EC, r24	; 0x8005ec <_ZZ17get_number_sensorvE7caunter>
    78d8:	88 e7       	ldi	r24, 0x78	; 120
    78da:	96 e0       	ldi	r25, 0x06	; 6
    78dc:	1a db       	rcall	.-2508   	; 0x6f12 <_Z17uart2_send_stringPc>
    78de:	d0 93 35 03 	sts	0x0335, r29	; 0x800335 <tim_2+0x1>
    78e2:	c0 93 34 03 	sts	0x0334, r28	; 0x800334 <tim_2>
    78e6:	c4 ce       	rjmp	.-632    	; 0x7670 <_Z17get_number_sensorv+0x90>
               case 12: if (rx2_done || tim_2 == 0){ if(rx2_done){ rx2_done = false; caunter_sens ++; namber_sensor = 6;} caunter ++; }   break;
    78e8:	80 91 8f 06 	lds	r24, 0x068F	; 0x80068f <rx2_done>
    78ec:	81 11       	cpse	r24, r1
    78ee:	07 c0       	rjmp	.+14     	; 0x78fe <_Z17get_number_sensorv+0x31e>
    78f0:	80 91 34 03 	lds	r24, 0x0334	; 0x800334 <tim_2>
    78f4:	90 91 35 03 	lds	r25, 0x0335	; 0x800335 <tim_2+0x1>
    78f8:	89 2b       	or	r24, r25
    78fa:	09 f0       	breq	.+2      	; 0x78fe <_Z17get_number_sensorv+0x31e>
    78fc:	b9 ce       	rjmp	.-654    	; 0x7670 <_Z17get_number_sensorv+0x90>
    78fe:	80 91 8f 06 	lds	r24, 0x068F	; 0x80068f <rx2_done>
    7902:	88 23       	and	r24, r24
    7904:	51 f0       	breq	.+20     	; 0x791a <_Z17get_number_sensorv+0x33a>
    7906:	10 92 8f 06 	sts	0x068F, r1	; 0x80068f <rx2_done>
    790a:	80 91 eb 05 	lds	r24, 0x05EB	; 0x8005eb <_ZZ17get_number_sensorvE12caunter_sens>
    790e:	8f 5f       	subi	r24, 0xFF	; 255
    7910:	80 93 eb 05 	sts	0x05EB, r24	; 0x8005eb <_ZZ17get_number_sensorvE12caunter_sens>
    7914:	86 e0       	ldi	r24, 0x06	; 6
    7916:	80 93 ea 05 	sts	0x05EA, r24	; 0x8005ea <_ZZ17get_number_sensorvE13namber_sensor>
    791a:	8d e0       	ldi	r24, 0x0D	; 13
    791c:	80 93 ec 05 	sts	0x05EC, r24	; 0x8005ec <_ZZ17get_number_sensorvE7caunter>
    7920:	a7 ce       	rjmp	.-690    	; 0x7670 <_Z17get_number_sensorv+0x90>
               case 13: strcpy_P(str_cpy_buf ,(PGM_P)pgm_read_word_near(&(uart_string[S07]))); caunter ++; uart2_send_string (str_cpy_buf); tim_2 = TIM_SPEED;   break;
    7922:	f3 01       	movw	r30, r6
    7924:	65 91       	lpm	r22, Z+
    7926:	74 91       	lpm	r23, Z
    7928:	88 e7       	ldi	r24, 0x78	; 120
    792a:	96 e0       	ldi	r25, 0x06	; 6
    792c:	0e 94 04 46 	call	0x8c08	; 0x8c08 <strcpy_P>
    7930:	80 91 ec 05 	lds	r24, 0x05EC	; 0x8005ec <_ZZ17get_number_sensorvE7caunter>
    7934:	8f 5f       	subi	r24, 0xFF	; 255
    7936:	80 93 ec 05 	sts	0x05EC, r24	; 0x8005ec <_ZZ17get_number_sensorvE7caunter>
    793a:	88 e7       	ldi	r24, 0x78	; 120
    793c:	96 e0       	ldi	r25, 0x06	; 6
    793e:	e9 da       	rcall	.-2606   	; 0x6f12 <_Z17uart2_send_stringPc>
    7940:	d0 93 35 03 	sts	0x0335, r29	; 0x800335 <tim_2+0x1>
    7944:	c0 93 34 03 	sts	0x0334, r28	; 0x800334 <tim_2>
    7948:	93 ce       	rjmp	.-730    	; 0x7670 <_Z17get_number_sensorv+0x90>
               case 14: if (rx2_done || tim_2 == 0){ if(rx2_done){ rx2_done = false; caunter_sens ++; namber_sensor = 7;} caunter ++; }   break;
    794a:	80 91 8f 06 	lds	r24, 0x068F	; 0x80068f <rx2_done>
    794e:	81 11       	cpse	r24, r1
    7950:	07 c0       	rjmp	.+14     	; 0x7960 <_Z17get_number_sensorv+0x380>
    7952:	80 91 34 03 	lds	r24, 0x0334	; 0x800334 <tim_2>
    7956:	90 91 35 03 	lds	r25, 0x0335	; 0x800335 <tim_2+0x1>
    795a:	89 2b       	or	r24, r25
    795c:	09 f0       	breq	.+2      	; 0x7960 <_Z17get_number_sensorv+0x380>
    795e:	88 ce       	rjmp	.-752    	; 0x7670 <_Z17get_number_sensorv+0x90>
    7960:	80 91 8f 06 	lds	r24, 0x068F	; 0x80068f <rx2_done>
    7964:	88 23       	and	r24, r24
    7966:	51 f0       	breq	.+20     	; 0x797c <_Z17get_number_sensorv+0x39c>
    7968:	10 92 8f 06 	sts	0x068F, r1	; 0x80068f <rx2_done>
    796c:	80 91 eb 05 	lds	r24, 0x05EB	; 0x8005eb <_ZZ17get_number_sensorvE12caunter_sens>
    7970:	8f 5f       	subi	r24, 0xFF	; 255
    7972:	80 93 eb 05 	sts	0x05EB, r24	; 0x8005eb <_ZZ17get_number_sensorvE12caunter_sens>
    7976:	87 e0       	ldi	r24, 0x07	; 7
    7978:	80 93 ea 05 	sts	0x05EA, r24	; 0x8005ea <_ZZ17get_number_sensorvE13namber_sensor>
    797c:	8f e0       	ldi	r24, 0x0F	; 15
    797e:	80 93 ec 05 	sts	0x05EC, r24	; 0x8005ec <_ZZ17get_number_sensorvE7caunter>
    7982:	76 ce       	rjmp	.-788    	; 0x7670 <_Z17get_number_sensorv+0x90>
               case 15: strcpy_P(str_cpy_buf ,(PGM_P)pgm_read_word_near(&(uart_string[S08]))); caunter ++; uart2_send_string (str_cpy_buf); tim_2 = TIM_SPEED;   break;
    7984:	f4 01       	movw	r30, r8
    7986:	65 91       	lpm	r22, Z+
    7988:	74 91       	lpm	r23, Z
    798a:	88 e7       	ldi	r24, 0x78	; 120
    798c:	96 e0       	ldi	r25, 0x06	; 6
    798e:	0e 94 04 46 	call	0x8c08	; 0x8c08 <strcpy_P>
    7992:	80 91 ec 05 	lds	r24, 0x05EC	; 0x8005ec <_ZZ17get_number_sensorvE7caunter>
    7996:	8f 5f       	subi	r24, 0xFF	; 255
    7998:	80 93 ec 05 	sts	0x05EC, r24	; 0x8005ec <_ZZ17get_number_sensorvE7caunter>
    799c:	88 e7       	ldi	r24, 0x78	; 120
    799e:	96 e0       	ldi	r25, 0x06	; 6
    79a0:	b8 da       	rcall	.-2704   	; 0x6f12 <_Z17uart2_send_stringPc>
    79a2:	d0 93 35 03 	sts	0x0335, r29	; 0x800335 <tim_2+0x1>
    79a6:	c0 93 34 03 	sts	0x0334, r28	; 0x800334 <tim_2>
    79aa:	62 ce       	rjmp	.-828    	; 0x7670 <_Z17get_number_sensorv+0x90>
               case 16: if (rx2_done || tim_2 == 0){ if(rx2_done){ rx2_done = false; caunter_sens ++; namber_sensor = 8;} caunter ++; }   break;
    79ac:	80 91 8f 06 	lds	r24, 0x068F	; 0x80068f <rx2_done>
    79b0:	81 11       	cpse	r24, r1
    79b2:	07 c0       	rjmp	.+14     	; 0x79c2 <_Z17get_number_sensorv+0x3e2>
    79b4:	80 91 34 03 	lds	r24, 0x0334	; 0x800334 <tim_2>
    79b8:	90 91 35 03 	lds	r25, 0x0335	; 0x800335 <tim_2+0x1>
    79bc:	89 2b       	or	r24, r25
    79be:	09 f0       	breq	.+2      	; 0x79c2 <_Z17get_number_sensorv+0x3e2>
    79c0:	57 ce       	rjmp	.-850    	; 0x7670 <_Z17get_number_sensorv+0x90>
    79c2:	80 91 8f 06 	lds	r24, 0x068F	; 0x80068f <rx2_done>
    79c6:	88 23       	and	r24, r24
    79c8:	51 f0       	breq	.+20     	; 0x79de <_Z17get_number_sensorv+0x3fe>
    79ca:	10 92 8f 06 	sts	0x068F, r1	; 0x80068f <rx2_done>
    79ce:	80 91 eb 05 	lds	r24, 0x05EB	; 0x8005eb <_ZZ17get_number_sensorvE12caunter_sens>
    79d2:	8f 5f       	subi	r24, 0xFF	; 255
    79d4:	80 93 eb 05 	sts	0x05EB, r24	; 0x8005eb <_ZZ17get_number_sensorvE12caunter_sens>
    79d8:	88 e0       	ldi	r24, 0x08	; 8
    79da:	80 93 ea 05 	sts	0x05EA, r24	; 0x8005ea <_ZZ17get_number_sensorvE13namber_sensor>
    79de:	81 e1       	ldi	r24, 0x11	; 17
    79e0:	80 93 ec 05 	sts	0x05EC, r24	; 0x8005ec <_ZZ17get_number_sensorvE7caunter>
    79e4:	45 ce       	rjmp	.-886    	; 0x7670 <_Z17get_number_sensorv+0x90>
               case 17: strcpy_P(str_cpy_buf ,(PGM_P)pgm_read_word_near(&(uart_string[S09]))); caunter ++; uart2_send_string (str_cpy_buf); tim_2 = TIM_SPEED;   break;
    79e6:	f8 01       	movw	r30, r16
    79e8:	65 91       	lpm	r22, Z+
    79ea:	74 91       	lpm	r23, Z
    79ec:	88 e7       	ldi	r24, 0x78	; 120
    79ee:	96 e0       	ldi	r25, 0x06	; 6
    79f0:	0e 94 04 46 	call	0x8c08	; 0x8c08 <strcpy_P>
    79f4:	80 91 ec 05 	lds	r24, 0x05EC	; 0x8005ec <_ZZ17get_number_sensorvE7caunter>
    79f8:	8f 5f       	subi	r24, 0xFF	; 255
    79fa:	80 93 ec 05 	sts	0x05EC, r24	; 0x8005ec <_ZZ17get_number_sensorvE7caunter>
    79fe:	88 e7       	ldi	r24, 0x78	; 120
    7a00:	96 e0       	ldi	r25, 0x06	; 6
    7a02:	87 da       	rcall	.-2802   	; 0x6f12 <_Z17uart2_send_stringPc>
    7a04:	d0 93 35 03 	sts	0x0335, r29	; 0x800335 <tim_2+0x1>
    7a08:	c0 93 34 03 	sts	0x0334, r28	; 0x800334 <tim_2>
    7a0c:	31 ce       	rjmp	.-926    	; 0x7670 <_Z17get_number_sensorv+0x90>
               case 18: if (rx2_done || tim_2 == 0){ if(rx2_done){ rx2_done = false; caunter_sens ++; namber_sensor = 9;} caunter ++; }   break;
    7a0e:	80 91 8f 06 	lds	r24, 0x068F	; 0x80068f <rx2_done>
    7a12:	81 11       	cpse	r24, r1
    7a14:	07 c0       	rjmp	.+14     	; 0x7a24 <_Z17get_number_sensorv+0x444>
    7a16:	80 91 34 03 	lds	r24, 0x0334	; 0x800334 <tim_2>
    7a1a:	90 91 35 03 	lds	r25, 0x0335	; 0x800335 <tim_2+0x1>
    7a1e:	89 2b       	or	r24, r25
    7a20:	09 f0       	breq	.+2      	; 0x7a24 <_Z17get_number_sensorv+0x444>
    7a22:	26 ce       	rjmp	.-948    	; 0x7670 <_Z17get_number_sensorv+0x90>
    7a24:	80 91 8f 06 	lds	r24, 0x068F	; 0x80068f <rx2_done>
    7a28:	88 23       	and	r24, r24
    7a2a:	51 f0       	breq	.+20     	; 0x7a40 <_Z17get_number_sensorv+0x460>
    7a2c:	10 92 8f 06 	sts	0x068F, r1	; 0x80068f <rx2_done>
    7a30:	80 91 eb 05 	lds	r24, 0x05EB	; 0x8005eb <_ZZ17get_number_sensorvE12caunter_sens>
    7a34:	8f 5f       	subi	r24, 0xFF	; 255
    7a36:	80 93 eb 05 	sts	0x05EB, r24	; 0x8005eb <_ZZ17get_number_sensorvE12caunter_sens>
    7a3a:	89 e0       	ldi	r24, 0x09	; 9
    7a3c:	80 93 ea 05 	sts	0x05EA, r24	; 0x8005ea <_ZZ17get_number_sensorvE13namber_sensor>
    7a40:	83 e1       	ldi	r24, 0x13	; 19
    7a42:	80 93 ec 05 	sts	0x05EC, r24	; 0x8005ec <_ZZ17get_number_sensorvE7caunter>
    7a46:	14 ce       	rjmp	.-984    	; 0x7670 <_Z17get_number_sensorv+0x90>
               case 19: strcpy_P(str_cpy_buf ,(PGM_P)pgm_read_word_near(&(uart_string[S10]))); caunter ++; uart2_send_string (str_cpy_buf); tim_2 = TIM_SPEED;   break;
    7a48:	f7 01       	movw	r30, r14
    7a4a:	65 91       	lpm	r22, Z+
    7a4c:	74 91       	lpm	r23, Z
    7a4e:	88 e7       	ldi	r24, 0x78	; 120
    7a50:	96 e0       	ldi	r25, 0x06	; 6
    7a52:	0e 94 04 46 	call	0x8c08	; 0x8c08 <strcpy_P>
    7a56:	80 91 ec 05 	lds	r24, 0x05EC	; 0x8005ec <_ZZ17get_number_sensorvE7caunter>
    7a5a:	8f 5f       	subi	r24, 0xFF	; 255
    7a5c:	80 93 ec 05 	sts	0x05EC, r24	; 0x8005ec <_ZZ17get_number_sensorvE7caunter>
    7a60:	88 e7       	ldi	r24, 0x78	; 120
    7a62:	96 e0       	ldi	r25, 0x06	; 6
    7a64:	56 da       	rcall	.-2900   	; 0x6f12 <_Z17uart2_send_stringPc>
    7a66:	d0 93 35 03 	sts	0x0335, r29	; 0x800335 <tim_2+0x1>
    7a6a:	c0 93 34 03 	sts	0x0334, r28	; 0x800334 <tim_2>
    7a6e:	00 ce       	rjmp	.-1024   	; 0x7670 <_Z17get_number_sensorv+0x90>
               case 20: if (rx2_done || tim_2 == 0){ if(rx2_done){ rx2_done = false; caunter_sens ++; namber_sensor = 10;} caunter ++; }   break;
    7a70:	80 91 8f 06 	lds	r24, 0x068F	; 0x80068f <rx2_done>
    7a74:	81 11       	cpse	r24, r1
    7a76:	07 c0       	rjmp	.+14     	; 0x7a86 <_Z17get_number_sensorv+0x4a6>
    7a78:	80 91 34 03 	lds	r24, 0x0334	; 0x800334 <tim_2>
    7a7c:	90 91 35 03 	lds	r25, 0x0335	; 0x800335 <tim_2+0x1>
    7a80:	89 2b       	or	r24, r25
    7a82:	09 f0       	breq	.+2      	; 0x7a86 <_Z17get_number_sensorv+0x4a6>
    7a84:	f5 cd       	rjmp	.-1046   	; 0x7670 <_Z17get_number_sensorv+0x90>
    7a86:	80 91 8f 06 	lds	r24, 0x068F	; 0x80068f <rx2_done>
    7a8a:	88 23       	and	r24, r24
    7a8c:	51 f0       	breq	.+20     	; 0x7aa2 <_Z17get_number_sensorv+0x4c2>
    7a8e:	10 92 8f 06 	sts	0x068F, r1	; 0x80068f <rx2_done>
    7a92:	80 91 eb 05 	lds	r24, 0x05EB	; 0x8005eb <_ZZ17get_number_sensorvE12caunter_sens>
    7a96:	8f 5f       	subi	r24, 0xFF	; 255
    7a98:	80 93 eb 05 	sts	0x05EB, r24	; 0x8005eb <_ZZ17get_number_sensorvE12caunter_sens>
    7a9c:	8a e0       	ldi	r24, 0x0A	; 10
    7a9e:	80 93 ea 05 	sts	0x05EA, r24	; 0x8005ea <_ZZ17get_number_sensorvE13namber_sensor>
    7aa2:	85 e1       	ldi	r24, 0x15	; 21
    7aa4:	80 93 ec 05 	sts	0x05EC, r24	; 0x8005ec <_ZZ17get_number_sensorvE7caunter>
    7aa8:	e3 cd       	rjmp	.-1082   	; 0x7670 <_Z17get_number_sensorv+0x90>
               case 21: strcpy_P(str_cpy_buf ,(PGM_P)pgm_read_word_near(&(uart_string[S11]))); caunter ++; uart2_send_string (str_cpy_buf); tim_2 = TIM_SPEED;   break;
    7aaa:	f6 01       	movw	r30, r12
    7aac:	65 91       	lpm	r22, Z+
    7aae:	74 91       	lpm	r23, Z
    7ab0:	88 e7       	ldi	r24, 0x78	; 120
    7ab2:	96 e0       	ldi	r25, 0x06	; 6
    7ab4:	0e 94 04 46 	call	0x8c08	; 0x8c08 <strcpy_P>
    7ab8:	80 91 ec 05 	lds	r24, 0x05EC	; 0x8005ec <_ZZ17get_number_sensorvE7caunter>
    7abc:	8f 5f       	subi	r24, 0xFF	; 255
    7abe:	80 93 ec 05 	sts	0x05EC, r24	; 0x8005ec <_ZZ17get_number_sensorvE7caunter>
    7ac2:	88 e7       	ldi	r24, 0x78	; 120
    7ac4:	96 e0       	ldi	r25, 0x06	; 6
    7ac6:	25 da       	rcall	.-2998   	; 0x6f12 <_Z17uart2_send_stringPc>
    7ac8:	d0 93 35 03 	sts	0x0335, r29	; 0x800335 <tim_2+0x1>
    7acc:	c0 93 34 03 	sts	0x0334, r28	; 0x800334 <tim_2>
    7ad0:	cf cd       	rjmp	.-1122   	; 0x7670 <_Z17get_number_sensorv+0x90>
               case 22: if (rx2_done || tim_2 == 0){ if(rx2_done){ rx2_done = false; caunter_sens ++; namber_sensor = 11;} caunter ++; }   break;
    7ad2:	80 91 8f 06 	lds	r24, 0x068F	; 0x80068f <rx2_done>
    7ad6:	81 11       	cpse	r24, r1
    7ad8:	07 c0       	rjmp	.+14     	; 0x7ae8 <_Z17get_number_sensorv+0x508>
    7ada:	80 91 34 03 	lds	r24, 0x0334	; 0x800334 <tim_2>
    7ade:	90 91 35 03 	lds	r25, 0x0335	; 0x800335 <tim_2+0x1>
    7ae2:	89 2b       	or	r24, r25
    7ae4:	09 f0       	breq	.+2      	; 0x7ae8 <_Z17get_number_sensorv+0x508>
    7ae6:	c4 cd       	rjmp	.-1144   	; 0x7670 <_Z17get_number_sensorv+0x90>
    7ae8:	80 91 8f 06 	lds	r24, 0x068F	; 0x80068f <rx2_done>
    7aec:	88 23       	and	r24, r24
    7aee:	51 f0       	breq	.+20     	; 0x7b04 <_Z17get_number_sensorv+0x524>
    7af0:	10 92 8f 06 	sts	0x068F, r1	; 0x80068f <rx2_done>
    7af4:	80 91 eb 05 	lds	r24, 0x05EB	; 0x8005eb <_ZZ17get_number_sensorvE12caunter_sens>
    7af8:	8f 5f       	subi	r24, 0xFF	; 255
    7afa:	80 93 eb 05 	sts	0x05EB, r24	; 0x8005eb <_ZZ17get_number_sensorvE12caunter_sens>
    7afe:	8b e0       	ldi	r24, 0x0B	; 11
    7b00:	80 93 ea 05 	sts	0x05EA, r24	; 0x8005ea <_ZZ17get_number_sensorvE13namber_sensor>
    7b04:	87 e1       	ldi	r24, 0x17	; 23
    7b06:	80 93 ec 05 	sts	0x05EC, r24	; 0x8005ec <_ZZ17get_number_sensorvE7caunter>
    7b0a:	b2 cd       	rjmp	.-1180   	; 0x7670 <_Z17get_number_sensorv+0x90>
               case 23: strcpy_P(str_cpy_buf ,(PGM_P)pgm_read_word_near(&(uart_string[S12]))); caunter ++; uart2_send_string (str_cpy_buf); tim_2 = TIM_SPEED;   break;
    7b0c:	f5 01       	movw	r30, r10
    7b0e:	65 91       	lpm	r22, Z+
    7b10:	74 91       	lpm	r23, Z
    7b12:	88 e7       	ldi	r24, 0x78	; 120
    7b14:	96 e0       	ldi	r25, 0x06	; 6
    7b16:	0e 94 04 46 	call	0x8c08	; 0x8c08 <strcpy_P>
    7b1a:	80 91 ec 05 	lds	r24, 0x05EC	; 0x8005ec <_ZZ17get_number_sensorvE7caunter>
    7b1e:	8f 5f       	subi	r24, 0xFF	; 255
    7b20:	80 93 ec 05 	sts	0x05EC, r24	; 0x8005ec <_ZZ17get_number_sensorvE7caunter>
    7b24:	88 e7       	ldi	r24, 0x78	; 120
    7b26:	96 e0       	ldi	r25, 0x06	; 6
    7b28:	f4 d9       	rcall	.-3096   	; 0x6f12 <_Z17uart2_send_stringPc>
    7b2a:	d0 93 35 03 	sts	0x0335, r29	; 0x800335 <tim_2+0x1>
    7b2e:	c0 93 34 03 	sts	0x0334, r28	; 0x800334 <tim_2>
    7b32:	9e cd       	rjmp	.-1220   	; 0x7670 <_Z17get_number_sensorv+0x90>
               case 24: if (rx2_done || tim_2 == 0){ if(rx2_done){ rx2_done = false; caunter_sens ++; namber_sensor = 12;} caunter ++; }   break;
    7b34:	80 91 8f 06 	lds	r24, 0x068F	; 0x80068f <rx2_done>
    7b38:	81 11       	cpse	r24, r1
    7b3a:	07 c0       	rjmp	.+14     	; 0x7b4a <_Z17get_number_sensorv+0x56a>
    7b3c:	80 91 34 03 	lds	r24, 0x0334	; 0x800334 <tim_2>
    7b40:	90 91 35 03 	lds	r25, 0x0335	; 0x800335 <tim_2+0x1>
    7b44:	89 2b       	or	r24, r25
    7b46:	09 f0       	breq	.+2      	; 0x7b4a <_Z17get_number_sensorv+0x56a>
    7b48:	93 cd       	rjmp	.-1242   	; 0x7670 <_Z17get_number_sensorv+0x90>
    7b4a:	80 91 8f 06 	lds	r24, 0x068F	; 0x80068f <rx2_done>
    7b4e:	88 23       	and	r24, r24
    7b50:	51 f0       	breq	.+20     	; 0x7b66 <_Z17get_number_sensorv+0x586>
    7b52:	10 92 8f 06 	sts	0x068F, r1	; 0x80068f <rx2_done>
    7b56:	80 91 eb 05 	lds	r24, 0x05EB	; 0x8005eb <_ZZ17get_number_sensorvE12caunter_sens>
    7b5a:	8f 5f       	subi	r24, 0xFF	; 255
    7b5c:	80 93 eb 05 	sts	0x05EB, r24	; 0x8005eb <_ZZ17get_number_sensorvE12caunter_sens>
    7b60:	8c e0       	ldi	r24, 0x0C	; 12
    7b62:	80 93 ea 05 	sts	0x05EA, r24	; 0x8005ea <_ZZ17get_number_sensorvE13namber_sensor>
    7b66:	89 e1       	ldi	r24, 0x19	; 25
    7b68:	80 93 ec 05 	sts	0x05EC, r24	; 0x8005ec <_ZZ17get_number_sensorvE7caunter>
    7b6c:	81 cd       	rjmp	.-1278   	; 0x7670 <_Z17get_number_sensorv+0x90>
          }
     }
     if (caunter_sens == 1)  {return namber_sensor;}
    7b6e:	80 91 eb 05 	lds	r24, 0x05EB	; 0x8005eb <_ZZ17get_number_sensorvE12caunter_sens>
    7b72:	81 30       	cpi	r24, 0x01	; 1
    7b74:	19 f4       	brne	.+6      	; 0x7b7c <_Z17get_number_sensorv+0x59c>
    7b76:	80 91 ea 05 	lds	r24, 0x05EA	; 0x8005ea <_ZZ17get_number_sensorvE13namber_sensor>
    7b7a:	01 c0       	rjmp	.+2      	; 0x7b7e <_Z17get_number_sensorv+0x59e>
     else { return 100; }  
    7b7c:	84 e6       	ldi	r24, 0x64	; 100
}
    7b7e:	df 91       	pop	r29
    7b80:	cf 91       	pop	r28
    7b82:	1f 91       	pop	r17
    7b84:	0f 91       	pop	r16
    7b86:	ff 90       	pop	r15
    7b88:	ef 90       	pop	r14
    7b8a:	df 90       	pop	r13
    7b8c:	cf 90       	pop	r12
    7b8e:	bf 90       	pop	r11
    7b90:	af 90       	pop	r10
    7b92:	9f 90       	pop	r9
    7b94:	8f 90       	pop	r8
    7b96:	7f 90       	pop	r7
    7b98:	6f 90       	pop	r6
    7b9a:	5f 90       	pop	r5
    7b9c:	4f 90       	pop	r4
    7b9e:	3f 90       	pop	r3
    7ba0:	2f 90       	pop	r2
    7ba2:	08 95       	ret

00007ba4 <_Z12send_new_adrhh>:

void send_new_adr (uint8_t last, uint8_t news)
{
  sprintf(str_cpy_buf, ";S%02d;ADR%02d;$", last, news);   
    7ba4:	1f 92       	push	r1
    7ba6:	6f 93       	push	r22
    7ba8:	1f 92       	push	r1
    7baa:	8f 93       	push	r24
    7bac:	80 e1       	ldi	r24, 0x10	; 16
    7bae:	93 e0       	ldi	r25, 0x03	; 3
    7bb0:	9f 93       	push	r25
    7bb2:	8f 93       	push	r24
    7bb4:	88 e7       	ldi	r24, 0x78	; 120
    7bb6:	96 e0       	ldi	r25, 0x06	; 6
    7bb8:	9f 93       	push	r25
    7bba:	8f 93       	push	r24
    7bbc:	0e 94 79 46 	call	0x8cf2	; 0x8cf2 <sprintf>
  uart2_send_string (str_cpy_buf);
    7bc0:	88 e7       	ldi	r24, 0x78	; 120
    7bc2:	96 e0       	ldi	r25, 0x06	; 6
    7bc4:	a6 d9       	rcall	.-3252   	; 0x6f12 <_Z17uart2_send_stringPc>
    7bc6:	2f ef       	ldi	r18, 0xFF	; 255
    7bc8:	80 e7       	ldi	r24, 0x70	; 112
    7bca:	92 e0       	ldi	r25, 0x02	; 2
    7bcc:	21 50       	subi	r18, 0x01	; 1
    7bce:	80 40       	sbci	r24, 0x00	; 0
    7bd0:	90 40       	sbci	r25, 0x00	; 0
    7bd2:	e1 f7       	brne	.-8      	; 0x7bcc <_Z12send_new_adrhh+0x28>
    7bd4:	00 c0       	rjmp	.+0      	; 0x7bd6 <_Z12send_new_adrhh+0x32>
    7bd6:	00 00       	nop
  _delay_ms(50);
  strcpy_P(str_cpy_buf ,(PGM_P)pgm_read_word_near(&(uart_string[TDD])));   
    7bd8:	ed e3       	ldi	r30, 0x3D	; 61
    7bda:	f7 e0       	ldi	r31, 0x07	; 7
    7bdc:	65 91       	lpm	r22, Z+
    7bde:	74 91       	lpm	r23, Z
    7be0:	88 e7       	ldi	r24, 0x78	; 120
    7be2:	96 e0       	ldi	r25, 0x06	; 6
    7be4:	0e 94 04 46 	call	0x8c08	; 0x8c08 <strcpy_P>
  uart2_send_string (str_cpy_buf);
    7be8:	88 e7       	ldi	r24, 0x78	; 120
    7bea:	96 e0       	ldi	r25, 0x06	; 6
    7bec:	92 d9       	rcall	.-3292   	; 0x6f12 <_Z17uart2_send_stringPc>
    7bee:	2f ef       	ldi	r18, 0xFF	; 255
    7bf0:	80 e7       	ldi	r24, 0x70	; 112
    7bf2:	92 e0       	ldi	r25, 0x02	; 2
    7bf4:	21 50       	subi	r18, 0x01	; 1
    7bf6:	80 40       	sbci	r24, 0x00	; 0
    7bf8:	90 40       	sbci	r25, 0x00	; 0
    7bfa:	e1 f7       	brne	.-8      	; 0x7bf4 <_Z12send_new_adrhh+0x50>
    7bfc:	00 c0       	rjmp	.+0      	; 0x7bfe <_Z12send_new_adrhh+0x5a>
    7bfe:	00 00       	nop
  _delay_ms(50); 
}
    7c00:	8d b7       	in	r24, 0x3d	; 61
    7c02:	9e b7       	in	r25, 0x3e	; 62
    7c04:	08 96       	adiw	r24, 0x08	; 8
    7c06:	0f b6       	in	r0, 0x3f	; 63
    7c08:	f8 94       	cli
    7c0a:	9e bf       	out	0x3e, r25	; 62
    7c0c:	0f be       	out	0x3f, r0	; 63
    7c0e:	8d bf       	out	0x3d, r24	; 61
    7c10:	08 95       	ret

00007c12 <_Z17uart3_send_stringPc>:
     }
}

void uart3_send_string ( char *send3)
{
     if (uart3_tx_caunter == 0)
    7c12:	20 91 1a 06 	lds	r18, 0x061A	; 0x80061a <uart3_tx_caunter>
    7c16:	21 11       	cpse	r18, r1
    7c18:	1f c0       	rjmp	.+62     	; 0x7c58 <_Z17uart3_send_stringPc+0x46>
     {
          for (int i = 0; i < 20; i ++)
          {
               uart3_tx_buf[i] = send3[i];
    7c1a:	fc 01       	movw	r30, r24
    7c1c:	20 81       	ld	r18, Z
    7c1e:	20 93 1e 06 	sts	0x061E, r18	; 0x80061e <uart3_tx_buf>
               if (uart3_tx_buf[i] == '$') break;
    7c22:	24 32       	cpi	r18, 0x24	; 36
    7c24:	39 f0       	breq	.+14     	; 0x7c34 <_Z17uart3_send_stringPc+0x22>
    7c26:	31 96       	adiw	r30, 0x01	; 1
    7c28:	af e1       	ldi	r26, 0x1F	; 31
    7c2a:	b6 e0       	ldi	r27, 0x06	; 6
{
     if (uart3_tx_caunter == 0)
     {
          for (int i = 0; i < 20; i ++)
          {
               uart3_tx_buf[i] = send3[i];
    7c2c:	91 91       	ld	r25, Z+
    7c2e:	9d 93       	st	X+, r25
               if (uart3_tx_buf[i] == '$') break;
    7c30:	94 32       	cpi	r25, 0x24	; 36
    7c32:	e1 f7       	brne	.-8      	; 0x7c2c <_Z17uart3_send_stringPc+0x1a>
          }
          UDR3 = uart3_tx_buf[uart3_tx_caunter];
    7c34:	e0 91 1a 06 	lds	r30, 0x061A	; 0x80061a <uart3_tx_caunter>
    7c38:	f0 e0       	ldi	r31, 0x00	; 0
    7c3a:	e2 5e       	subi	r30, 0xE2	; 226
    7c3c:	f9 4f       	sbci	r31, 0xF9	; 249
    7c3e:	80 81       	ld	r24, Z
    7c40:	80 93 36 01 	sts	0x0136, r24	; 0x800136 <__TEXT_REGION_LENGTH__+0x7c0136>
          uart3_tx_caunter ++;
    7c44:	80 91 1a 06 	lds	r24, 0x061A	; 0x80061a <uart3_tx_caunter>
    7c48:	8f 5f       	subi	r24, 0xFF	; 255
    7c4a:	80 93 1a 06 	sts	0x061A, r24	; 0x80061a <uart3_tx_caunter>
          UCSR3B |= ( 1<<UDRIE3);
    7c4e:	e1 e3       	ldi	r30, 0x31	; 49
    7c50:	f1 e0       	ldi	r31, 0x01	; 1
    7c52:	80 81       	ld	r24, Z
    7c54:	80 62       	ori	r24, 0x20	; 32
    7c56:	80 83       	st	Z, r24
    7c58:	08 95       	ret

00007c5a <__vector_26>:
     }
}

//----------обработчики прерываний на передачу одинаковые----------//
ISR (USART0_UDRE_vect)                                      // прерывание по опустошению буффера передачи
{
    7c5a:	1f 92       	push	r1
    7c5c:	0f 92       	push	r0
    7c5e:	0f b6       	in	r0, 0x3f	; 63
    7c60:	0f 92       	push	r0
    7c62:	11 24       	eor	r1, r1
    7c64:	0b b6       	in	r0, 0x3b	; 59
    7c66:	0f 92       	push	r0
    7c68:	8f 93       	push	r24
    7c6a:	ef 93       	push	r30
    7c6c:	ff 93       	push	r31
     if(uart0_tx_buf[uart0_tx_caunter] != '$')              // пока символ в буффере не равен $
    7c6e:	e0 91 1d 06 	lds	r30, 0x061D	; 0x80061d <uart0_tx_caunter>
    7c72:	f0 e0       	ldi	r31, 0x00	; 0
    7c74:	e0 5b       	subi	r30, 0xB0	; 176
    7c76:	f9 4f       	sbci	r31, 0xF9	; 249
    7c78:	80 81       	ld	r24, Z
    7c7a:	84 32       	cpi	r24, 0x24	; 36
    7c7c:	71 f0       	breq	.+28     	; 0x7c9a <__vector_26+0x40>
     {
          UDR0 = uart0_tx_buf[uart0_tx_caunter];            // продолжаем копировать из буффера байты в юарт
    7c7e:	e0 91 1d 06 	lds	r30, 0x061D	; 0x80061d <uart0_tx_caunter>
    7c82:	f0 e0       	ldi	r31, 0x00	; 0
    7c84:	e0 5b       	subi	r30, 0xB0	; 176
    7c86:	f9 4f       	sbci	r31, 0xF9	; 249
    7c88:	80 81       	ld	r24, Z
    7c8a:	80 93 c6 00 	sts	0x00C6, r24	; 0x8000c6 <__TEXT_REGION_LENGTH__+0x7c00c6>
          uart0_tx_caunter ++;                              // ну и естественно передвигаемся по массиву
    7c8e:	80 91 1d 06 	lds	r24, 0x061D	; 0x80061d <uart0_tx_caunter>
    7c92:	8f 5f       	subi	r24, 0xFF	; 255
    7c94:	80 93 1d 06 	sts	0x061D, r24	; 0x80061d <uart0_tx_caunter>
    7c98:	07 c0       	rjmp	.+14     	; 0x7ca8 <__vector_26+0x4e>
     }
     else                                                   // если дошли до символа $
     {
          uart0_tx_caunter = 0;                             // сбрасываем счетчик
    7c9a:	10 92 1d 06 	sts	0x061D, r1	; 0x80061d <uart0_tx_caunter>
          UCSR0B  &= ~ ( 1<<UDRIE0);                        // вырубаем прерывания по опустошению буфера
    7c9e:	e1 ec       	ldi	r30, 0xC1	; 193
    7ca0:	f0 e0       	ldi	r31, 0x00	; 0
    7ca2:	80 81       	ld	r24, Z
    7ca4:	8f 7d       	andi	r24, 0xDF	; 223
    7ca6:	80 83       	st	Z, r24
     }
}
    7ca8:	ff 91       	pop	r31
    7caa:	ef 91       	pop	r30
    7cac:	8f 91       	pop	r24
    7cae:	0f 90       	pop	r0
    7cb0:	0b be       	out	0x3b, r0	; 59
    7cb2:	0f 90       	pop	r0
    7cb4:	0f be       	out	0x3f, r0	; 63
    7cb6:	0f 90       	pop	r0
    7cb8:	1f 90       	pop	r1
    7cba:	18 95       	reti

00007cbc <__vector_37>:

ISR (USART1_UDRE_vect)
{
    7cbc:	1f 92       	push	r1
    7cbe:	0f 92       	push	r0
    7cc0:	0f b6       	in	r0, 0x3f	; 63
    7cc2:	0f 92       	push	r0
    7cc4:	11 24       	eor	r1, r1
    7cc6:	0b b6       	in	r0, 0x3b	; 59
    7cc8:	0f 92       	push	r0
    7cca:	8f 93       	push	r24
    7ccc:	ef 93       	push	r30
    7cce:	ff 93       	push	r31
     if(uart1_tx_buf[uart1_tx_caunter] != '$')
    7cd0:	e0 91 1c 06 	lds	r30, 0x061C	; 0x80061c <uart1_tx_caunter>
    7cd4:	f0 e0       	ldi	r31, 0x00	; 0
    7cd6:	e4 5c       	subi	r30, 0xC4	; 196
    7cd8:	f9 4f       	sbci	r31, 0xF9	; 249
    7cda:	80 81       	ld	r24, Z
    7cdc:	84 32       	cpi	r24, 0x24	; 36
    7cde:	71 f0       	breq	.+28     	; 0x7cfc <__vector_37+0x40>
     {
          UDR1 = uart1_tx_buf[uart1_tx_caunter];
    7ce0:	e0 91 1c 06 	lds	r30, 0x061C	; 0x80061c <uart1_tx_caunter>
    7ce4:	f0 e0       	ldi	r31, 0x00	; 0
    7ce6:	e4 5c       	subi	r30, 0xC4	; 196
    7ce8:	f9 4f       	sbci	r31, 0xF9	; 249
    7cea:	80 81       	ld	r24, Z
    7cec:	80 93 ce 00 	sts	0x00CE, r24	; 0x8000ce <__TEXT_REGION_LENGTH__+0x7c00ce>
          uart1_tx_caunter ++;
    7cf0:	80 91 1c 06 	lds	r24, 0x061C	; 0x80061c <uart1_tx_caunter>
    7cf4:	8f 5f       	subi	r24, 0xFF	; 255
    7cf6:	80 93 1c 06 	sts	0x061C, r24	; 0x80061c <uart1_tx_caunter>
    7cfa:	07 c0       	rjmp	.+14     	; 0x7d0a <__vector_37+0x4e>
     }
     else
     {
          uart1_tx_caunter = 0;
    7cfc:	10 92 1c 06 	sts	0x061C, r1	; 0x80061c <uart1_tx_caunter>
          UCSR1B  &= ~ ( 1<<UDRIE1);
    7d00:	e9 ec       	ldi	r30, 0xC9	; 201
    7d02:	f0 e0       	ldi	r31, 0x00	; 0
    7d04:	80 81       	ld	r24, Z
    7d06:	8f 7d       	andi	r24, 0xDF	; 223
    7d08:	80 83       	st	Z, r24
     }
}
    7d0a:	ff 91       	pop	r31
    7d0c:	ef 91       	pop	r30
    7d0e:	8f 91       	pop	r24
    7d10:	0f 90       	pop	r0
    7d12:	0b be       	out	0x3b, r0	; 59
    7d14:	0f 90       	pop	r0
    7d16:	0f be       	out	0x3f, r0	; 63
    7d18:	0f 90       	pop	r0
    7d1a:	1f 90       	pop	r1
    7d1c:	18 95       	reti

00007d1e <__vector_52>:

ISR (USART2_UDRE_vect)
{
    7d1e:	1f 92       	push	r1
    7d20:	0f 92       	push	r0
    7d22:	0f b6       	in	r0, 0x3f	; 63
    7d24:	0f 92       	push	r0
    7d26:	11 24       	eor	r1, r1
    7d28:	0b b6       	in	r0, 0x3b	; 59
    7d2a:	0f 92       	push	r0
    7d2c:	8f 93       	push	r24
    7d2e:	ef 93       	push	r30
    7d30:	ff 93       	push	r31
     if(uart2_tx_buf[uart2_tx_caunter] != '$')
    7d32:	e0 91 1b 06 	lds	r30, 0x061B	; 0x80061b <uart2_tx_caunter>
    7d36:	f0 e0       	ldi	r31, 0x00	; 0
    7d38:	e3 5d       	subi	r30, 0xD3	; 211
    7d3a:	f9 4f       	sbci	r31, 0xF9	; 249
    7d3c:	80 81       	ld	r24, Z
    7d3e:	84 32       	cpi	r24, 0x24	; 36
    7d40:	71 f0       	breq	.+28     	; 0x7d5e <__vector_52+0x40>
     {
          UDR2 = uart2_tx_buf[uart2_tx_caunter];
    7d42:	e0 91 1b 06 	lds	r30, 0x061B	; 0x80061b <uart2_tx_caunter>
    7d46:	f0 e0       	ldi	r31, 0x00	; 0
    7d48:	e3 5d       	subi	r30, 0xD3	; 211
    7d4a:	f9 4f       	sbci	r31, 0xF9	; 249
    7d4c:	80 81       	ld	r24, Z
    7d4e:	80 93 d6 00 	sts	0x00D6, r24	; 0x8000d6 <__TEXT_REGION_LENGTH__+0x7c00d6>
          uart2_tx_caunter ++;
    7d52:	80 91 1b 06 	lds	r24, 0x061B	; 0x80061b <uart2_tx_caunter>
    7d56:	8f 5f       	subi	r24, 0xFF	; 255
    7d58:	80 93 1b 06 	sts	0x061B, r24	; 0x80061b <uart2_tx_caunter>
    7d5c:	07 c0       	rjmp	.+14     	; 0x7d6c <__vector_52+0x4e>
     }
     else
     {
          uart2_tx_caunter = 0;
    7d5e:	10 92 1b 06 	sts	0x061B, r1	; 0x80061b <uart2_tx_caunter>
          UCSR2B  &= ~ ( 1<<UDRIE2);
    7d62:	e1 ed       	ldi	r30, 0xD1	; 209
    7d64:	f0 e0       	ldi	r31, 0x00	; 0
    7d66:	80 81       	ld	r24, Z
    7d68:	8f 7d       	andi	r24, 0xDF	; 223
    7d6a:	80 83       	st	Z, r24
     }
}
    7d6c:	ff 91       	pop	r31
    7d6e:	ef 91       	pop	r30
    7d70:	8f 91       	pop	r24
    7d72:	0f 90       	pop	r0
    7d74:	0b be       	out	0x3b, r0	; 59
    7d76:	0f 90       	pop	r0
    7d78:	0f be       	out	0x3f, r0	; 63
    7d7a:	0f 90       	pop	r0
    7d7c:	1f 90       	pop	r1
    7d7e:	18 95       	reti

00007d80 <__vector_55>:

ISR (USART3_UDRE_vect)
{
    7d80:	1f 92       	push	r1
    7d82:	0f 92       	push	r0
    7d84:	0f b6       	in	r0, 0x3f	; 63
    7d86:	0f 92       	push	r0
    7d88:	11 24       	eor	r1, r1
    7d8a:	0b b6       	in	r0, 0x3b	; 59
    7d8c:	0f 92       	push	r0
    7d8e:	8f 93       	push	r24
    7d90:	ef 93       	push	r30
    7d92:	ff 93       	push	r31
     if(uart3_tx_buf[uart3_tx_caunter] != '$')
    7d94:	e0 91 1a 06 	lds	r30, 0x061A	; 0x80061a <uart3_tx_caunter>
    7d98:	f0 e0       	ldi	r31, 0x00	; 0
    7d9a:	e2 5e       	subi	r30, 0xE2	; 226
    7d9c:	f9 4f       	sbci	r31, 0xF9	; 249
    7d9e:	80 81       	ld	r24, Z
    7da0:	84 32       	cpi	r24, 0x24	; 36
    7da2:	71 f0       	breq	.+28     	; 0x7dc0 <__vector_55+0x40>
     {
          UDR3 = uart3_tx_buf[uart3_tx_caunter];
    7da4:	e0 91 1a 06 	lds	r30, 0x061A	; 0x80061a <uart3_tx_caunter>
    7da8:	f0 e0       	ldi	r31, 0x00	; 0
    7daa:	e2 5e       	subi	r30, 0xE2	; 226
    7dac:	f9 4f       	sbci	r31, 0xF9	; 249
    7dae:	80 81       	ld	r24, Z
    7db0:	80 93 36 01 	sts	0x0136, r24	; 0x800136 <__TEXT_REGION_LENGTH__+0x7c0136>
          uart3_tx_caunter ++;
    7db4:	80 91 1a 06 	lds	r24, 0x061A	; 0x80061a <uart3_tx_caunter>
    7db8:	8f 5f       	subi	r24, 0xFF	; 255
    7dba:	80 93 1a 06 	sts	0x061A, r24	; 0x80061a <uart3_tx_caunter>
    7dbe:	07 c0       	rjmp	.+14     	; 0x7dce <__vector_55+0x4e>
     }
     else
     {
          uart3_tx_caunter = 0;
    7dc0:	10 92 1a 06 	sts	0x061A, r1	; 0x80061a <uart3_tx_caunter>
          UCSR3B  &= ~ ( 1<<UDRIE3);
    7dc4:	e1 e3       	ldi	r30, 0x31	; 49
    7dc6:	f1 e0       	ldi	r31, 0x01	; 1
    7dc8:	80 81       	ld	r24, Z
    7dca:	8f 7d       	andi	r24, 0xDF	; 223
    7dcc:	80 83       	st	Z, r24
     }
    7dce:	ff 91       	pop	r31
    7dd0:	ef 91       	pop	r30
    7dd2:	8f 91       	pop	r24
    7dd4:	0f 90       	pop	r0
    7dd6:	0b be       	out	0x3b, r0	; 59
    7dd8:	0f 90       	pop	r0
    7dda:	0f be       	out	0x3f, r0	; 63
    7ddc:	0f 90       	pop	r0
    7dde:	1f 90       	pop	r1
    7de0:	18 95       	reti

00007de2 <vfprintf>:
    7de2:	2f 92       	push	r2
    7de4:	3f 92       	push	r3
    7de6:	4f 92       	push	r4
    7de8:	5f 92       	push	r5
    7dea:	6f 92       	push	r6
    7dec:	7f 92       	push	r7
    7dee:	8f 92       	push	r8
    7df0:	9f 92       	push	r9
    7df2:	af 92       	push	r10
    7df4:	bf 92       	push	r11
    7df6:	cf 92       	push	r12
    7df8:	df 92       	push	r13
    7dfa:	ef 92       	push	r14
    7dfc:	ff 92       	push	r15
    7dfe:	0f 93       	push	r16
    7e00:	1f 93       	push	r17
    7e02:	cf 93       	push	r28
    7e04:	df 93       	push	r29
    7e06:	cd b7       	in	r28, 0x3d	; 61
    7e08:	de b7       	in	r29, 0x3e	; 62
    7e0a:	60 97       	sbiw	r28, 0x10	; 16
    7e0c:	0f b6       	in	r0, 0x3f	; 63
    7e0e:	f8 94       	cli
    7e10:	de bf       	out	0x3e, r29	; 62
    7e12:	0f be       	out	0x3f, r0	; 63
    7e14:	cd bf       	out	0x3d, r28	; 61
    7e16:	7c 01       	movw	r14, r24
    7e18:	1b 01       	movw	r2, r22
    7e1a:	6a 01       	movw	r12, r20
    7e1c:	fc 01       	movw	r30, r24
    7e1e:	17 82       	std	Z+7, r1	; 0x07
    7e20:	16 82       	std	Z+6, r1	; 0x06
    7e22:	83 81       	ldd	r24, Z+3	; 0x03
    7e24:	81 ff       	sbrs	r24, 1
    7e26:	2a c3       	rjmp	.+1620   	; 0x847c <vfprintf+0x69a>
    7e28:	9e 01       	movw	r18, r28
    7e2a:	2f 5f       	subi	r18, 0xFF	; 255
    7e2c:	3f 4f       	sbci	r19, 0xFF	; 255
    7e2e:	39 01       	movw	r6, r18
    7e30:	f7 01       	movw	r30, r14
    7e32:	93 81       	ldd	r25, Z+3	; 0x03
    7e34:	f1 01       	movw	r30, r2
    7e36:	93 fd       	sbrc	r25, 3
    7e38:	85 91       	lpm	r24, Z+
    7e3a:	93 ff       	sbrs	r25, 3
    7e3c:	81 91       	ld	r24, Z+
    7e3e:	1f 01       	movw	r2, r30
    7e40:	88 23       	and	r24, r24
    7e42:	09 f4       	brne	.+2      	; 0x7e46 <vfprintf+0x64>
    7e44:	17 c3       	rjmp	.+1582   	; 0x8474 <vfprintf+0x692>
    7e46:	85 32       	cpi	r24, 0x25	; 37
    7e48:	39 f4       	brne	.+14     	; 0x7e58 <vfprintf+0x76>
    7e4a:	93 fd       	sbrc	r25, 3
    7e4c:	85 91       	lpm	r24, Z+
    7e4e:	93 ff       	sbrs	r25, 3
    7e50:	81 91       	ld	r24, Z+
    7e52:	1f 01       	movw	r2, r30
    7e54:	85 32       	cpi	r24, 0x25	; 37
    7e56:	31 f4       	brne	.+12     	; 0x7e64 <vfprintf+0x82>
    7e58:	b7 01       	movw	r22, r14
    7e5a:	90 e0       	ldi	r25, 0x00	; 0
    7e5c:	0e d7       	rcall	.+3612   	; 0x8c7a <fputc>
    7e5e:	56 01       	movw	r10, r12
    7e60:	65 01       	movw	r12, r10
    7e62:	e6 cf       	rjmp	.-52     	; 0x7e30 <vfprintf+0x4e>
    7e64:	10 e0       	ldi	r17, 0x00	; 0
    7e66:	51 2c       	mov	r5, r1
    7e68:	91 2c       	mov	r9, r1
    7e6a:	ff e1       	ldi	r31, 0x1F	; 31
    7e6c:	f9 15       	cp	r31, r9
    7e6e:	d8 f0       	brcs	.+54     	; 0x7ea6 <vfprintf+0xc4>
    7e70:	8b 32       	cpi	r24, 0x2B	; 43
    7e72:	79 f0       	breq	.+30     	; 0x7e92 <vfprintf+0xb0>
    7e74:	38 f4       	brcc	.+14     	; 0x7e84 <vfprintf+0xa2>
    7e76:	80 32       	cpi	r24, 0x20	; 32
    7e78:	79 f0       	breq	.+30     	; 0x7e98 <vfprintf+0xb6>
    7e7a:	83 32       	cpi	r24, 0x23	; 35
    7e7c:	a1 f4       	brne	.+40     	; 0x7ea6 <vfprintf+0xc4>
    7e7e:	f9 2d       	mov	r31, r9
    7e80:	f0 61       	ori	r31, 0x10	; 16
    7e82:	2e c0       	rjmp	.+92     	; 0x7ee0 <vfprintf+0xfe>
    7e84:	8d 32       	cpi	r24, 0x2D	; 45
    7e86:	61 f0       	breq	.+24     	; 0x7ea0 <vfprintf+0xbe>
    7e88:	80 33       	cpi	r24, 0x30	; 48
    7e8a:	69 f4       	brne	.+26     	; 0x7ea6 <vfprintf+0xc4>
    7e8c:	29 2d       	mov	r18, r9
    7e8e:	21 60       	ori	r18, 0x01	; 1
    7e90:	2d c0       	rjmp	.+90     	; 0x7eec <vfprintf+0x10a>
    7e92:	39 2d       	mov	r19, r9
    7e94:	32 60       	ori	r19, 0x02	; 2
    7e96:	93 2e       	mov	r9, r19
    7e98:	89 2d       	mov	r24, r9
    7e9a:	84 60       	ori	r24, 0x04	; 4
    7e9c:	98 2e       	mov	r9, r24
    7e9e:	2a c0       	rjmp	.+84     	; 0x7ef4 <vfprintf+0x112>
    7ea0:	e9 2d       	mov	r30, r9
    7ea2:	e8 60       	ori	r30, 0x08	; 8
    7ea4:	15 c0       	rjmp	.+42     	; 0x7ed0 <vfprintf+0xee>
    7ea6:	97 fc       	sbrc	r9, 7
    7ea8:	2d c0       	rjmp	.+90     	; 0x7f04 <vfprintf+0x122>
    7eaa:	20 ed       	ldi	r18, 0xD0	; 208
    7eac:	28 0f       	add	r18, r24
    7eae:	2a 30       	cpi	r18, 0x0A	; 10
    7eb0:	88 f4       	brcc	.+34     	; 0x7ed4 <vfprintf+0xf2>
    7eb2:	96 fe       	sbrs	r9, 6
    7eb4:	06 c0       	rjmp	.+12     	; 0x7ec2 <vfprintf+0xe0>
    7eb6:	3a e0       	ldi	r19, 0x0A	; 10
    7eb8:	13 9f       	mul	r17, r19
    7eba:	20 0d       	add	r18, r0
    7ebc:	11 24       	eor	r1, r1
    7ebe:	12 2f       	mov	r17, r18
    7ec0:	19 c0       	rjmp	.+50     	; 0x7ef4 <vfprintf+0x112>
    7ec2:	8a e0       	ldi	r24, 0x0A	; 10
    7ec4:	58 9e       	mul	r5, r24
    7ec6:	20 0d       	add	r18, r0
    7ec8:	11 24       	eor	r1, r1
    7eca:	52 2e       	mov	r5, r18
    7ecc:	e9 2d       	mov	r30, r9
    7ece:	e0 62       	ori	r30, 0x20	; 32
    7ed0:	9e 2e       	mov	r9, r30
    7ed2:	10 c0       	rjmp	.+32     	; 0x7ef4 <vfprintf+0x112>
    7ed4:	8e 32       	cpi	r24, 0x2E	; 46
    7ed6:	31 f4       	brne	.+12     	; 0x7ee4 <vfprintf+0x102>
    7ed8:	96 fc       	sbrc	r9, 6
    7eda:	cc c2       	rjmp	.+1432   	; 0x8474 <vfprintf+0x692>
    7edc:	f9 2d       	mov	r31, r9
    7ede:	f0 64       	ori	r31, 0x40	; 64
    7ee0:	9f 2e       	mov	r9, r31
    7ee2:	08 c0       	rjmp	.+16     	; 0x7ef4 <vfprintf+0x112>
    7ee4:	8c 36       	cpi	r24, 0x6C	; 108
    7ee6:	21 f4       	brne	.+8      	; 0x7ef0 <vfprintf+0x10e>
    7ee8:	29 2d       	mov	r18, r9
    7eea:	20 68       	ori	r18, 0x80	; 128
    7eec:	92 2e       	mov	r9, r18
    7eee:	02 c0       	rjmp	.+4      	; 0x7ef4 <vfprintf+0x112>
    7ef0:	88 36       	cpi	r24, 0x68	; 104
    7ef2:	41 f4       	brne	.+16     	; 0x7f04 <vfprintf+0x122>
    7ef4:	f1 01       	movw	r30, r2
    7ef6:	93 fd       	sbrc	r25, 3
    7ef8:	85 91       	lpm	r24, Z+
    7efa:	93 ff       	sbrs	r25, 3
    7efc:	81 91       	ld	r24, Z+
    7efe:	1f 01       	movw	r2, r30
    7f00:	81 11       	cpse	r24, r1
    7f02:	b3 cf       	rjmp	.-154    	; 0x7e6a <vfprintf+0x88>
    7f04:	9b eb       	ldi	r25, 0xBB	; 187
    7f06:	98 0f       	add	r25, r24
    7f08:	93 30       	cpi	r25, 0x03	; 3
    7f0a:	20 f4       	brcc	.+8      	; 0x7f14 <vfprintf+0x132>
    7f0c:	99 2d       	mov	r25, r9
    7f0e:	90 61       	ori	r25, 0x10	; 16
    7f10:	80 5e       	subi	r24, 0xE0	; 224
    7f12:	07 c0       	rjmp	.+14     	; 0x7f22 <vfprintf+0x140>
    7f14:	9b e9       	ldi	r25, 0x9B	; 155
    7f16:	98 0f       	add	r25, r24
    7f18:	93 30       	cpi	r25, 0x03	; 3
    7f1a:	08 f0       	brcs	.+2      	; 0x7f1e <vfprintf+0x13c>
    7f1c:	59 c1       	rjmp	.+690    	; 0x81d0 <vfprintf+0x3ee>
    7f1e:	99 2d       	mov	r25, r9
    7f20:	9f 7e       	andi	r25, 0xEF	; 239
    7f22:	96 ff       	sbrs	r25, 6
    7f24:	16 e0       	ldi	r17, 0x06	; 6
    7f26:	9f 73       	andi	r25, 0x3F	; 63
    7f28:	99 2e       	mov	r9, r25
    7f2a:	85 36       	cpi	r24, 0x65	; 101
    7f2c:	19 f4       	brne	.+6      	; 0x7f34 <vfprintf+0x152>
    7f2e:	90 64       	ori	r25, 0x40	; 64
    7f30:	99 2e       	mov	r9, r25
    7f32:	08 c0       	rjmp	.+16     	; 0x7f44 <vfprintf+0x162>
    7f34:	86 36       	cpi	r24, 0x66	; 102
    7f36:	21 f4       	brne	.+8      	; 0x7f40 <vfprintf+0x15e>
    7f38:	39 2f       	mov	r19, r25
    7f3a:	30 68       	ori	r19, 0x80	; 128
    7f3c:	93 2e       	mov	r9, r19
    7f3e:	02 c0       	rjmp	.+4      	; 0x7f44 <vfprintf+0x162>
    7f40:	11 11       	cpse	r17, r1
    7f42:	11 50       	subi	r17, 0x01	; 1
    7f44:	97 fe       	sbrs	r9, 7
    7f46:	07 c0       	rjmp	.+14     	; 0x7f56 <vfprintf+0x174>
    7f48:	1c 33       	cpi	r17, 0x3C	; 60
    7f4a:	50 f4       	brcc	.+20     	; 0x7f60 <vfprintf+0x17e>
    7f4c:	44 24       	eor	r4, r4
    7f4e:	43 94       	inc	r4
    7f50:	41 0e       	add	r4, r17
    7f52:	27 e0       	ldi	r18, 0x07	; 7
    7f54:	0b c0       	rjmp	.+22     	; 0x7f6c <vfprintf+0x18a>
    7f56:	18 30       	cpi	r17, 0x08	; 8
    7f58:	38 f0       	brcs	.+14     	; 0x7f68 <vfprintf+0x186>
    7f5a:	27 e0       	ldi	r18, 0x07	; 7
    7f5c:	17 e0       	ldi	r17, 0x07	; 7
    7f5e:	05 c0       	rjmp	.+10     	; 0x7f6a <vfprintf+0x188>
    7f60:	27 e0       	ldi	r18, 0x07	; 7
    7f62:	9c e3       	ldi	r25, 0x3C	; 60
    7f64:	49 2e       	mov	r4, r25
    7f66:	02 c0       	rjmp	.+4      	; 0x7f6c <vfprintf+0x18a>
    7f68:	21 2f       	mov	r18, r17
    7f6a:	41 2c       	mov	r4, r1
    7f6c:	56 01       	movw	r10, r12
    7f6e:	84 e0       	ldi	r24, 0x04	; 4
    7f70:	a8 0e       	add	r10, r24
    7f72:	b1 1c       	adc	r11, r1
    7f74:	f6 01       	movw	r30, r12
    7f76:	60 81       	ld	r22, Z
    7f78:	71 81       	ldd	r23, Z+1	; 0x01
    7f7a:	82 81       	ldd	r24, Z+2	; 0x02
    7f7c:	93 81       	ldd	r25, Z+3	; 0x03
    7f7e:	04 2d       	mov	r16, r4
    7f80:	a3 01       	movw	r20, r6
    7f82:	6a d5       	rcall	.+2772   	; 0x8a58 <__ftoa_engine>
    7f84:	6c 01       	movw	r12, r24
    7f86:	f9 81       	ldd	r31, Y+1	; 0x01
    7f88:	fc 87       	std	Y+12, r31	; 0x0c
    7f8a:	f0 ff       	sbrs	r31, 0
    7f8c:	02 c0       	rjmp	.+4      	; 0x7f92 <vfprintf+0x1b0>
    7f8e:	f3 ff       	sbrs	r31, 3
    7f90:	06 c0       	rjmp	.+12     	; 0x7f9e <vfprintf+0x1bc>
    7f92:	91 fc       	sbrc	r9, 1
    7f94:	06 c0       	rjmp	.+12     	; 0x7fa2 <vfprintf+0x1c0>
    7f96:	92 fe       	sbrs	r9, 2
    7f98:	06 c0       	rjmp	.+12     	; 0x7fa6 <vfprintf+0x1c4>
    7f9a:	00 e2       	ldi	r16, 0x20	; 32
    7f9c:	05 c0       	rjmp	.+10     	; 0x7fa8 <vfprintf+0x1c6>
    7f9e:	0d e2       	ldi	r16, 0x2D	; 45
    7fa0:	03 c0       	rjmp	.+6      	; 0x7fa8 <vfprintf+0x1c6>
    7fa2:	0b e2       	ldi	r16, 0x2B	; 43
    7fa4:	01 c0       	rjmp	.+2      	; 0x7fa8 <vfprintf+0x1c6>
    7fa6:	00 e0       	ldi	r16, 0x00	; 0
    7fa8:	8c 85       	ldd	r24, Y+12	; 0x0c
    7faa:	8c 70       	andi	r24, 0x0C	; 12
    7fac:	19 f0       	breq	.+6      	; 0x7fb4 <vfprintf+0x1d2>
    7fae:	01 11       	cpse	r16, r1
    7fb0:	43 c2       	rjmp	.+1158   	; 0x8438 <vfprintf+0x656>
    7fb2:	80 c2       	rjmp	.+1280   	; 0x84b4 <vfprintf+0x6d2>
    7fb4:	97 fe       	sbrs	r9, 7
    7fb6:	10 c0       	rjmp	.+32     	; 0x7fd8 <vfprintf+0x1f6>
    7fb8:	4c 0c       	add	r4, r12
    7fba:	fc 85       	ldd	r31, Y+12	; 0x0c
    7fbc:	f4 ff       	sbrs	r31, 4
    7fbe:	04 c0       	rjmp	.+8      	; 0x7fc8 <vfprintf+0x1e6>
    7fc0:	8a 81       	ldd	r24, Y+2	; 0x02
    7fc2:	81 33       	cpi	r24, 0x31	; 49
    7fc4:	09 f4       	brne	.+2      	; 0x7fc8 <vfprintf+0x1e6>
    7fc6:	4a 94       	dec	r4
    7fc8:	14 14       	cp	r1, r4
    7fca:	74 f5       	brge	.+92     	; 0x8028 <vfprintf+0x246>
    7fcc:	28 e0       	ldi	r18, 0x08	; 8
    7fce:	24 15       	cp	r18, r4
    7fd0:	78 f5       	brcc	.+94     	; 0x8030 <vfprintf+0x24e>
    7fd2:	88 e0       	ldi	r24, 0x08	; 8
    7fd4:	48 2e       	mov	r4, r24
    7fd6:	2c c0       	rjmp	.+88     	; 0x8030 <vfprintf+0x24e>
    7fd8:	96 fc       	sbrc	r9, 6
    7fda:	2a c0       	rjmp	.+84     	; 0x8030 <vfprintf+0x24e>
    7fdc:	81 2f       	mov	r24, r17
    7fde:	90 e0       	ldi	r25, 0x00	; 0
    7fe0:	8c 15       	cp	r24, r12
    7fe2:	9d 05       	cpc	r25, r13
    7fe4:	9c f0       	brlt	.+38     	; 0x800c <vfprintf+0x22a>
    7fe6:	3c ef       	ldi	r19, 0xFC	; 252
    7fe8:	c3 16       	cp	r12, r19
    7fea:	3f ef       	ldi	r19, 0xFF	; 255
    7fec:	d3 06       	cpc	r13, r19
    7fee:	74 f0       	brlt	.+28     	; 0x800c <vfprintf+0x22a>
    7ff0:	89 2d       	mov	r24, r9
    7ff2:	80 68       	ori	r24, 0x80	; 128
    7ff4:	98 2e       	mov	r9, r24
    7ff6:	0a c0       	rjmp	.+20     	; 0x800c <vfprintf+0x22a>
    7ff8:	e2 e0       	ldi	r30, 0x02	; 2
    7ffa:	f0 e0       	ldi	r31, 0x00	; 0
    7ffc:	ec 0f       	add	r30, r28
    7ffe:	fd 1f       	adc	r31, r29
    8000:	e1 0f       	add	r30, r17
    8002:	f1 1d       	adc	r31, r1
    8004:	80 81       	ld	r24, Z
    8006:	80 33       	cpi	r24, 0x30	; 48
    8008:	19 f4       	brne	.+6      	; 0x8010 <vfprintf+0x22e>
    800a:	11 50       	subi	r17, 0x01	; 1
    800c:	11 11       	cpse	r17, r1
    800e:	f4 cf       	rjmp	.-24     	; 0x7ff8 <vfprintf+0x216>
    8010:	97 fe       	sbrs	r9, 7
    8012:	0e c0       	rjmp	.+28     	; 0x8030 <vfprintf+0x24e>
    8014:	44 24       	eor	r4, r4
    8016:	43 94       	inc	r4
    8018:	41 0e       	add	r4, r17
    801a:	81 2f       	mov	r24, r17
    801c:	90 e0       	ldi	r25, 0x00	; 0
    801e:	c8 16       	cp	r12, r24
    8020:	d9 06       	cpc	r13, r25
    8022:	2c f4       	brge	.+10     	; 0x802e <vfprintf+0x24c>
    8024:	1c 19       	sub	r17, r12
    8026:	04 c0       	rjmp	.+8      	; 0x8030 <vfprintf+0x24e>
    8028:	44 24       	eor	r4, r4
    802a:	43 94       	inc	r4
    802c:	01 c0       	rjmp	.+2      	; 0x8030 <vfprintf+0x24e>
    802e:	10 e0       	ldi	r17, 0x00	; 0
    8030:	97 fe       	sbrs	r9, 7
    8032:	06 c0       	rjmp	.+12     	; 0x8040 <vfprintf+0x25e>
    8034:	1c 14       	cp	r1, r12
    8036:	1d 04       	cpc	r1, r13
    8038:	34 f4       	brge	.+12     	; 0x8046 <vfprintf+0x264>
    803a:	c6 01       	movw	r24, r12
    803c:	01 96       	adiw	r24, 0x01	; 1
    803e:	05 c0       	rjmp	.+10     	; 0x804a <vfprintf+0x268>
    8040:	85 e0       	ldi	r24, 0x05	; 5
    8042:	90 e0       	ldi	r25, 0x00	; 0
    8044:	02 c0       	rjmp	.+4      	; 0x804a <vfprintf+0x268>
    8046:	81 e0       	ldi	r24, 0x01	; 1
    8048:	90 e0       	ldi	r25, 0x00	; 0
    804a:	01 11       	cpse	r16, r1
    804c:	01 96       	adiw	r24, 0x01	; 1
    804e:	11 23       	and	r17, r17
    8050:	31 f0       	breq	.+12     	; 0x805e <vfprintf+0x27c>
    8052:	21 2f       	mov	r18, r17
    8054:	30 e0       	ldi	r19, 0x00	; 0
    8056:	2f 5f       	subi	r18, 0xFF	; 255
    8058:	3f 4f       	sbci	r19, 0xFF	; 255
    805a:	82 0f       	add	r24, r18
    805c:	93 1f       	adc	r25, r19
    805e:	25 2d       	mov	r18, r5
    8060:	30 e0       	ldi	r19, 0x00	; 0
    8062:	82 17       	cp	r24, r18
    8064:	93 07       	cpc	r25, r19
    8066:	14 f4       	brge	.+4      	; 0x806c <vfprintf+0x28a>
    8068:	58 1a       	sub	r5, r24
    806a:	01 c0       	rjmp	.+2      	; 0x806e <vfprintf+0x28c>
    806c:	51 2c       	mov	r5, r1
    806e:	89 2d       	mov	r24, r9
    8070:	89 70       	andi	r24, 0x09	; 9
    8072:	41 f4       	brne	.+16     	; 0x8084 <vfprintf+0x2a2>
    8074:	55 20       	and	r5, r5
    8076:	31 f0       	breq	.+12     	; 0x8084 <vfprintf+0x2a2>
    8078:	b7 01       	movw	r22, r14
    807a:	80 e2       	ldi	r24, 0x20	; 32
    807c:	90 e0       	ldi	r25, 0x00	; 0
    807e:	fd d5       	rcall	.+3066   	; 0x8c7a <fputc>
    8080:	5a 94       	dec	r5
    8082:	f8 cf       	rjmp	.-16     	; 0x8074 <vfprintf+0x292>
    8084:	00 23       	and	r16, r16
    8086:	21 f0       	breq	.+8      	; 0x8090 <vfprintf+0x2ae>
    8088:	b7 01       	movw	r22, r14
    808a:	80 2f       	mov	r24, r16
    808c:	90 e0       	ldi	r25, 0x00	; 0
    808e:	f5 d5       	rcall	.+3050   	; 0x8c7a <fputc>
    8090:	93 fc       	sbrc	r9, 3
    8092:	08 c0       	rjmp	.+16     	; 0x80a4 <vfprintf+0x2c2>
    8094:	55 20       	and	r5, r5
    8096:	31 f0       	breq	.+12     	; 0x80a4 <vfprintf+0x2c2>
    8098:	b7 01       	movw	r22, r14
    809a:	80 e3       	ldi	r24, 0x30	; 48
    809c:	90 e0       	ldi	r25, 0x00	; 0
    809e:	ed d5       	rcall	.+3034   	; 0x8c7a <fputc>
    80a0:	5a 94       	dec	r5
    80a2:	f8 cf       	rjmp	.-16     	; 0x8094 <vfprintf+0x2b2>
    80a4:	97 fe       	sbrs	r9, 7
    80a6:	4a c0       	rjmp	.+148    	; 0x813c <vfprintf+0x35a>
    80a8:	46 01       	movw	r8, r12
    80aa:	d7 fe       	sbrs	r13, 7
    80ac:	02 c0       	rjmp	.+4      	; 0x80b2 <vfprintf+0x2d0>
    80ae:	81 2c       	mov	r8, r1
    80b0:	91 2c       	mov	r9, r1
    80b2:	c6 01       	movw	r24, r12
    80b4:	88 19       	sub	r24, r8
    80b6:	99 09       	sbc	r25, r9
    80b8:	f3 01       	movw	r30, r6
    80ba:	e8 0f       	add	r30, r24
    80bc:	f9 1f       	adc	r31, r25
    80be:	fe 87       	std	Y+14, r31	; 0x0e
    80c0:	ed 87       	std	Y+13, r30	; 0x0d
    80c2:	96 01       	movw	r18, r12
    80c4:	24 19       	sub	r18, r4
    80c6:	31 09       	sbc	r19, r1
    80c8:	38 8b       	std	Y+16, r19	; 0x10
    80ca:	2f 87       	std	Y+15, r18	; 0x0f
    80cc:	01 2f       	mov	r16, r17
    80ce:	10 e0       	ldi	r17, 0x00	; 0
    80d0:	11 95       	neg	r17
    80d2:	01 95       	neg	r16
    80d4:	11 09       	sbc	r17, r1
    80d6:	3f ef       	ldi	r19, 0xFF	; 255
    80d8:	83 16       	cp	r8, r19
    80da:	93 06       	cpc	r9, r19
    80dc:	21 f4       	brne	.+8      	; 0x80e6 <vfprintf+0x304>
    80de:	b7 01       	movw	r22, r14
    80e0:	8e e2       	ldi	r24, 0x2E	; 46
    80e2:	90 e0       	ldi	r25, 0x00	; 0
    80e4:	ca d5       	rcall	.+2964   	; 0x8c7a <fputc>
    80e6:	c8 14       	cp	r12, r8
    80e8:	d9 04       	cpc	r13, r9
    80ea:	4c f0       	brlt	.+18     	; 0x80fe <vfprintf+0x31c>
    80ec:	8f 85       	ldd	r24, Y+15	; 0x0f
    80ee:	98 89       	ldd	r25, Y+16	; 0x10
    80f0:	88 15       	cp	r24, r8
    80f2:	99 05       	cpc	r25, r9
    80f4:	24 f4       	brge	.+8      	; 0x80fe <vfprintf+0x31c>
    80f6:	ed 85       	ldd	r30, Y+13	; 0x0d
    80f8:	fe 85       	ldd	r31, Y+14	; 0x0e
    80fa:	81 81       	ldd	r24, Z+1	; 0x01
    80fc:	01 c0       	rjmp	.+2      	; 0x8100 <vfprintf+0x31e>
    80fe:	80 e3       	ldi	r24, 0x30	; 48
    8100:	f1 e0       	ldi	r31, 0x01	; 1
    8102:	8f 1a       	sub	r8, r31
    8104:	91 08       	sbc	r9, r1
    8106:	2d 85       	ldd	r18, Y+13	; 0x0d
    8108:	3e 85       	ldd	r19, Y+14	; 0x0e
    810a:	2f 5f       	subi	r18, 0xFF	; 255
    810c:	3f 4f       	sbci	r19, 0xFF	; 255
    810e:	3e 87       	std	Y+14, r19	; 0x0e
    8110:	2d 87       	std	Y+13, r18	; 0x0d
    8112:	80 16       	cp	r8, r16
    8114:	91 06       	cpc	r9, r17
    8116:	24 f0       	brlt	.+8      	; 0x8120 <vfprintf+0x33e>
    8118:	b7 01       	movw	r22, r14
    811a:	90 e0       	ldi	r25, 0x00	; 0
    811c:	ae d5       	rcall	.+2908   	; 0x8c7a <fputc>
    811e:	db cf       	rjmp	.-74     	; 0x80d6 <vfprintf+0x2f4>
    8120:	c8 14       	cp	r12, r8
    8122:	d9 04       	cpc	r13, r9
    8124:	41 f4       	brne	.+16     	; 0x8136 <vfprintf+0x354>
    8126:	9a 81       	ldd	r25, Y+2	; 0x02
    8128:	96 33       	cpi	r25, 0x36	; 54
    812a:	20 f4       	brcc	.+8      	; 0x8134 <vfprintf+0x352>
    812c:	95 33       	cpi	r25, 0x35	; 53
    812e:	19 f4       	brne	.+6      	; 0x8136 <vfprintf+0x354>
    8130:	3c 85       	ldd	r19, Y+12	; 0x0c
    8132:	34 ff       	sbrs	r19, 4
    8134:	81 e3       	ldi	r24, 0x31	; 49
    8136:	b7 01       	movw	r22, r14
    8138:	90 e0       	ldi	r25, 0x00	; 0
    813a:	48 c0       	rjmp	.+144    	; 0x81cc <vfprintf+0x3ea>
    813c:	8a 81       	ldd	r24, Y+2	; 0x02
    813e:	81 33       	cpi	r24, 0x31	; 49
    8140:	19 f0       	breq	.+6      	; 0x8148 <vfprintf+0x366>
    8142:	9c 85       	ldd	r25, Y+12	; 0x0c
    8144:	9f 7e       	andi	r25, 0xEF	; 239
    8146:	9c 87       	std	Y+12, r25	; 0x0c
    8148:	b7 01       	movw	r22, r14
    814a:	90 e0       	ldi	r25, 0x00	; 0
    814c:	96 d5       	rcall	.+2860   	; 0x8c7a <fputc>
    814e:	11 11       	cpse	r17, r1
    8150:	05 c0       	rjmp	.+10     	; 0x815c <vfprintf+0x37a>
    8152:	94 fc       	sbrc	r9, 4
    8154:	16 c0       	rjmp	.+44     	; 0x8182 <vfprintf+0x3a0>
    8156:	85 e6       	ldi	r24, 0x65	; 101
    8158:	90 e0       	ldi	r25, 0x00	; 0
    815a:	15 c0       	rjmp	.+42     	; 0x8186 <vfprintf+0x3a4>
    815c:	b7 01       	movw	r22, r14
    815e:	8e e2       	ldi	r24, 0x2E	; 46
    8160:	90 e0       	ldi	r25, 0x00	; 0
    8162:	8b d5       	rcall	.+2838   	; 0x8c7a <fputc>
    8164:	1e 5f       	subi	r17, 0xFE	; 254
    8166:	82 e0       	ldi	r24, 0x02	; 2
    8168:	01 e0       	ldi	r16, 0x01	; 1
    816a:	08 0f       	add	r16, r24
    816c:	f3 01       	movw	r30, r6
    816e:	e8 0f       	add	r30, r24
    8170:	f1 1d       	adc	r31, r1
    8172:	80 81       	ld	r24, Z
    8174:	b7 01       	movw	r22, r14
    8176:	90 e0       	ldi	r25, 0x00	; 0
    8178:	80 d5       	rcall	.+2816   	; 0x8c7a <fputc>
    817a:	80 2f       	mov	r24, r16
    817c:	01 13       	cpse	r16, r17
    817e:	f4 cf       	rjmp	.-24     	; 0x8168 <vfprintf+0x386>
    8180:	e8 cf       	rjmp	.-48     	; 0x8152 <vfprintf+0x370>
    8182:	85 e4       	ldi	r24, 0x45	; 69
    8184:	90 e0       	ldi	r25, 0x00	; 0
    8186:	b7 01       	movw	r22, r14
    8188:	78 d5       	rcall	.+2800   	; 0x8c7a <fputc>
    818a:	d7 fc       	sbrc	r13, 7
    818c:	06 c0       	rjmp	.+12     	; 0x819a <vfprintf+0x3b8>
    818e:	c1 14       	cp	r12, r1
    8190:	d1 04       	cpc	r13, r1
    8192:	41 f4       	brne	.+16     	; 0x81a4 <vfprintf+0x3c2>
    8194:	ec 85       	ldd	r30, Y+12	; 0x0c
    8196:	e4 ff       	sbrs	r30, 4
    8198:	05 c0       	rjmp	.+10     	; 0x81a4 <vfprintf+0x3c2>
    819a:	d1 94       	neg	r13
    819c:	c1 94       	neg	r12
    819e:	d1 08       	sbc	r13, r1
    81a0:	8d e2       	ldi	r24, 0x2D	; 45
    81a2:	01 c0       	rjmp	.+2      	; 0x81a6 <vfprintf+0x3c4>
    81a4:	8b e2       	ldi	r24, 0x2B	; 43
    81a6:	b7 01       	movw	r22, r14
    81a8:	90 e0       	ldi	r25, 0x00	; 0
    81aa:	67 d5       	rcall	.+2766   	; 0x8c7a <fputc>
    81ac:	80 e3       	ldi	r24, 0x30	; 48
    81ae:	2a e0       	ldi	r18, 0x0A	; 10
    81b0:	c2 16       	cp	r12, r18
    81b2:	d1 04       	cpc	r13, r1
    81b4:	2c f0       	brlt	.+10     	; 0x81c0 <vfprintf+0x3de>
    81b6:	8f 5f       	subi	r24, 0xFF	; 255
    81b8:	fa e0       	ldi	r31, 0x0A	; 10
    81ba:	cf 1a       	sub	r12, r31
    81bc:	d1 08       	sbc	r13, r1
    81be:	f7 cf       	rjmp	.-18     	; 0x81ae <vfprintf+0x3cc>
    81c0:	b7 01       	movw	r22, r14
    81c2:	90 e0       	ldi	r25, 0x00	; 0
    81c4:	5a d5       	rcall	.+2740   	; 0x8c7a <fputc>
    81c6:	b7 01       	movw	r22, r14
    81c8:	c6 01       	movw	r24, r12
    81ca:	c0 96       	adiw	r24, 0x30	; 48
    81cc:	56 d5       	rcall	.+2732   	; 0x8c7a <fputc>
    81ce:	49 c1       	rjmp	.+658    	; 0x8462 <vfprintf+0x680>
    81d0:	83 36       	cpi	r24, 0x63	; 99
    81d2:	31 f0       	breq	.+12     	; 0x81e0 <vfprintf+0x3fe>
    81d4:	83 37       	cpi	r24, 0x73	; 115
    81d6:	79 f0       	breq	.+30     	; 0x81f6 <vfprintf+0x414>
    81d8:	83 35       	cpi	r24, 0x53	; 83
    81da:	09 f0       	breq	.+2      	; 0x81de <vfprintf+0x3fc>
    81dc:	52 c0       	rjmp	.+164    	; 0x8282 <vfprintf+0x4a0>
    81de:	1f c0       	rjmp	.+62     	; 0x821e <vfprintf+0x43c>
    81e0:	56 01       	movw	r10, r12
    81e2:	32 e0       	ldi	r19, 0x02	; 2
    81e4:	a3 0e       	add	r10, r19
    81e6:	b1 1c       	adc	r11, r1
    81e8:	f6 01       	movw	r30, r12
    81ea:	80 81       	ld	r24, Z
    81ec:	89 83       	std	Y+1, r24	; 0x01
    81ee:	01 e0       	ldi	r16, 0x01	; 1
    81f0:	10 e0       	ldi	r17, 0x00	; 0
    81f2:	63 01       	movw	r12, r6
    81f4:	11 c0       	rjmp	.+34     	; 0x8218 <vfprintf+0x436>
    81f6:	56 01       	movw	r10, r12
    81f8:	f2 e0       	ldi	r31, 0x02	; 2
    81fa:	af 0e       	add	r10, r31
    81fc:	b1 1c       	adc	r11, r1
    81fe:	f6 01       	movw	r30, r12
    8200:	c0 80       	ld	r12, Z
    8202:	d1 80       	ldd	r13, Z+1	; 0x01
    8204:	96 fe       	sbrs	r9, 6
    8206:	03 c0       	rjmp	.+6      	; 0x820e <vfprintf+0x42c>
    8208:	61 2f       	mov	r22, r17
    820a:	70 e0       	ldi	r23, 0x00	; 0
    820c:	02 c0       	rjmp	.+4      	; 0x8212 <vfprintf+0x430>
    820e:	6f ef       	ldi	r22, 0xFF	; 255
    8210:	7f ef       	ldi	r23, 0xFF	; 255
    8212:	c6 01       	movw	r24, r12
    8214:	12 d5       	rcall	.+2596   	; 0x8c3a <strnlen>
    8216:	8c 01       	movw	r16, r24
    8218:	f9 2d       	mov	r31, r9
    821a:	ff 77       	andi	r31, 0x7F	; 127
    821c:	13 c0       	rjmp	.+38     	; 0x8244 <vfprintf+0x462>
    821e:	56 01       	movw	r10, r12
    8220:	22 e0       	ldi	r18, 0x02	; 2
    8222:	a2 0e       	add	r10, r18
    8224:	b1 1c       	adc	r11, r1
    8226:	f6 01       	movw	r30, r12
    8228:	c0 80       	ld	r12, Z
    822a:	d1 80       	ldd	r13, Z+1	; 0x01
    822c:	96 fe       	sbrs	r9, 6
    822e:	03 c0       	rjmp	.+6      	; 0x8236 <vfprintf+0x454>
    8230:	61 2f       	mov	r22, r17
    8232:	70 e0       	ldi	r23, 0x00	; 0
    8234:	02 c0       	rjmp	.+4      	; 0x823a <vfprintf+0x458>
    8236:	6f ef       	ldi	r22, 0xFF	; 255
    8238:	7f ef       	ldi	r23, 0xFF	; 255
    823a:	c6 01       	movw	r24, r12
    823c:	ec d4       	rcall	.+2520   	; 0x8c16 <strnlen_P>
    823e:	8c 01       	movw	r16, r24
    8240:	f9 2d       	mov	r31, r9
    8242:	f0 68       	ori	r31, 0x80	; 128
    8244:	9f 2e       	mov	r9, r31
    8246:	f3 fd       	sbrc	r31, 3
    8248:	18 c0       	rjmp	.+48     	; 0x827a <vfprintf+0x498>
    824a:	85 2d       	mov	r24, r5
    824c:	90 e0       	ldi	r25, 0x00	; 0
    824e:	08 17       	cp	r16, r24
    8250:	19 07       	cpc	r17, r25
    8252:	98 f4       	brcc	.+38     	; 0x827a <vfprintf+0x498>
    8254:	b7 01       	movw	r22, r14
    8256:	80 e2       	ldi	r24, 0x20	; 32
    8258:	90 e0       	ldi	r25, 0x00	; 0
    825a:	0f d5       	rcall	.+2590   	; 0x8c7a <fputc>
    825c:	5a 94       	dec	r5
    825e:	f5 cf       	rjmp	.-22     	; 0x824a <vfprintf+0x468>
    8260:	f6 01       	movw	r30, r12
    8262:	97 fc       	sbrc	r9, 7
    8264:	85 91       	lpm	r24, Z+
    8266:	97 fe       	sbrs	r9, 7
    8268:	81 91       	ld	r24, Z+
    826a:	6f 01       	movw	r12, r30
    826c:	b7 01       	movw	r22, r14
    826e:	90 e0       	ldi	r25, 0x00	; 0
    8270:	04 d5       	rcall	.+2568   	; 0x8c7a <fputc>
    8272:	51 10       	cpse	r5, r1
    8274:	5a 94       	dec	r5
    8276:	01 50       	subi	r16, 0x01	; 1
    8278:	11 09       	sbc	r17, r1
    827a:	01 15       	cp	r16, r1
    827c:	11 05       	cpc	r17, r1
    827e:	81 f7       	brne	.-32     	; 0x8260 <vfprintf+0x47e>
    8280:	f0 c0       	rjmp	.+480    	; 0x8462 <vfprintf+0x680>
    8282:	84 36       	cpi	r24, 0x64	; 100
    8284:	11 f0       	breq	.+4      	; 0x828a <vfprintf+0x4a8>
    8286:	89 36       	cpi	r24, 0x69	; 105
    8288:	59 f5       	brne	.+86     	; 0x82e0 <vfprintf+0x4fe>
    828a:	56 01       	movw	r10, r12
    828c:	97 fe       	sbrs	r9, 7
    828e:	09 c0       	rjmp	.+18     	; 0x82a2 <vfprintf+0x4c0>
    8290:	24 e0       	ldi	r18, 0x04	; 4
    8292:	a2 0e       	add	r10, r18
    8294:	b1 1c       	adc	r11, r1
    8296:	f6 01       	movw	r30, r12
    8298:	60 81       	ld	r22, Z
    829a:	71 81       	ldd	r23, Z+1	; 0x01
    829c:	82 81       	ldd	r24, Z+2	; 0x02
    829e:	93 81       	ldd	r25, Z+3	; 0x03
    82a0:	0a c0       	rjmp	.+20     	; 0x82b6 <vfprintf+0x4d4>
    82a2:	f2 e0       	ldi	r31, 0x02	; 2
    82a4:	af 0e       	add	r10, r31
    82a6:	b1 1c       	adc	r11, r1
    82a8:	f6 01       	movw	r30, r12
    82aa:	60 81       	ld	r22, Z
    82ac:	71 81       	ldd	r23, Z+1	; 0x01
    82ae:	07 2e       	mov	r0, r23
    82b0:	00 0c       	add	r0, r0
    82b2:	88 0b       	sbc	r24, r24
    82b4:	99 0b       	sbc	r25, r25
    82b6:	f9 2d       	mov	r31, r9
    82b8:	ff 76       	andi	r31, 0x6F	; 111
    82ba:	9f 2e       	mov	r9, r31
    82bc:	97 ff       	sbrs	r25, 7
    82be:	09 c0       	rjmp	.+18     	; 0x82d2 <vfprintf+0x4f0>
    82c0:	90 95       	com	r25
    82c2:	80 95       	com	r24
    82c4:	70 95       	com	r23
    82c6:	61 95       	neg	r22
    82c8:	7f 4f       	sbci	r23, 0xFF	; 255
    82ca:	8f 4f       	sbci	r24, 0xFF	; 255
    82cc:	9f 4f       	sbci	r25, 0xFF	; 255
    82ce:	f0 68       	ori	r31, 0x80	; 128
    82d0:	9f 2e       	mov	r9, r31
    82d2:	2a e0       	ldi	r18, 0x0A	; 10
    82d4:	30 e0       	ldi	r19, 0x00	; 0
    82d6:	a3 01       	movw	r20, r6
    82d8:	5b d5       	rcall	.+2742   	; 0x8d90 <__ultoa_invert>
    82da:	c8 2e       	mov	r12, r24
    82dc:	c6 18       	sub	r12, r6
    82de:	3e c0       	rjmp	.+124    	; 0x835c <vfprintf+0x57a>
    82e0:	09 2d       	mov	r16, r9
    82e2:	85 37       	cpi	r24, 0x75	; 117
    82e4:	21 f4       	brne	.+8      	; 0x82ee <vfprintf+0x50c>
    82e6:	0f 7e       	andi	r16, 0xEF	; 239
    82e8:	2a e0       	ldi	r18, 0x0A	; 10
    82ea:	30 e0       	ldi	r19, 0x00	; 0
    82ec:	1d c0       	rjmp	.+58     	; 0x8328 <vfprintf+0x546>
    82ee:	09 7f       	andi	r16, 0xF9	; 249
    82f0:	8f 36       	cpi	r24, 0x6F	; 111
    82f2:	91 f0       	breq	.+36     	; 0x8318 <vfprintf+0x536>
    82f4:	18 f4       	brcc	.+6      	; 0x82fc <vfprintf+0x51a>
    82f6:	88 35       	cpi	r24, 0x58	; 88
    82f8:	59 f0       	breq	.+22     	; 0x8310 <vfprintf+0x52e>
    82fa:	bc c0       	rjmp	.+376    	; 0x8474 <vfprintf+0x692>
    82fc:	80 37       	cpi	r24, 0x70	; 112
    82fe:	19 f0       	breq	.+6      	; 0x8306 <vfprintf+0x524>
    8300:	88 37       	cpi	r24, 0x78	; 120
    8302:	11 f0       	breq	.+4      	; 0x8308 <vfprintf+0x526>
    8304:	b7 c0       	rjmp	.+366    	; 0x8474 <vfprintf+0x692>
    8306:	00 61       	ori	r16, 0x10	; 16
    8308:	04 ff       	sbrs	r16, 4
    830a:	09 c0       	rjmp	.+18     	; 0x831e <vfprintf+0x53c>
    830c:	04 60       	ori	r16, 0x04	; 4
    830e:	07 c0       	rjmp	.+14     	; 0x831e <vfprintf+0x53c>
    8310:	94 fe       	sbrs	r9, 4
    8312:	08 c0       	rjmp	.+16     	; 0x8324 <vfprintf+0x542>
    8314:	06 60       	ori	r16, 0x06	; 6
    8316:	06 c0       	rjmp	.+12     	; 0x8324 <vfprintf+0x542>
    8318:	28 e0       	ldi	r18, 0x08	; 8
    831a:	30 e0       	ldi	r19, 0x00	; 0
    831c:	05 c0       	rjmp	.+10     	; 0x8328 <vfprintf+0x546>
    831e:	20 e1       	ldi	r18, 0x10	; 16
    8320:	30 e0       	ldi	r19, 0x00	; 0
    8322:	02 c0       	rjmp	.+4      	; 0x8328 <vfprintf+0x546>
    8324:	20 e1       	ldi	r18, 0x10	; 16
    8326:	32 e0       	ldi	r19, 0x02	; 2
    8328:	56 01       	movw	r10, r12
    832a:	07 ff       	sbrs	r16, 7
    832c:	09 c0       	rjmp	.+18     	; 0x8340 <vfprintf+0x55e>
    832e:	84 e0       	ldi	r24, 0x04	; 4
    8330:	a8 0e       	add	r10, r24
    8332:	b1 1c       	adc	r11, r1
    8334:	f6 01       	movw	r30, r12
    8336:	60 81       	ld	r22, Z
    8338:	71 81       	ldd	r23, Z+1	; 0x01
    833a:	82 81       	ldd	r24, Z+2	; 0x02
    833c:	93 81       	ldd	r25, Z+3	; 0x03
    833e:	08 c0       	rjmp	.+16     	; 0x8350 <vfprintf+0x56e>
    8340:	f2 e0       	ldi	r31, 0x02	; 2
    8342:	af 0e       	add	r10, r31
    8344:	b1 1c       	adc	r11, r1
    8346:	f6 01       	movw	r30, r12
    8348:	60 81       	ld	r22, Z
    834a:	71 81       	ldd	r23, Z+1	; 0x01
    834c:	80 e0       	ldi	r24, 0x00	; 0
    834e:	90 e0       	ldi	r25, 0x00	; 0
    8350:	a3 01       	movw	r20, r6
    8352:	1e d5       	rcall	.+2620   	; 0x8d90 <__ultoa_invert>
    8354:	c8 2e       	mov	r12, r24
    8356:	c6 18       	sub	r12, r6
    8358:	0f 77       	andi	r16, 0x7F	; 127
    835a:	90 2e       	mov	r9, r16
    835c:	96 fe       	sbrs	r9, 6
    835e:	0b c0       	rjmp	.+22     	; 0x8376 <vfprintf+0x594>
    8360:	09 2d       	mov	r16, r9
    8362:	0e 7f       	andi	r16, 0xFE	; 254
    8364:	c1 16       	cp	r12, r17
    8366:	50 f4       	brcc	.+20     	; 0x837c <vfprintf+0x59a>
    8368:	94 fe       	sbrs	r9, 4
    836a:	0a c0       	rjmp	.+20     	; 0x8380 <vfprintf+0x59e>
    836c:	92 fc       	sbrc	r9, 2
    836e:	08 c0       	rjmp	.+16     	; 0x8380 <vfprintf+0x59e>
    8370:	09 2d       	mov	r16, r9
    8372:	0e 7e       	andi	r16, 0xEE	; 238
    8374:	05 c0       	rjmp	.+10     	; 0x8380 <vfprintf+0x59e>
    8376:	dc 2c       	mov	r13, r12
    8378:	09 2d       	mov	r16, r9
    837a:	03 c0       	rjmp	.+6      	; 0x8382 <vfprintf+0x5a0>
    837c:	dc 2c       	mov	r13, r12
    837e:	01 c0       	rjmp	.+2      	; 0x8382 <vfprintf+0x5a0>
    8380:	d1 2e       	mov	r13, r17
    8382:	04 ff       	sbrs	r16, 4
    8384:	0d c0       	rjmp	.+26     	; 0x83a0 <vfprintf+0x5be>
    8386:	fe 01       	movw	r30, r28
    8388:	ec 0d       	add	r30, r12
    838a:	f1 1d       	adc	r31, r1
    838c:	80 81       	ld	r24, Z
    838e:	80 33       	cpi	r24, 0x30	; 48
    8390:	11 f4       	brne	.+4      	; 0x8396 <vfprintf+0x5b4>
    8392:	09 7e       	andi	r16, 0xE9	; 233
    8394:	09 c0       	rjmp	.+18     	; 0x83a8 <vfprintf+0x5c6>
    8396:	02 ff       	sbrs	r16, 2
    8398:	06 c0       	rjmp	.+12     	; 0x83a6 <vfprintf+0x5c4>
    839a:	d3 94       	inc	r13
    839c:	d3 94       	inc	r13
    839e:	04 c0       	rjmp	.+8      	; 0x83a8 <vfprintf+0x5c6>
    83a0:	80 2f       	mov	r24, r16
    83a2:	86 78       	andi	r24, 0x86	; 134
    83a4:	09 f0       	breq	.+2      	; 0x83a8 <vfprintf+0x5c6>
    83a6:	d3 94       	inc	r13
    83a8:	03 fd       	sbrc	r16, 3
    83aa:	10 c0       	rjmp	.+32     	; 0x83cc <vfprintf+0x5ea>
    83ac:	00 ff       	sbrs	r16, 0
    83ae:	06 c0       	rjmp	.+12     	; 0x83bc <vfprintf+0x5da>
    83b0:	1c 2d       	mov	r17, r12
    83b2:	d5 14       	cp	r13, r5
    83b4:	78 f4       	brcc	.+30     	; 0x83d4 <vfprintf+0x5f2>
    83b6:	15 0d       	add	r17, r5
    83b8:	1d 19       	sub	r17, r13
    83ba:	0c c0       	rjmp	.+24     	; 0x83d4 <vfprintf+0x5f2>
    83bc:	d5 14       	cp	r13, r5
    83be:	50 f4       	brcc	.+20     	; 0x83d4 <vfprintf+0x5f2>
    83c0:	b7 01       	movw	r22, r14
    83c2:	80 e2       	ldi	r24, 0x20	; 32
    83c4:	90 e0       	ldi	r25, 0x00	; 0
    83c6:	59 d4       	rcall	.+2226   	; 0x8c7a <fputc>
    83c8:	d3 94       	inc	r13
    83ca:	f8 cf       	rjmp	.-16     	; 0x83bc <vfprintf+0x5da>
    83cc:	d5 14       	cp	r13, r5
    83ce:	10 f4       	brcc	.+4      	; 0x83d4 <vfprintf+0x5f2>
    83d0:	5d 18       	sub	r5, r13
    83d2:	01 c0       	rjmp	.+2      	; 0x83d6 <vfprintf+0x5f4>
    83d4:	51 2c       	mov	r5, r1
    83d6:	04 ff       	sbrs	r16, 4
    83d8:	0f c0       	rjmp	.+30     	; 0x83f8 <vfprintf+0x616>
    83da:	b7 01       	movw	r22, r14
    83dc:	80 e3       	ldi	r24, 0x30	; 48
    83de:	90 e0       	ldi	r25, 0x00	; 0
    83e0:	4c d4       	rcall	.+2200   	; 0x8c7a <fputc>
    83e2:	02 ff       	sbrs	r16, 2
    83e4:	16 c0       	rjmp	.+44     	; 0x8412 <vfprintf+0x630>
    83e6:	01 fd       	sbrc	r16, 1
    83e8:	03 c0       	rjmp	.+6      	; 0x83f0 <vfprintf+0x60e>
    83ea:	88 e7       	ldi	r24, 0x78	; 120
    83ec:	90 e0       	ldi	r25, 0x00	; 0
    83ee:	02 c0       	rjmp	.+4      	; 0x83f4 <vfprintf+0x612>
    83f0:	88 e5       	ldi	r24, 0x58	; 88
    83f2:	90 e0       	ldi	r25, 0x00	; 0
    83f4:	b7 01       	movw	r22, r14
    83f6:	0c c0       	rjmp	.+24     	; 0x8410 <vfprintf+0x62e>
    83f8:	80 2f       	mov	r24, r16
    83fa:	86 78       	andi	r24, 0x86	; 134
    83fc:	51 f0       	breq	.+20     	; 0x8412 <vfprintf+0x630>
    83fe:	01 ff       	sbrs	r16, 1
    8400:	02 c0       	rjmp	.+4      	; 0x8406 <vfprintf+0x624>
    8402:	8b e2       	ldi	r24, 0x2B	; 43
    8404:	01 c0       	rjmp	.+2      	; 0x8408 <vfprintf+0x626>
    8406:	80 e2       	ldi	r24, 0x20	; 32
    8408:	07 fd       	sbrc	r16, 7
    840a:	8d e2       	ldi	r24, 0x2D	; 45
    840c:	b7 01       	movw	r22, r14
    840e:	90 e0       	ldi	r25, 0x00	; 0
    8410:	34 d4       	rcall	.+2152   	; 0x8c7a <fputc>
    8412:	c1 16       	cp	r12, r17
    8414:	30 f4       	brcc	.+12     	; 0x8422 <vfprintf+0x640>
    8416:	b7 01       	movw	r22, r14
    8418:	80 e3       	ldi	r24, 0x30	; 48
    841a:	90 e0       	ldi	r25, 0x00	; 0
    841c:	2e d4       	rcall	.+2140   	; 0x8c7a <fputc>
    841e:	11 50       	subi	r17, 0x01	; 1
    8420:	f8 cf       	rjmp	.-16     	; 0x8412 <vfprintf+0x630>
    8422:	ca 94       	dec	r12
    8424:	f3 01       	movw	r30, r6
    8426:	ec 0d       	add	r30, r12
    8428:	f1 1d       	adc	r31, r1
    842a:	80 81       	ld	r24, Z
    842c:	b7 01       	movw	r22, r14
    842e:	90 e0       	ldi	r25, 0x00	; 0
    8430:	24 d4       	rcall	.+2120   	; 0x8c7a <fputc>
    8432:	c1 10       	cpse	r12, r1
    8434:	f6 cf       	rjmp	.-20     	; 0x8422 <vfprintf+0x640>
    8436:	15 c0       	rjmp	.+42     	; 0x8462 <vfprintf+0x680>
    8438:	f4 e0       	ldi	r31, 0x04	; 4
    843a:	f5 15       	cp	r31, r5
    843c:	50 f5       	brcc	.+84     	; 0x8492 <vfprintf+0x6b0>
    843e:	84 e0       	ldi	r24, 0x04	; 4
    8440:	58 1a       	sub	r5, r24
    8442:	93 fe       	sbrs	r9, 3
    8444:	1e c0       	rjmp	.+60     	; 0x8482 <vfprintf+0x6a0>
    8446:	01 11       	cpse	r16, r1
    8448:	25 c0       	rjmp	.+74     	; 0x8494 <vfprintf+0x6b2>
    844a:	2c 85       	ldd	r18, Y+12	; 0x0c
    844c:	23 ff       	sbrs	r18, 3
    844e:	27 c0       	rjmp	.+78     	; 0x849e <vfprintf+0x6bc>
    8450:	04 ea       	ldi	r16, 0xA4	; 164
    8452:	11 e0       	ldi	r17, 0x01	; 1
    8454:	39 2d       	mov	r19, r9
    8456:	30 71       	andi	r19, 0x10	; 16
    8458:	93 2e       	mov	r9, r19
    845a:	f8 01       	movw	r30, r16
    845c:	84 91       	lpm	r24, Z
    845e:	81 11       	cpse	r24, r1
    8460:	21 c0       	rjmp	.+66     	; 0x84a4 <vfprintf+0x6c2>
    8462:	55 20       	and	r5, r5
    8464:	09 f4       	brne	.+2      	; 0x8468 <vfprintf+0x686>
    8466:	fc cc       	rjmp	.-1544   	; 0x7e60 <vfprintf+0x7e>
    8468:	b7 01       	movw	r22, r14
    846a:	80 e2       	ldi	r24, 0x20	; 32
    846c:	90 e0       	ldi	r25, 0x00	; 0
    846e:	05 d4       	rcall	.+2058   	; 0x8c7a <fputc>
    8470:	5a 94       	dec	r5
    8472:	f7 cf       	rjmp	.-18     	; 0x8462 <vfprintf+0x680>
    8474:	f7 01       	movw	r30, r14
    8476:	86 81       	ldd	r24, Z+6	; 0x06
    8478:	97 81       	ldd	r25, Z+7	; 0x07
    847a:	23 c0       	rjmp	.+70     	; 0x84c2 <vfprintf+0x6e0>
    847c:	8f ef       	ldi	r24, 0xFF	; 255
    847e:	9f ef       	ldi	r25, 0xFF	; 255
    8480:	20 c0       	rjmp	.+64     	; 0x84c2 <vfprintf+0x6e0>
    8482:	b7 01       	movw	r22, r14
    8484:	80 e2       	ldi	r24, 0x20	; 32
    8486:	90 e0       	ldi	r25, 0x00	; 0
    8488:	f8 d3       	rcall	.+2032   	; 0x8c7a <fputc>
    848a:	5a 94       	dec	r5
    848c:	51 10       	cpse	r5, r1
    848e:	f9 cf       	rjmp	.-14     	; 0x8482 <vfprintf+0x6a0>
    8490:	da cf       	rjmp	.-76     	; 0x8446 <vfprintf+0x664>
    8492:	51 2c       	mov	r5, r1
    8494:	b7 01       	movw	r22, r14
    8496:	80 2f       	mov	r24, r16
    8498:	90 e0       	ldi	r25, 0x00	; 0
    849a:	ef d3       	rcall	.+2014   	; 0x8c7a <fputc>
    849c:	d6 cf       	rjmp	.-84     	; 0x844a <vfprintf+0x668>
    849e:	08 ea       	ldi	r16, 0xA8	; 168
    84a0:	11 e0       	ldi	r17, 0x01	; 1
    84a2:	d8 cf       	rjmp	.-80     	; 0x8454 <vfprintf+0x672>
    84a4:	91 10       	cpse	r9, r1
    84a6:	80 52       	subi	r24, 0x20	; 32
    84a8:	b7 01       	movw	r22, r14
    84aa:	90 e0       	ldi	r25, 0x00	; 0
    84ac:	e6 d3       	rcall	.+1996   	; 0x8c7a <fputc>
    84ae:	0f 5f       	subi	r16, 0xFF	; 255
    84b0:	1f 4f       	sbci	r17, 0xFF	; 255
    84b2:	d3 cf       	rjmp	.-90     	; 0x845a <vfprintf+0x678>
    84b4:	23 e0       	ldi	r18, 0x03	; 3
    84b6:	25 15       	cp	r18, r5
    84b8:	10 f4       	brcc	.+4      	; 0x84be <vfprintf+0x6dc>
    84ba:	83 e0       	ldi	r24, 0x03	; 3
    84bc:	c1 cf       	rjmp	.-126    	; 0x8440 <vfprintf+0x65e>
    84be:	51 2c       	mov	r5, r1
    84c0:	c4 cf       	rjmp	.-120    	; 0x844a <vfprintf+0x668>
    84c2:	60 96       	adiw	r28, 0x10	; 16
    84c4:	0f b6       	in	r0, 0x3f	; 63
    84c6:	f8 94       	cli
    84c8:	de bf       	out	0x3e, r29	; 62
    84ca:	0f be       	out	0x3f, r0	; 63
    84cc:	cd bf       	out	0x3d, r28	; 61
    84ce:	df 91       	pop	r29
    84d0:	cf 91       	pop	r28
    84d2:	1f 91       	pop	r17
    84d4:	0f 91       	pop	r16
    84d6:	ff 90       	pop	r15
    84d8:	ef 90       	pop	r14
    84da:	df 90       	pop	r13
    84dc:	cf 90       	pop	r12
    84de:	bf 90       	pop	r11
    84e0:	af 90       	pop	r10
    84e2:	9f 90       	pop	r9
    84e4:	8f 90       	pop	r8
    84e6:	7f 90       	pop	r7
    84e8:	6f 90       	pop	r6
    84ea:	5f 90       	pop	r5
    84ec:	4f 90       	pop	r4
    84ee:	3f 90       	pop	r3
    84f0:	2f 90       	pop	r2
    84f2:	08 95       	ret

000084f4 <__subsf3>:
    84f4:	50 58       	subi	r21, 0x80	; 128

000084f6 <__addsf3>:
    84f6:	bb 27       	eor	r27, r27
    84f8:	aa 27       	eor	r26, r26
    84fa:	0e d0       	rcall	.+28     	; 0x8518 <__addsf3x>
    84fc:	75 c1       	rjmp	.+746    	; 0x87e8 <__fp_round>
    84fe:	66 d1       	rcall	.+716    	; 0x87cc <__fp_pscA>
    8500:	30 f0       	brcs	.+12     	; 0x850e <__addsf3+0x18>
    8502:	6b d1       	rcall	.+726    	; 0x87da <__fp_pscB>
    8504:	20 f0       	brcs	.+8      	; 0x850e <__addsf3+0x18>
    8506:	31 f4       	brne	.+12     	; 0x8514 <__addsf3+0x1e>
    8508:	9f 3f       	cpi	r25, 0xFF	; 255
    850a:	11 f4       	brne	.+4      	; 0x8510 <__addsf3+0x1a>
    850c:	1e f4       	brtc	.+6      	; 0x8514 <__addsf3+0x1e>
    850e:	5b c1       	rjmp	.+694    	; 0x87c6 <__fp_nan>
    8510:	0e f4       	brtc	.+2      	; 0x8514 <__addsf3+0x1e>
    8512:	e0 95       	com	r30
    8514:	e7 fb       	bst	r30, 7
    8516:	51 c1       	rjmp	.+674    	; 0x87ba <__fp_inf>

00008518 <__addsf3x>:
    8518:	e9 2f       	mov	r30, r25
    851a:	77 d1       	rcall	.+750    	; 0x880a <__fp_split3>
    851c:	80 f3       	brcs	.-32     	; 0x84fe <__addsf3+0x8>
    851e:	ba 17       	cp	r27, r26
    8520:	62 07       	cpc	r22, r18
    8522:	73 07       	cpc	r23, r19
    8524:	84 07       	cpc	r24, r20
    8526:	95 07       	cpc	r25, r21
    8528:	18 f0       	brcs	.+6      	; 0x8530 <__addsf3x+0x18>
    852a:	71 f4       	brne	.+28     	; 0x8548 <__addsf3x+0x30>
    852c:	9e f5       	brtc	.+102    	; 0x8594 <__addsf3x+0x7c>
    852e:	8f c1       	rjmp	.+798    	; 0x884e <__fp_zero>
    8530:	0e f4       	brtc	.+2      	; 0x8534 <__addsf3x+0x1c>
    8532:	e0 95       	com	r30
    8534:	0b 2e       	mov	r0, r27
    8536:	ba 2f       	mov	r27, r26
    8538:	a0 2d       	mov	r26, r0
    853a:	0b 01       	movw	r0, r22
    853c:	b9 01       	movw	r22, r18
    853e:	90 01       	movw	r18, r0
    8540:	0c 01       	movw	r0, r24
    8542:	ca 01       	movw	r24, r20
    8544:	a0 01       	movw	r20, r0
    8546:	11 24       	eor	r1, r1
    8548:	ff 27       	eor	r31, r31
    854a:	59 1b       	sub	r21, r25
    854c:	99 f0       	breq	.+38     	; 0x8574 <__addsf3x+0x5c>
    854e:	59 3f       	cpi	r21, 0xF9	; 249
    8550:	50 f4       	brcc	.+20     	; 0x8566 <__addsf3x+0x4e>
    8552:	50 3e       	cpi	r21, 0xE0	; 224
    8554:	68 f1       	brcs	.+90     	; 0x85b0 <__addsf3x+0x98>
    8556:	1a 16       	cp	r1, r26
    8558:	f0 40       	sbci	r31, 0x00	; 0
    855a:	a2 2f       	mov	r26, r18
    855c:	23 2f       	mov	r18, r19
    855e:	34 2f       	mov	r19, r20
    8560:	44 27       	eor	r20, r20
    8562:	58 5f       	subi	r21, 0xF8	; 248
    8564:	f3 cf       	rjmp	.-26     	; 0x854c <__addsf3x+0x34>
    8566:	46 95       	lsr	r20
    8568:	37 95       	ror	r19
    856a:	27 95       	ror	r18
    856c:	a7 95       	ror	r26
    856e:	f0 40       	sbci	r31, 0x00	; 0
    8570:	53 95       	inc	r21
    8572:	c9 f7       	brne	.-14     	; 0x8566 <__addsf3x+0x4e>
    8574:	7e f4       	brtc	.+30     	; 0x8594 <__addsf3x+0x7c>
    8576:	1f 16       	cp	r1, r31
    8578:	ba 0b       	sbc	r27, r26
    857a:	62 0b       	sbc	r22, r18
    857c:	73 0b       	sbc	r23, r19
    857e:	84 0b       	sbc	r24, r20
    8580:	ba f0       	brmi	.+46     	; 0x85b0 <__addsf3x+0x98>
    8582:	91 50       	subi	r25, 0x01	; 1
    8584:	a1 f0       	breq	.+40     	; 0x85ae <__addsf3x+0x96>
    8586:	ff 0f       	add	r31, r31
    8588:	bb 1f       	adc	r27, r27
    858a:	66 1f       	adc	r22, r22
    858c:	77 1f       	adc	r23, r23
    858e:	88 1f       	adc	r24, r24
    8590:	c2 f7       	brpl	.-16     	; 0x8582 <__addsf3x+0x6a>
    8592:	0e c0       	rjmp	.+28     	; 0x85b0 <__addsf3x+0x98>
    8594:	ba 0f       	add	r27, r26
    8596:	62 1f       	adc	r22, r18
    8598:	73 1f       	adc	r23, r19
    859a:	84 1f       	adc	r24, r20
    859c:	48 f4       	brcc	.+18     	; 0x85b0 <__addsf3x+0x98>
    859e:	87 95       	ror	r24
    85a0:	77 95       	ror	r23
    85a2:	67 95       	ror	r22
    85a4:	b7 95       	ror	r27
    85a6:	f7 95       	ror	r31
    85a8:	9e 3f       	cpi	r25, 0xFE	; 254
    85aa:	08 f0       	brcs	.+2      	; 0x85ae <__addsf3x+0x96>
    85ac:	b3 cf       	rjmp	.-154    	; 0x8514 <__addsf3+0x1e>
    85ae:	93 95       	inc	r25
    85b0:	88 0f       	add	r24, r24
    85b2:	08 f0       	brcs	.+2      	; 0x85b6 <__addsf3x+0x9e>
    85b4:	99 27       	eor	r25, r25
    85b6:	ee 0f       	add	r30, r30
    85b8:	97 95       	ror	r25
    85ba:	87 95       	ror	r24
    85bc:	08 95       	ret

000085be <__cmpsf2>:
    85be:	d9 d0       	rcall	.+434    	; 0x8772 <__fp_cmp>
    85c0:	08 f4       	brcc	.+2      	; 0x85c4 <__cmpsf2+0x6>
    85c2:	81 e0       	ldi	r24, 0x01	; 1
    85c4:	08 95       	ret

000085c6 <__divsf3>:
    85c6:	0c d0       	rcall	.+24     	; 0x85e0 <__divsf3x>
    85c8:	0f c1       	rjmp	.+542    	; 0x87e8 <__fp_round>
    85ca:	07 d1       	rcall	.+526    	; 0x87da <__fp_pscB>
    85cc:	40 f0       	brcs	.+16     	; 0x85de <__divsf3+0x18>
    85ce:	fe d0       	rcall	.+508    	; 0x87cc <__fp_pscA>
    85d0:	30 f0       	brcs	.+12     	; 0x85de <__divsf3+0x18>
    85d2:	21 f4       	brne	.+8      	; 0x85dc <__divsf3+0x16>
    85d4:	5f 3f       	cpi	r21, 0xFF	; 255
    85d6:	19 f0       	breq	.+6      	; 0x85de <__divsf3+0x18>
    85d8:	f0 c0       	rjmp	.+480    	; 0x87ba <__fp_inf>
    85da:	51 11       	cpse	r21, r1
    85dc:	39 c1       	rjmp	.+626    	; 0x8850 <__fp_szero>
    85de:	f3 c0       	rjmp	.+486    	; 0x87c6 <__fp_nan>

000085e0 <__divsf3x>:
    85e0:	14 d1       	rcall	.+552    	; 0x880a <__fp_split3>
    85e2:	98 f3       	brcs	.-26     	; 0x85ca <__divsf3+0x4>

000085e4 <__divsf3_pse>:
    85e4:	99 23       	and	r25, r25
    85e6:	c9 f3       	breq	.-14     	; 0x85da <__divsf3+0x14>
    85e8:	55 23       	and	r21, r21
    85ea:	b1 f3       	breq	.-20     	; 0x85d8 <__divsf3+0x12>
    85ec:	95 1b       	sub	r25, r21
    85ee:	55 0b       	sbc	r21, r21
    85f0:	bb 27       	eor	r27, r27
    85f2:	aa 27       	eor	r26, r26
    85f4:	62 17       	cp	r22, r18
    85f6:	73 07       	cpc	r23, r19
    85f8:	84 07       	cpc	r24, r20
    85fa:	38 f0       	brcs	.+14     	; 0x860a <__divsf3_pse+0x26>
    85fc:	9f 5f       	subi	r25, 0xFF	; 255
    85fe:	5f 4f       	sbci	r21, 0xFF	; 255
    8600:	22 0f       	add	r18, r18
    8602:	33 1f       	adc	r19, r19
    8604:	44 1f       	adc	r20, r20
    8606:	aa 1f       	adc	r26, r26
    8608:	a9 f3       	breq	.-22     	; 0x85f4 <__divsf3_pse+0x10>
    860a:	33 d0       	rcall	.+102    	; 0x8672 <__divsf3_pse+0x8e>
    860c:	0e 2e       	mov	r0, r30
    860e:	3a f0       	brmi	.+14     	; 0x861e <__divsf3_pse+0x3a>
    8610:	e0 e8       	ldi	r30, 0x80	; 128
    8612:	30 d0       	rcall	.+96     	; 0x8674 <__divsf3_pse+0x90>
    8614:	91 50       	subi	r25, 0x01	; 1
    8616:	50 40       	sbci	r21, 0x00	; 0
    8618:	e6 95       	lsr	r30
    861a:	00 1c       	adc	r0, r0
    861c:	ca f7       	brpl	.-14     	; 0x8610 <__divsf3_pse+0x2c>
    861e:	29 d0       	rcall	.+82     	; 0x8672 <__divsf3_pse+0x8e>
    8620:	fe 2f       	mov	r31, r30
    8622:	27 d0       	rcall	.+78     	; 0x8672 <__divsf3_pse+0x8e>
    8624:	66 0f       	add	r22, r22
    8626:	77 1f       	adc	r23, r23
    8628:	88 1f       	adc	r24, r24
    862a:	bb 1f       	adc	r27, r27
    862c:	26 17       	cp	r18, r22
    862e:	37 07       	cpc	r19, r23
    8630:	48 07       	cpc	r20, r24
    8632:	ab 07       	cpc	r26, r27
    8634:	b0 e8       	ldi	r27, 0x80	; 128
    8636:	09 f0       	breq	.+2      	; 0x863a <__divsf3_pse+0x56>
    8638:	bb 0b       	sbc	r27, r27
    863a:	80 2d       	mov	r24, r0
    863c:	bf 01       	movw	r22, r30
    863e:	ff 27       	eor	r31, r31
    8640:	93 58       	subi	r25, 0x83	; 131
    8642:	5f 4f       	sbci	r21, 0xFF	; 255
    8644:	2a f0       	brmi	.+10     	; 0x8650 <__divsf3_pse+0x6c>
    8646:	9e 3f       	cpi	r25, 0xFE	; 254
    8648:	51 05       	cpc	r21, r1
    864a:	68 f0       	brcs	.+26     	; 0x8666 <__divsf3_pse+0x82>
    864c:	b6 c0       	rjmp	.+364    	; 0x87ba <__fp_inf>
    864e:	00 c1       	rjmp	.+512    	; 0x8850 <__fp_szero>
    8650:	5f 3f       	cpi	r21, 0xFF	; 255
    8652:	ec f3       	brlt	.-6      	; 0x864e <__divsf3_pse+0x6a>
    8654:	98 3e       	cpi	r25, 0xE8	; 232
    8656:	dc f3       	brlt	.-10     	; 0x864e <__divsf3_pse+0x6a>
    8658:	86 95       	lsr	r24
    865a:	77 95       	ror	r23
    865c:	67 95       	ror	r22
    865e:	b7 95       	ror	r27
    8660:	f7 95       	ror	r31
    8662:	9f 5f       	subi	r25, 0xFF	; 255
    8664:	c9 f7       	brne	.-14     	; 0x8658 <__divsf3_pse+0x74>
    8666:	88 0f       	add	r24, r24
    8668:	91 1d       	adc	r25, r1
    866a:	96 95       	lsr	r25
    866c:	87 95       	ror	r24
    866e:	97 f9       	bld	r25, 7
    8670:	08 95       	ret
    8672:	e1 e0       	ldi	r30, 0x01	; 1
    8674:	66 0f       	add	r22, r22
    8676:	77 1f       	adc	r23, r23
    8678:	88 1f       	adc	r24, r24
    867a:	bb 1f       	adc	r27, r27
    867c:	62 17       	cp	r22, r18
    867e:	73 07       	cpc	r23, r19
    8680:	84 07       	cpc	r24, r20
    8682:	ba 07       	cpc	r27, r26
    8684:	20 f0       	brcs	.+8      	; 0x868e <__divsf3_pse+0xaa>
    8686:	62 1b       	sub	r22, r18
    8688:	73 0b       	sbc	r23, r19
    868a:	84 0b       	sbc	r24, r20
    868c:	ba 0b       	sbc	r27, r26
    868e:	ee 1f       	adc	r30, r30
    8690:	88 f7       	brcc	.-30     	; 0x8674 <__divsf3_pse+0x90>
    8692:	e0 95       	com	r30
    8694:	08 95       	ret

00008696 <__fixsfsi>:
    8696:	04 d0       	rcall	.+8      	; 0x86a0 <__fixunssfsi>
    8698:	68 94       	set
    869a:	b1 11       	cpse	r27, r1
    869c:	d9 c0       	rjmp	.+434    	; 0x8850 <__fp_szero>
    869e:	08 95       	ret

000086a0 <__fixunssfsi>:
    86a0:	bc d0       	rcall	.+376    	; 0x881a <__fp_splitA>
    86a2:	88 f0       	brcs	.+34     	; 0x86c6 <__fixunssfsi+0x26>
    86a4:	9f 57       	subi	r25, 0x7F	; 127
    86a6:	90 f0       	brcs	.+36     	; 0x86cc <__fixunssfsi+0x2c>
    86a8:	b9 2f       	mov	r27, r25
    86aa:	99 27       	eor	r25, r25
    86ac:	b7 51       	subi	r27, 0x17	; 23
    86ae:	a0 f0       	brcs	.+40     	; 0x86d8 <__fixunssfsi+0x38>
    86b0:	d1 f0       	breq	.+52     	; 0x86e6 <__fixunssfsi+0x46>
    86b2:	66 0f       	add	r22, r22
    86b4:	77 1f       	adc	r23, r23
    86b6:	88 1f       	adc	r24, r24
    86b8:	99 1f       	adc	r25, r25
    86ba:	1a f0       	brmi	.+6      	; 0x86c2 <__fixunssfsi+0x22>
    86bc:	ba 95       	dec	r27
    86be:	c9 f7       	brne	.-14     	; 0x86b2 <__fixunssfsi+0x12>
    86c0:	12 c0       	rjmp	.+36     	; 0x86e6 <__fixunssfsi+0x46>
    86c2:	b1 30       	cpi	r27, 0x01	; 1
    86c4:	81 f0       	breq	.+32     	; 0x86e6 <__fixunssfsi+0x46>
    86c6:	c3 d0       	rcall	.+390    	; 0x884e <__fp_zero>
    86c8:	b1 e0       	ldi	r27, 0x01	; 1
    86ca:	08 95       	ret
    86cc:	c0 c0       	rjmp	.+384    	; 0x884e <__fp_zero>
    86ce:	67 2f       	mov	r22, r23
    86d0:	78 2f       	mov	r23, r24
    86d2:	88 27       	eor	r24, r24
    86d4:	b8 5f       	subi	r27, 0xF8	; 248
    86d6:	39 f0       	breq	.+14     	; 0x86e6 <__fixunssfsi+0x46>
    86d8:	b9 3f       	cpi	r27, 0xF9	; 249
    86da:	cc f3       	brlt	.-14     	; 0x86ce <__fixunssfsi+0x2e>
    86dc:	86 95       	lsr	r24
    86de:	77 95       	ror	r23
    86e0:	67 95       	ror	r22
    86e2:	b3 95       	inc	r27
    86e4:	d9 f7       	brne	.-10     	; 0x86dc <__fixunssfsi+0x3c>
    86e6:	3e f4       	brtc	.+14     	; 0x86f6 <__fixunssfsi+0x56>
    86e8:	90 95       	com	r25
    86ea:	80 95       	com	r24
    86ec:	70 95       	com	r23
    86ee:	61 95       	neg	r22
    86f0:	7f 4f       	sbci	r23, 0xFF	; 255
    86f2:	8f 4f       	sbci	r24, 0xFF	; 255
    86f4:	9f 4f       	sbci	r25, 0xFF	; 255
    86f6:	08 95       	ret

000086f8 <__floatunsisf>:
    86f8:	e8 94       	clt
    86fa:	09 c0       	rjmp	.+18     	; 0x870e <__floatsisf+0x12>

000086fc <__floatsisf>:
    86fc:	97 fb       	bst	r25, 7
    86fe:	3e f4       	brtc	.+14     	; 0x870e <__floatsisf+0x12>
    8700:	90 95       	com	r25
    8702:	80 95       	com	r24
    8704:	70 95       	com	r23
    8706:	61 95       	neg	r22
    8708:	7f 4f       	sbci	r23, 0xFF	; 255
    870a:	8f 4f       	sbci	r24, 0xFF	; 255
    870c:	9f 4f       	sbci	r25, 0xFF	; 255
    870e:	99 23       	and	r25, r25
    8710:	a9 f0       	breq	.+42     	; 0x873c <__floatsisf+0x40>
    8712:	f9 2f       	mov	r31, r25
    8714:	96 e9       	ldi	r25, 0x96	; 150
    8716:	bb 27       	eor	r27, r27
    8718:	93 95       	inc	r25
    871a:	f6 95       	lsr	r31
    871c:	87 95       	ror	r24
    871e:	77 95       	ror	r23
    8720:	67 95       	ror	r22
    8722:	b7 95       	ror	r27
    8724:	f1 11       	cpse	r31, r1
    8726:	f8 cf       	rjmp	.-16     	; 0x8718 <__floatsisf+0x1c>
    8728:	fa f4       	brpl	.+62     	; 0x8768 <__floatsisf+0x6c>
    872a:	bb 0f       	add	r27, r27
    872c:	11 f4       	brne	.+4      	; 0x8732 <__floatsisf+0x36>
    872e:	60 ff       	sbrs	r22, 0
    8730:	1b c0       	rjmp	.+54     	; 0x8768 <__floatsisf+0x6c>
    8732:	6f 5f       	subi	r22, 0xFF	; 255
    8734:	7f 4f       	sbci	r23, 0xFF	; 255
    8736:	8f 4f       	sbci	r24, 0xFF	; 255
    8738:	9f 4f       	sbci	r25, 0xFF	; 255
    873a:	16 c0       	rjmp	.+44     	; 0x8768 <__floatsisf+0x6c>
    873c:	88 23       	and	r24, r24
    873e:	11 f0       	breq	.+4      	; 0x8744 <__floatsisf+0x48>
    8740:	96 e9       	ldi	r25, 0x96	; 150
    8742:	11 c0       	rjmp	.+34     	; 0x8766 <__floatsisf+0x6a>
    8744:	77 23       	and	r23, r23
    8746:	21 f0       	breq	.+8      	; 0x8750 <__floatsisf+0x54>
    8748:	9e e8       	ldi	r25, 0x8E	; 142
    874a:	87 2f       	mov	r24, r23
    874c:	76 2f       	mov	r23, r22
    874e:	05 c0       	rjmp	.+10     	; 0x875a <__floatsisf+0x5e>
    8750:	66 23       	and	r22, r22
    8752:	71 f0       	breq	.+28     	; 0x8770 <__floatsisf+0x74>
    8754:	96 e8       	ldi	r25, 0x86	; 134
    8756:	86 2f       	mov	r24, r22
    8758:	70 e0       	ldi	r23, 0x00	; 0
    875a:	60 e0       	ldi	r22, 0x00	; 0
    875c:	2a f0       	brmi	.+10     	; 0x8768 <__floatsisf+0x6c>
    875e:	9a 95       	dec	r25
    8760:	66 0f       	add	r22, r22
    8762:	77 1f       	adc	r23, r23
    8764:	88 1f       	adc	r24, r24
    8766:	da f7       	brpl	.-10     	; 0x875e <__floatsisf+0x62>
    8768:	88 0f       	add	r24, r24
    876a:	96 95       	lsr	r25
    876c:	87 95       	ror	r24
    876e:	97 f9       	bld	r25, 7
    8770:	08 95       	ret

00008772 <__fp_cmp>:
    8772:	99 0f       	add	r25, r25
    8774:	00 08       	sbc	r0, r0
    8776:	55 0f       	add	r21, r21
    8778:	aa 0b       	sbc	r26, r26
    877a:	e0 e8       	ldi	r30, 0x80	; 128
    877c:	fe ef       	ldi	r31, 0xFE	; 254
    877e:	16 16       	cp	r1, r22
    8780:	17 06       	cpc	r1, r23
    8782:	e8 07       	cpc	r30, r24
    8784:	f9 07       	cpc	r31, r25
    8786:	c0 f0       	brcs	.+48     	; 0x87b8 <__fp_cmp+0x46>
    8788:	12 16       	cp	r1, r18
    878a:	13 06       	cpc	r1, r19
    878c:	e4 07       	cpc	r30, r20
    878e:	f5 07       	cpc	r31, r21
    8790:	98 f0       	brcs	.+38     	; 0x87b8 <__fp_cmp+0x46>
    8792:	62 1b       	sub	r22, r18
    8794:	73 0b       	sbc	r23, r19
    8796:	84 0b       	sbc	r24, r20
    8798:	95 0b       	sbc	r25, r21
    879a:	39 f4       	brne	.+14     	; 0x87aa <__fp_cmp+0x38>
    879c:	0a 26       	eor	r0, r26
    879e:	61 f0       	breq	.+24     	; 0x87b8 <__fp_cmp+0x46>
    87a0:	23 2b       	or	r18, r19
    87a2:	24 2b       	or	r18, r20
    87a4:	25 2b       	or	r18, r21
    87a6:	21 f4       	brne	.+8      	; 0x87b0 <__fp_cmp+0x3e>
    87a8:	08 95       	ret
    87aa:	0a 26       	eor	r0, r26
    87ac:	09 f4       	brne	.+2      	; 0x87b0 <__fp_cmp+0x3e>
    87ae:	a1 40       	sbci	r26, 0x01	; 1
    87b0:	a6 95       	lsr	r26
    87b2:	8f ef       	ldi	r24, 0xFF	; 255
    87b4:	81 1d       	adc	r24, r1
    87b6:	81 1d       	adc	r24, r1
    87b8:	08 95       	ret

000087ba <__fp_inf>:
    87ba:	97 f9       	bld	r25, 7
    87bc:	9f 67       	ori	r25, 0x7F	; 127
    87be:	80 e8       	ldi	r24, 0x80	; 128
    87c0:	70 e0       	ldi	r23, 0x00	; 0
    87c2:	60 e0       	ldi	r22, 0x00	; 0
    87c4:	08 95       	ret

000087c6 <__fp_nan>:
    87c6:	9f ef       	ldi	r25, 0xFF	; 255
    87c8:	80 ec       	ldi	r24, 0xC0	; 192
    87ca:	08 95       	ret

000087cc <__fp_pscA>:
    87cc:	00 24       	eor	r0, r0
    87ce:	0a 94       	dec	r0
    87d0:	16 16       	cp	r1, r22
    87d2:	17 06       	cpc	r1, r23
    87d4:	18 06       	cpc	r1, r24
    87d6:	09 06       	cpc	r0, r25
    87d8:	08 95       	ret

000087da <__fp_pscB>:
    87da:	00 24       	eor	r0, r0
    87dc:	0a 94       	dec	r0
    87de:	12 16       	cp	r1, r18
    87e0:	13 06       	cpc	r1, r19
    87e2:	14 06       	cpc	r1, r20
    87e4:	05 06       	cpc	r0, r21
    87e6:	08 95       	ret

000087e8 <__fp_round>:
    87e8:	09 2e       	mov	r0, r25
    87ea:	03 94       	inc	r0
    87ec:	00 0c       	add	r0, r0
    87ee:	11 f4       	brne	.+4      	; 0x87f4 <__fp_round+0xc>
    87f0:	88 23       	and	r24, r24
    87f2:	52 f0       	brmi	.+20     	; 0x8808 <__fp_round+0x20>
    87f4:	bb 0f       	add	r27, r27
    87f6:	40 f4       	brcc	.+16     	; 0x8808 <__fp_round+0x20>
    87f8:	bf 2b       	or	r27, r31
    87fa:	11 f4       	brne	.+4      	; 0x8800 <__fp_round+0x18>
    87fc:	60 ff       	sbrs	r22, 0
    87fe:	04 c0       	rjmp	.+8      	; 0x8808 <__fp_round+0x20>
    8800:	6f 5f       	subi	r22, 0xFF	; 255
    8802:	7f 4f       	sbci	r23, 0xFF	; 255
    8804:	8f 4f       	sbci	r24, 0xFF	; 255
    8806:	9f 4f       	sbci	r25, 0xFF	; 255
    8808:	08 95       	ret

0000880a <__fp_split3>:
    880a:	57 fd       	sbrc	r21, 7
    880c:	90 58       	subi	r25, 0x80	; 128
    880e:	44 0f       	add	r20, r20
    8810:	55 1f       	adc	r21, r21
    8812:	59 f0       	breq	.+22     	; 0x882a <__fp_splitA+0x10>
    8814:	5f 3f       	cpi	r21, 0xFF	; 255
    8816:	71 f0       	breq	.+28     	; 0x8834 <__fp_splitA+0x1a>
    8818:	47 95       	ror	r20

0000881a <__fp_splitA>:
    881a:	88 0f       	add	r24, r24
    881c:	97 fb       	bst	r25, 7
    881e:	99 1f       	adc	r25, r25
    8820:	61 f0       	breq	.+24     	; 0x883a <__fp_splitA+0x20>
    8822:	9f 3f       	cpi	r25, 0xFF	; 255
    8824:	79 f0       	breq	.+30     	; 0x8844 <__fp_splitA+0x2a>
    8826:	87 95       	ror	r24
    8828:	08 95       	ret
    882a:	12 16       	cp	r1, r18
    882c:	13 06       	cpc	r1, r19
    882e:	14 06       	cpc	r1, r20
    8830:	55 1f       	adc	r21, r21
    8832:	f2 cf       	rjmp	.-28     	; 0x8818 <__fp_split3+0xe>
    8834:	46 95       	lsr	r20
    8836:	f1 df       	rcall	.-30     	; 0x881a <__fp_splitA>
    8838:	08 c0       	rjmp	.+16     	; 0x884a <__fp_splitA+0x30>
    883a:	16 16       	cp	r1, r22
    883c:	17 06       	cpc	r1, r23
    883e:	18 06       	cpc	r1, r24
    8840:	99 1f       	adc	r25, r25
    8842:	f1 cf       	rjmp	.-30     	; 0x8826 <__fp_splitA+0xc>
    8844:	86 95       	lsr	r24
    8846:	71 05       	cpc	r23, r1
    8848:	61 05       	cpc	r22, r1
    884a:	08 94       	sec
    884c:	08 95       	ret

0000884e <__fp_zero>:
    884e:	e8 94       	clt

00008850 <__fp_szero>:
    8850:	bb 27       	eor	r27, r27
    8852:	66 27       	eor	r22, r22
    8854:	77 27       	eor	r23, r23
    8856:	cb 01       	movw	r24, r22
    8858:	97 f9       	bld	r25, 7
    885a:	08 95       	ret

0000885c <__gesf2>:
    885c:	8a df       	rcall	.-236    	; 0x8772 <__fp_cmp>
    885e:	08 f4       	brcc	.+2      	; 0x8862 <__gesf2+0x6>
    8860:	8f ef       	ldi	r24, 0xFF	; 255
    8862:	08 95       	ret

00008864 <__mulsf3>:
    8864:	0b d0       	rcall	.+22     	; 0x887c <__mulsf3x>
    8866:	c0 cf       	rjmp	.-128    	; 0x87e8 <__fp_round>
    8868:	b1 df       	rcall	.-158    	; 0x87cc <__fp_pscA>
    886a:	28 f0       	brcs	.+10     	; 0x8876 <__mulsf3+0x12>
    886c:	b6 df       	rcall	.-148    	; 0x87da <__fp_pscB>
    886e:	18 f0       	brcs	.+6      	; 0x8876 <__mulsf3+0x12>
    8870:	95 23       	and	r25, r21
    8872:	09 f0       	breq	.+2      	; 0x8876 <__mulsf3+0x12>
    8874:	a2 cf       	rjmp	.-188    	; 0x87ba <__fp_inf>
    8876:	a7 cf       	rjmp	.-178    	; 0x87c6 <__fp_nan>
    8878:	11 24       	eor	r1, r1
    887a:	ea cf       	rjmp	.-44     	; 0x8850 <__fp_szero>

0000887c <__mulsf3x>:
    887c:	c6 df       	rcall	.-116    	; 0x880a <__fp_split3>
    887e:	a0 f3       	brcs	.-24     	; 0x8868 <__mulsf3+0x4>

00008880 <__mulsf3_pse>:
    8880:	95 9f       	mul	r25, r21
    8882:	d1 f3       	breq	.-12     	; 0x8878 <__mulsf3+0x14>
    8884:	95 0f       	add	r25, r21
    8886:	50 e0       	ldi	r21, 0x00	; 0
    8888:	55 1f       	adc	r21, r21
    888a:	62 9f       	mul	r22, r18
    888c:	f0 01       	movw	r30, r0
    888e:	72 9f       	mul	r23, r18
    8890:	bb 27       	eor	r27, r27
    8892:	f0 0d       	add	r31, r0
    8894:	b1 1d       	adc	r27, r1
    8896:	63 9f       	mul	r22, r19
    8898:	aa 27       	eor	r26, r26
    889a:	f0 0d       	add	r31, r0
    889c:	b1 1d       	adc	r27, r1
    889e:	aa 1f       	adc	r26, r26
    88a0:	64 9f       	mul	r22, r20
    88a2:	66 27       	eor	r22, r22
    88a4:	b0 0d       	add	r27, r0
    88a6:	a1 1d       	adc	r26, r1
    88a8:	66 1f       	adc	r22, r22
    88aa:	82 9f       	mul	r24, r18
    88ac:	22 27       	eor	r18, r18
    88ae:	b0 0d       	add	r27, r0
    88b0:	a1 1d       	adc	r26, r1
    88b2:	62 1f       	adc	r22, r18
    88b4:	73 9f       	mul	r23, r19
    88b6:	b0 0d       	add	r27, r0
    88b8:	a1 1d       	adc	r26, r1
    88ba:	62 1f       	adc	r22, r18
    88bc:	83 9f       	mul	r24, r19
    88be:	a0 0d       	add	r26, r0
    88c0:	61 1d       	adc	r22, r1
    88c2:	22 1f       	adc	r18, r18
    88c4:	74 9f       	mul	r23, r20
    88c6:	33 27       	eor	r19, r19
    88c8:	a0 0d       	add	r26, r0
    88ca:	61 1d       	adc	r22, r1
    88cc:	23 1f       	adc	r18, r19
    88ce:	84 9f       	mul	r24, r20
    88d0:	60 0d       	add	r22, r0
    88d2:	21 1d       	adc	r18, r1
    88d4:	82 2f       	mov	r24, r18
    88d6:	76 2f       	mov	r23, r22
    88d8:	6a 2f       	mov	r22, r26
    88da:	11 24       	eor	r1, r1
    88dc:	9f 57       	subi	r25, 0x7F	; 127
    88de:	50 40       	sbci	r21, 0x00	; 0
    88e0:	8a f0       	brmi	.+34     	; 0x8904 <__mulsf3_pse+0x84>
    88e2:	e1 f0       	breq	.+56     	; 0x891c <__mulsf3_pse+0x9c>
    88e4:	88 23       	and	r24, r24
    88e6:	4a f0       	brmi	.+18     	; 0x88fa <__mulsf3_pse+0x7a>
    88e8:	ee 0f       	add	r30, r30
    88ea:	ff 1f       	adc	r31, r31
    88ec:	bb 1f       	adc	r27, r27
    88ee:	66 1f       	adc	r22, r22
    88f0:	77 1f       	adc	r23, r23
    88f2:	88 1f       	adc	r24, r24
    88f4:	91 50       	subi	r25, 0x01	; 1
    88f6:	50 40       	sbci	r21, 0x00	; 0
    88f8:	a9 f7       	brne	.-22     	; 0x88e4 <__mulsf3_pse+0x64>
    88fa:	9e 3f       	cpi	r25, 0xFE	; 254
    88fc:	51 05       	cpc	r21, r1
    88fe:	70 f0       	brcs	.+28     	; 0x891c <__mulsf3_pse+0x9c>
    8900:	5c cf       	rjmp	.-328    	; 0x87ba <__fp_inf>
    8902:	a6 cf       	rjmp	.-180    	; 0x8850 <__fp_szero>
    8904:	5f 3f       	cpi	r21, 0xFF	; 255
    8906:	ec f3       	brlt	.-6      	; 0x8902 <__mulsf3_pse+0x82>
    8908:	98 3e       	cpi	r25, 0xE8	; 232
    890a:	dc f3       	brlt	.-10     	; 0x8902 <__mulsf3_pse+0x82>
    890c:	86 95       	lsr	r24
    890e:	77 95       	ror	r23
    8910:	67 95       	ror	r22
    8912:	b7 95       	ror	r27
    8914:	f7 95       	ror	r31
    8916:	e7 95       	ror	r30
    8918:	9f 5f       	subi	r25, 0xFF	; 255
    891a:	c1 f7       	brne	.-16     	; 0x890c <__mulsf3_pse+0x8c>
    891c:	fe 2b       	or	r31, r30
    891e:	88 0f       	add	r24, r24
    8920:	91 1d       	adc	r25, r1
    8922:	96 95       	lsr	r25
    8924:	87 95       	ror	r24
    8926:	97 f9       	bld	r25, 7
    8928:	08 95       	ret

0000892a <__mulsi3>:
    892a:	db 01       	movw	r26, r22
    892c:	8f 93       	push	r24
    892e:	9f 93       	push	r25
    8930:	60 d0       	rcall	.+192    	; 0x89f2 <__muluhisi3>
    8932:	bf 91       	pop	r27
    8934:	af 91       	pop	r26
    8936:	a2 9f       	mul	r26, r18
    8938:	80 0d       	add	r24, r0
    893a:	91 1d       	adc	r25, r1
    893c:	a3 9f       	mul	r26, r19
    893e:	90 0d       	add	r25, r0
    8940:	b2 9f       	mul	r27, r18
    8942:	90 0d       	add	r25, r0
    8944:	11 24       	eor	r1, r1
    8946:	08 95       	ret

00008948 <__udivmodsi4>:
    8948:	a1 e2       	ldi	r26, 0x21	; 33
    894a:	1a 2e       	mov	r1, r26
    894c:	aa 1b       	sub	r26, r26
    894e:	bb 1b       	sub	r27, r27
    8950:	fd 01       	movw	r30, r26
    8952:	0d c0       	rjmp	.+26     	; 0x896e <__udivmodsi4_ep>

00008954 <__udivmodsi4_loop>:
    8954:	aa 1f       	adc	r26, r26
    8956:	bb 1f       	adc	r27, r27
    8958:	ee 1f       	adc	r30, r30
    895a:	ff 1f       	adc	r31, r31
    895c:	a2 17       	cp	r26, r18
    895e:	b3 07       	cpc	r27, r19
    8960:	e4 07       	cpc	r30, r20
    8962:	f5 07       	cpc	r31, r21
    8964:	20 f0       	brcs	.+8      	; 0x896e <__udivmodsi4_ep>
    8966:	a2 1b       	sub	r26, r18
    8968:	b3 0b       	sbc	r27, r19
    896a:	e4 0b       	sbc	r30, r20
    896c:	f5 0b       	sbc	r31, r21

0000896e <__udivmodsi4_ep>:
    896e:	66 1f       	adc	r22, r22
    8970:	77 1f       	adc	r23, r23
    8972:	88 1f       	adc	r24, r24
    8974:	99 1f       	adc	r25, r25
    8976:	1a 94       	dec	r1
    8978:	69 f7       	brne	.-38     	; 0x8954 <__udivmodsi4_loop>
    897a:	60 95       	com	r22
    897c:	70 95       	com	r23
    897e:	80 95       	com	r24
    8980:	90 95       	com	r25
    8982:	9b 01       	movw	r18, r22
    8984:	ac 01       	movw	r20, r24
    8986:	bd 01       	movw	r22, r26
    8988:	cf 01       	movw	r24, r30
    898a:	08 95       	ret

0000898c <__divmodsi4>:
    898c:	05 2e       	mov	r0, r21
    898e:	97 fb       	bst	r25, 7
    8990:	16 f4       	brtc	.+4      	; 0x8996 <__divmodsi4+0xa>
    8992:	00 94       	com	r0
    8994:	0f d0       	rcall	.+30     	; 0x89b4 <__negsi2>
    8996:	57 fd       	sbrc	r21, 7
    8998:	05 d0       	rcall	.+10     	; 0x89a4 <__divmodsi4_neg2>
    899a:	d6 df       	rcall	.-84     	; 0x8948 <__udivmodsi4>
    899c:	07 fc       	sbrc	r0, 7
    899e:	02 d0       	rcall	.+4      	; 0x89a4 <__divmodsi4_neg2>
    89a0:	46 f4       	brtc	.+16     	; 0x89b2 <__divmodsi4_exit>
    89a2:	08 c0       	rjmp	.+16     	; 0x89b4 <__negsi2>

000089a4 <__divmodsi4_neg2>:
    89a4:	50 95       	com	r21
    89a6:	40 95       	com	r20
    89a8:	30 95       	com	r19
    89aa:	21 95       	neg	r18
    89ac:	3f 4f       	sbci	r19, 0xFF	; 255
    89ae:	4f 4f       	sbci	r20, 0xFF	; 255
    89b0:	5f 4f       	sbci	r21, 0xFF	; 255

000089b2 <__divmodsi4_exit>:
    89b2:	08 95       	ret

000089b4 <__negsi2>:
    89b4:	90 95       	com	r25
    89b6:	80 95       	com	r24
    89b8:	70 95       	com	r23
    89ba:	61 95       	neg	r22
    89bc:	7f 4f       	sbci	r23, 0xFF	; 255
    89be:	8f 4f       	sbci	r24, 0xFF	; 255
    89c0:	9f 4f       	sbci	r25, 0xFF	; 255
    89c2:	08 95       	ret

000089c4 <__tablejump2__>:
    89c4:	ee 0f       	add	r30, r30
    89c6:	ff 1f       	adc	r31, r31
    89c8:	88 1f       	adc	r24, r24
    89ca:	8b bf       	out	0x3b, r24	; 59
    89cc:	07 90       	elpm	r0, Z+
    89ce:	f6 91       	elpm	r31, Z
    89d0:	e0 2d       	mov	r30, r0
    89d2:	19 94       	eijmp

000089d4 <__umulhisi3>:
    89d4:	a2 9f       	mul	r26, r18
    89d6:	b0 01       	movw	r22, r0
    89d8:	b3 9f       	mul	r27, r19
    89da:	c0 01       	movw	r24, r0
    89dc:	a3 9f       	mul	r26, r19
    89de:	70 0d       	add	r23, r0
    89e0:	81 1d       	adc	r24, r1
    89e2:	11 24       	eor	r1, r1
    89e4:	91 1d       	adc	r25, r1
    89e6:	b2 9f       	mul	r27, r18
    89e8:	70 0d       	add	r23, r0
    89ea:	81 1d       	adc	r24, r1
    89ec:	11 24       	eor	r1, r1
    89ee:	91 1d       	adc	r25, r1
    89f0:	08 95       	ret

000089f2 <__muluhisi3>:
    89f2:	f0 df       	rcall	.-32     	; 0x89d4 <__umulhisi3>
    89f4:	a5 9f       	mul	r26, r21
    89f6:	90 0d       	add	r25, r0
    89f8:	b4 9f       	mul	r27, r20
    89fa:	90 0d       	add	r25, r0
    89fc:	a4 9f       	mul	r26, r20
    89fe:	80 0d       	add	r24, r0
    8a00:	91 1d       	adc	r25, r1
    8a02:	11 24       	eor	r1, r1
    8a04:	08 95       	ret

00008a06 <atof>:
    8a06:	66 27       	eor	r22, r22
    8a08:	77 27       	eor	r23, r23
    8a0a:	e9 c4       	rjmp	.+2514   	; 0x93de <strtod>

00008a0c <atol>:
    8a0c:	1f 93       	push	r17
    8a0e:	fc 01       	movw	r30, r24
    8a10:	99 27       	eor	r25, r25
    8a12:	88 27       	eor	r24, r24
    8a14:	bc 01       	movw	r22, r24
    8a16:	e8 94       	clt
    8a18:	11 91       	ld	r17, Z+
    8a1a:	10 32       	cpi	r17, 0x20	; 32
    8a1c:	e9 f3       	breq	.-6      	; 0x8a18 <atol+0xc>
    8a1e:	19 30       	cpi	r17, 0x09	; 9
    8a20:	10 f0       	brcs	.+4      	; 0x8a26 <atol+0x1a>
    8a22:	1e 30       	cpi	r17, 0x0E	; 14
    8a24:	c8 f3       	brcs	.-14     	; 0x8a18 <atol+0xc>
    8a26:	1b 32       	cpi	r17, 0x2B	; 43
    8a28:	49 f0       	breq	.+18     	; 0x8a3c <atol+0x30>
    8a2a:	1d 32       	cpi	r17, 0x2D	; 45
    8a2c:	41 f4       	brne	.+16     	; 0x8a3e <atol+0x32>
    8a2e:	68 94       	set
    8a30:	05 c0       	rjmp	.+10     	; 0x8a3c <atol+0x30>
    8a32:	0e d1       	rcall	.+540    	; 0x8c50 <__mulsi_const_10>
    8a34:	61 0f       	add	r22, r17
    8a36:	71 1d       	adc	r23, r1
    8a38:	81 1d       	adc	r24, r1
    8a3a:	91 1d       	adc	r25, r1
    8a3c:	11 91       	ld	r17, Z+
    8a3e:	10 53       	subi	r17, 0x30	; 48
    8a40:	1a 30       	cpi	r17, 0x0A	; 10
    8a42:	b8 f3       	brcs	.-18     	; 0x8a32 <atol+0x26>
    8a44:	3e f4       	brtc	.+14     	; 0x8a54 <atol+0x48>
    8a46:	90 95       	com	r25
    8a48:	80 95       	com	r24
    8a4a:	70 95       	com	r23
    8a4c:	61 95       	neg	r22
    8a4e:	7f 4f       	sbci	r23, 0xFF	; 255
    8a50:	8f 4f       	sbci	r24, 0xFF	; 255
    8a52:	9f 4f       	sbci	r25, 0xFF	; 255
    8a54:	1f 91       	pop	r17
    8a56:	08 95       	ret

00008a58 <__ftoa_engine>:
    8a58:	28 30       	cpi	r18, 0x08	; 8
    8a5a:	08 f0       	brcs	.+2      	; 0x8a5e <__ftoa_engine+0x6>
    8a5c:	27 e0       	ldi	r18, 0x07	; 7
    8a5e:	33 27       	eor	r19, r19
    8a60:	da 01       	movw	r26, r20
    8a62:	99 0f       	add	r25, r25
    8a64:	31 1d       	adc	r19, r1
    8a66:	87 fd       	sbrc	r24, 7
    8a68:	91 60       	ori	r25, 0x01	; 1
    8a6a:	00 96       	adiw	r24, 0x00	; 0
    8a6c:	61 05       	cpc	r22, r1
    8a6e:	71 05       	cpc	r23, r1
    8a70:	39 f4       	brne	.+14     	; 0x8a80 <__ftoa_engine+0x28>
    8a72:	32 60       	ori	r19, 0x02	; 2
    8a74:	2e 5f       	subi	r18, 0xFE	; 254
    8a76:	3d 93       	st	X+, r19
    8a78:	30 e3       	ldi	r19, 0x30	; 48
    8a7a:	2a 95       	dec	r18
    8a7c:	e1 f7       	brne	.-8      	; 0x8a76 <__ftoa_engine+0x1e>
    8a7e:	08 95       	ret
    8a80:	9f 3f       	cpi	r25, 0xFF	; 255
    8a82:	30 f0       	brcs	.+12     	; 0x8a90 <__ftoa_engine+0x38>
    8a84:	80 38       	cpi	r24, 0x80	; 128
    8a86:	71 05       	cpc	r23, r1
    8a88:	61 05       	cpc	r22, r1
    8a8a:	09 f0       	breq	.+2      	; 0x8a8e <__ftoa_engine+0x36>
    8a8c:	3c 5f       	subi	r19, 0xFC	; 252
    8a8e:	3c 5f       	subi	r19, 0xFC	; 252
    8a90:	3d 93       	st	X+, r19
    8a92:	91 30       	cpi	r25, 0x01	; 1
    8a94:	08 f0       	brcs	.+2      	; 0x8a98 <__ftoa_engine+0x40>
    8a96:	80 68       	ori	r24, 0x80	; 128
    8a98:	91 1d       	adc	r25, r1
    8a9a:	df 93       	push	r29
    8a9c:	cf 93       	push	r28
    8a9e:	1f 93       	push	r17
    8aa0:	0f 93       	push	r16
    8aa2:	ff 92       	push	r15
    8aa4:	ef 92       	push	r14
    8aa6:	19 2f       	mov	r17, r25
    8aa8:	98 7f       	andi	r25, 0xF8	; 248
    8aaa:	96 95       	lsr	r25
    8aac:	e9 2f       	mov	r30, r25
    8aae:	96 95       	lsr	r25
    8ab0:	96 95       	lsr	r25
    8ab2:	e9 0f       	add	r30, r25
    8ab4:	ff 27       	eor	r31, r31
    8ab6:	ea 5f       	subi	r30, 0xFA	; 250
    8ab8:	fd 4f       	sbci	r31, 0xFD	; 253
    8aba:	99 27       	eor	r25, r25
    8abc:	33 27       	eor	r19, r19
    8abe:	ee 24       	eor	r14, r14
    8ac0:	ff 24       	eor	r15, r15
    8ac2:	a7 01       	movw	r20, r14
    8ac4:	e7 01       	movw	r28, r14
    8ac6:	05 90       	lpm	r0, Z+
    8ac8:	08 94       	sec
    8aca:	07 94       	ror	r0
    8acc:	28 f4       	brcc	.+10     	; 0x8ad8 <__ftoa_engine+0x80>
    8ace:	36 0f       	add	r19, r22
    8ad0:	e7 1e       	adc	r14, r23
    8ad2:	f8 1e       	adc	r15, r24
    8ad4:	49 1f       	adc	r20, r25
    8ad6:	51 1d       	adc	r21, r1
    8ad8:	66 0f       	add	r22, r22
    8ada:	77 1f       	adc	r23, r23
    8adc:	88 1f       	adc	r24, r24
    8ade:	99 1f       	adc	r25, r25
    8ae0:	06 94       	lsr	r0
    8ae2:	a1 f7       	brne	.-24     	; 0x8acc <__ftoa_engine+0x74>
    8ae4:	05 90       	lpm	r0, Z+
    8ae6:	07 94       	ror	r0
    8ae8:	28 f4       	brcc	.+10     	; 0x8af4 <__ftoa_engine+0x9c>
    8aea:	e7 0e       	add	r14, r23
    8aec:	f8 1e       	adc	r15, r24
    8aee:	49 1f       	adc	r20, r25
    8af0:	56 1f       	adc	r21, r22
    8af2:	c1 1d       	adc	r28, r1
    8af4:	77 0f       	add	r23, r23
    8af6:	88 1f       	adc	r24, r24
    8af8:	99 1f       	adc	r25, r25
    8afa:	66 1f       	adc	r22, r22
    8afc:	06 94       	lsr	r0
    8afe:	a1 f7       	brne	.-24     	; 0x8ae8 <__ftoa_engine+0x90>
    8b00:	05 90       	lpm	r0, Z+
    8b02:	07 94       	ror	r0
    8b04:	28 f4       	brcc	.+10     	; 0x8b10 <__ftoa_engine+0xb8>
    8b06:	f8 0e       	add	r15, r24
    8b08:	49 1f       	adc	r20, r25
    8b0a:	56 1f       	adc	r21, r22
    8b0c:	c7 1f       	adc	r28, r23
    8b0e:	d1 1d       	adc	r29, r1
    8b10:	88 0f       	add	r24, r24
    8b12:	99 1f       	adc	r25, r25
    8b14:	66 1f       	adc	r22, r22
    8b16:	77 1f       	adc	r23, r23
    8b18:	06 94       	lsr	r0
    8b1a:	a1 f7       	brne	.-24     	; 0x8b04 <__ftoa_engine+0xac>
    8b1c:	05 90       	lpm	r0, Z+
    8b1e:	07 94       	ror	r0
    8b20:	20 f4       	brcc	.+8      	; 0x8b2a <__ftoa_engine+0xd2>
    8b22:	49 0f       	add	r20, r25
    8b24:	56 1f       	adc	r21, r22
    8b26:	c7 1f       	adc	r28, r23
    8b28:	d8 1f       	adc	r29, r24
    8b2a:	99 0f       	add	r25, r25
    8b2c:	66 1f       	adc	r22, r22
    8b2e:	77 1f       	adc	r23, r23
    8b30:	88 1f       	adc	r24, r24
    8b32:	06 94       	lsr	r0
    8b34:	a9 f7       	brne	.-22     	; 0x8b20 <__ftoa_engine+0xc8>
    8b36:	84 91       	lpm	r24, Z
    8b38:	10 95       	com	r17
    8b3a:	17 70       	andi	r17, 0x07	; 7
    8b3c:	41 f0       	breq	.+16     	; 0x8b4e <__ftoa_engine+0xf6>
    8b3e:	d6 95       	lsr	r29
    8b40:	c7 95       	ror	r28
    8b42:	57 95       	ror	r21
    8b44:	47 95       	ror	r20
    8b46:	f7 94       	ror	r15
    8b48:	e7 94       	ror	r14
    8b4a:	1a 95       	dec	r17
    8b4c:	c1 f7       	brne	.-16     	; 0x8b3e <__ftoa_engine+0xe6>
    8b4e:	ec ea       	ldi	r30, 0xAC	; 172
    8b50:	f1 e0       	ldi	r31, 0x01	; 1
    8b52:	68 94       	set
    8b54:	15 90       	lpm	r1, Z+
    8b56:	15 91       	lpm	r17, Z+
    8b58:	35 91       	lpm	r19, Z+
    8b5a:	65 91       	lpm	r22, Z+
    8b5c:	95 91       	lpm	r25, Z+
    8b5e:	05 90       	lpm	r0, Z+
    8b60:	7f e2       	ldi	r23, 0x2F	; 47
    8b62:	73 95       	inc	r23
    8b64:	e1 18       	sub	r14, r1
    8b66:	f1 0a       	sbc	r15, r17
    8b68:	43 0b       	sbc	r20, r19
    8b6a:	56 0b       	sbc	r21, r22
    8b6c:	c9 0b       	sbc	r28, r25
    8b6e:	d0 09       	sbc	r29, r0
    8b70:	c0 f7       	brcc	.-16     	; 0x8b62 <__ftoa_engine+0x10a>
    8b72:	e1 0c       	add	r14, r1
    8b74:	f1 1e       	adc	r15, r17
    8b76:	43 1f       	adc	r20, r19
    8b78:	56 1f       	adc	r21, r22
    8b7a:	c9 1f       	adc	r28, r25
    8b7c:	d0 1d       	adc	r29, r0
    8b7e:	7e f4       	brtc	.+30     	; 0x8b9e <__ftoa_engine+0x146>
    8b80:	70 33       	cpi	r23, 0x30	; 48
    8b82:	11 f4       	brne	.+4      	; 0x8b88 <__ftoa_engine+0x130>
    8b84:	8a 95       	dec	r24
    8b86:	e6 cf       	rjmp	.-52     	; 0x8b54 <__ftoa_engine+0xfc>
    8b88:	e8 94       	clt
    8b8a:	01 50       	subi	r16, 0x01	; 1
    8b8c:	30 f0       	brcs	.+12     	; 0x8b9a <__ftoa_engine+0x142>
    8b8e:	08 0f       	add	r16, r24
    8b90:	0a f4       	brpl	.+2      	; 0x8b94 <__ftoa_engine+0x13c>
    8b92:	00 27       	eor	r16, r16
    8b94:	02 17       	cp	r16, r18
    8b96:	08 f4       	brcc	.+2      	; 0x8b9a <__ftoa_engine+0x142>
    8b98:	20 2f       	mov	r18, r16
    8b9a:	23 95       	inc	r18
    8b9c:	02 2f       	mov	r16, r18
    8b9e:	7a 33       	cpi	r23, 0x3A	; 58
    8ba0:	28 f0       	brcs	.+10     	; 0x8bac <__ftoa_engine+0x154>
    8ba2:	79 e3       	ldi	r23, 0x39	; 57
    8ba4:	7d 93       	st	X+, r23
    8ba6:	2a 95       	dec	r18
    8ba8:	e9 f7       	brne	.-6      	; 0x8ba4 <__ftoa_engine+0x14c>
    8baa:	10 c0       	rjmp	.+32     	; 0x8bcc <__ftoa_engine+0x174>
    8bac:	7d 93       	st	X+, r23
    8bae:	2a 95       	dec	r18
    8bb0:	89 f6       	brne	.-94     	; 0x8b54 <__ftoa_engine+0xfc>
    8bb2:	06 94       	lsr	r0
    8bb4:	97 95       	ror	r25
    8bb6:	67 95       	ror	r22
    8bb8:	37 95       	ror	r19
    8bba:	17 95       	ror	r17
    8bbc:	17 94       	ror	r1
    8bbe:	e1 18       	sub	r14, r1
    8bc0:	f1 0a       	sbc	r15, r17
    8bc2:	43 0b       	sbc	r20, r19
    8bc4:	56 0b       	sbc	r21, r22
    8bc6:	c9 0b       	sbc	r28, r25
    8bc8:	d0 09       	sbc	r29, r0
    8bca:	98 f0       	brcs	.+38     	; 0x8bf2 <__ftoa_engine+0x19a>
    8bcc:	23 95       	inc	r18
    8bce:	7e 91       	ld	r23, -X
    8bd0:	73 95       	inc	r23
    8bd2:	7a 33       	cpi	r23, 0x3A	; 58
    8bd4:	08 f0       	brcs	.+2      	; 0x8bd8 <__ftoa_engine+0x180>
    8bd6:	70 e3       	ldi	r23, 0x30	; 48
    8bd8:	7c 93       	st	X, r23
    8bda:	20 13       	cpse	r18, r16
    8bdc:	b8 f7       	brcc	.-18     	; 0x8bcc <__ftoa_engine+0x174>
    8bde:	7e 91       	ld	r23, -X
    8be0:	70 61       	ori	r23, 0x10	; 16
    8be2:	7d 93       	st	X+, r23
    8be4:	30 f0       	brcs	.+12     	; 0x8bf2 <__ftoa_engine+0x19a>
    8be6:	83 95       	inc	r24
    8be8:	71 e3       	ldi	r23, 0x31	; 49
    8bea:	7d 93       	st	X+, r23
    8bec:	70 e3       	ldi	r23, 0x30	; 48
    8bee:	2a 95       	dec	r18
    8bf0:	e1 f7       	brne	.-8      	; 0x8bea <__ftoa_engine+0x192>
    8bf2:	11 24       	eor	r1, r1
    8bf4:	ef 90       	pop	r14
    8bf6:	ff 90       	pop	r15
    8bf8:	0f 91       	pop	r16
    8bfa:	1f 91       	pop	r17
    8bfc:	cf 91       	pop	r28
    8bfe:	df 91       	pop	r29
    8c00:	99 27       	eor	r25, r25
    8c02:	87 fd       	sbrc	r24, 7
    8c04:	90 95       	com	r25
    8c06:	08 95       	ret

00008c08 <strcpy_P>:
    8c08:	fb 01       	movw	r30, r22
    8c0a:	dc 01       	movw	r26, r24
    8c0c:	05 90       	lpm	r0, Z+
    8c0e:	0d 92       	st	X+, r0
    8c10:	00 20       	and	r0, r0
    8c12:	e1 f7       	brne	.-8      	; 0x8c0c <strcpy_P+0x4>
    8c14:	08 95       	ret

00008c16 <strnlen_P>:
    8c16:	fc 01       	movw	r30, r24
    8c18:	05 90       	lpm	r0, Z+
    8c1a:	61 50       	subi	r22, 0x01	; 1
    8c1c:	70 40       	sbci	r23, 0x00	; 0
    8c1e:	01 10       	cpse	r0, r1
    8c20:	d8 f7       	brcc	.-10     	; 0x8c18 <strnlen_P+0x2>
    8c22:	80 95       	com	r24
    8c24:	90 95       	com	r25
    8c26:	8e 0f       	add	r24, r30
    8c28:	9f 1f       	adc	r25, r31
    8c2a:	08 95       	ret

00008c2c <strcpy>:
    8c2c:	fb 01       	movw	r30, r22
    8c2e:	dc 01       	movw	r26, r24
    8c30:	01 90       	ld	r0, Z+
    8c32:	0d 92       	st	X+, r0
    8c34:	00 20       	and	r0, r0
    8c36:	e1 f7       	brne	.-8      	; 0x8c30 <strcpy+0x4>
    8c38:	08 95       	ret

00008c3a <strnlen>:
    8c3a:	fc 01       	movw	r30, r24
    8c3c:	61 50       	subi	r22, 0x01	; 1
    8c3e:	70 40       	sbci	r23, 0x00	; 0
    8c40:	01 90       	ld	r0, Z+
    8c42:	01 10       	cpse	r0, r1
    8c44:	d8 f7       	brcc	.-10     	; 0x8c3c <strnlen+0x2>
    8c46:	80 95       	com	r24
    8c48:	90 95       	com	r25
    8c4a:	8e 0f       	add	r24, r30
    8c4c:	9f 1f       	adc	r25, r31
    8c4e:	08 95       	ret

00008c50 <__mulsi_const_10>:
    8c50:	59 2f       	mov	r21, r25
    8c52:	48 2f       	mov	r20, r24
    8c54:	37 2f       	mov	r19, r23
    8c56:	26 2f       	mov	r18, r22
    8c58:	66 0f       	add	r22, r22
    8c5a:	77 1f       	adc	r23, r23
    8c5c:	88 1f       	adc	r24, r24
    8c5e:	99 1f       	adc	r25, r25
    8c60:	66 0f       	add	r22, r22
    8c62:	77 1f       	adc	r23, r23
    8c64:	88 1f       	adc	r24, r24
    8c66:	99 1f       	adc	r25, r25
    8c68:	62 0f       	add	r22, r18
    8c6a:	73 1f       	adc	r23, r19
    8c6c:	84 1f       	adc	r24, r20
    8c6e:	95 1f       	adc	r25, r21
    8c70:	66 0f       	add	r22, r22
    8c72:	77 1f       	adc	r23, r23
    8c74:	88 1f       	adc	r24, r24
    8c76:	99 1f       	adc	r25, r25
    8c78:	08 95       	ret

00008c7a <fputc>:
    8c7a:	0f 93       	push	r16
    8c7c:	1f 93       	push	r17
    8c7e:	cf 93       	push	r28
    8c80:	df 93       	push	r29
    8c82:	fb 01       	movw	r30, r22
    8c84:	23 81       	ldd	r18, Z+3	; 0x03
    8c86:	21 fd       	sbrc	r18, 1
    8c88:	03 c0       	rjmp	.+6      	; 0x8c90 <fputc+0x16>
    8c8a:	8f ef       	ldi	r24, 0xFF	; 255
    8c8c:	9f ef       	ldi	r25, 0xFF	; 255
    8c8e:	2c c0       	rjmp	.+88     	; 0x8ce8 <fputc+0x6e>
    8c90:	22 ff       	sbrs	r18, 2
    8c92:	16 c0       	rjmp	.+44     	; 0x8cc0 <fputc+0x46>
    8c94:	46 81       	ldd	r20, Z+6	; 0x06
    8c96:	57 81       	ldd	r21, Z+7	; 0x07
    8c98:	24 81       	ldd	r18, Z+4	; 0x04
    8c9a:	35 81       	ldd	r19, Z+5	; 0x05
    8c9c:	42 17       	cp	r20, r18
    8c9e:	53 07       	cpc	r21, r19
    8ca0:	44 f4       	brge	.+16     	; 0x8cb2 <fputc+0x38>
    8ca2:	a0 81       	ld	r26, Z
    8ca4:	b1 81       	ldd	r27, Z+1	; 0x01
    8ca6:	9d 01       	movw	r18, r26
    8ca8:	2f 5f       	subi	r18, 0xFF	; 255
    8caa:	3f 4f       	sbci	r19, 0xFF	; 255
    8cac:	31 83       	std	Z+1, r19	; 0x01
    8cae:	20 83       	st	Z, r18
    8cb0:	8c 93       	st	X, r24
    8cb2:	26 81       	ldd	r18, Z+6	; 0x06
    8cb4:	37 81       	ldd	r19, Z+7	; 0x07
    8cb6:	2f 5f       	subi	r18, 0xFF	; 255
    8cb8:	3f 4f       	sbci	r19, 0xFF	; 255
    8cba:	37 83       	std	Z+7, r19	; 0x07
    8cbc:	26 83       	std	Z+6, r18	; 0x06
    8cbe:	14 c0       	rjmp	.+40     	; 0x8ce8 <fputc+0x6e>
    8cc0:	8b 01       	movw	r16, r22
    8cc2:	ec 01       	movw	r28, r24
    8cc4:	fb 01       	movw	r30, r22
    8cc6:	00 84       	ldd	r0, Z+8	; 0x08
    8cc8:	f1 85       	ldd	r31, Z+9	; 0x09
    8cca:	e0 2d       	mov	r30, r0
    8ccc:	19 95       	eicall
    8cce:	89 2b       	or	r24, r25
    8cd0:	e1 f6       	brne	.-72     	; 0x8c8a <fputc+0x10>
    8cd2:	d8 01       	movw	r26, r16
    8cd4:	16 96       	adiw	r26, 0x06	; 6
    8cd6:	8d 91       	ld	r24, X+
    8cd8:	9c 91       	ld	r25, X
    8cda:	17 97       	sbiw	r26, 0x07	; 7
    8cdc:	01 96       	adiw	r24, 0x01	; 1
    8cde:	17 96       	adiw	r26, 0x07	; 7
    8ce0:	9c 93       	st	X, r25
    8ce2:	8e 93       	st	-X, r24
    8ce4:	16 97       	sbiw	r26, 0x06	; 6
    8ce6:	ce 01       	movw	r24, r28
    8ce8:	df 91       	pop	r29
    8cea:	cf 91       	pop	r28
    8cec:	1f 91       	pop	r17
    8cee:	0f 91       	pop	r16
    8cf0:	08 95       	ret

00008cf2 <sprintf>:
    8cf2:	0f 93       	push	r16
    8cf4:	1f 93       	push	r17
    8cf6:	cf 93       	push	r28
    8cf8:	df 93       	push	r29
    8cfa:	cd b7       	in	r28, 0x3d	; 61
    8cfc:	de b7       	in	r29, 0x3e	; 62
    8cfe:	2e 97       	sbiw	r28, 0x0e	; 14
    8d00:	0f b6       	in	r0, 0x3f	; 63
    8d02:	f8 94       	cli
    8d04:	de bf       	out	0x3e, r29	; 62
    8d06:	0f be       	out	0x3f, r0	; 63
    8d08:	cd bf       	out	0x3d, r28	; 61
    8d0a:	0e 89       	ldd	r16, Y+22	; 0x16
    8d0c:	1f 89       	ldd	r17, Y+23	; 0x17
    8d0e:	86 e0       	ldi	r24, 0x06	; 6
    8d10:	8c 83       	std	Y+4, r24	; 0x04
    8d12:	1a 83       	std	Y+2, r17	; 0x02
    8d14:	09 83       	std	Y+1, r16	; 0x01
    8d16:	8f ef       	ldi	r24, 0xFF	; 255
    8d18:	9f e7       	ldi	r25, 0x7F	; 127
    8d1a:	9e 83       	std	Y+6, r25	; 0x06
    8d1c:	8d 83       	std	Y+5, r24	; 0x05
    8d1e:	ae 01       	movw	r20, r28
    8d20:	46 5e       	subi	r20, 0xE6	; 230
    8d22:	5f 4f       	sbci	r21, 0xFF	; 255
    8d24:	68 8d       	ldd	r22, Y+24	; 0x18
    8d26:	79 8d       	ldd	r23, Y+25	; 0x19
    8d28:	ce 01       	movw	r24, r28
    8d2a:	01 96       	adiw	r24, 0x01	; 1
    8d2c:	5a d8       	rcall	.-3916   	; 0x7de2 <vfprintf>
    8d2e:	ef 81       	ldd	r30, Y+7	; 0x07
    8d30:	f8 85       	ldd	r31, Y+8	; 0x08
    8d32:	e0 0f       	add	r30, r16
    8d34:	f1 1f       	adc	r31, r17
    8d36:	10 82       	st	Z, r1
    8d38:	2e 96       	adiw	r28, 0x0e	; 14
    8d3a:	0f b6       	in	r0, 0x3f	; 63
    8d3c:	f8 94       	cli
    8d3e:	de bf       	out	0x3e, r29	; 62
    8d40:	0f be       	out	0x3f, r0	; 63
    8d42:	cd bf       	out	0x3d, r28	; 61
    8d44:	df 91       	pop	r29
    8d46:	cf 91       	pop	r28
    8d48:	1f 91       	pop	r17
    8d4a:	0f 91       	pop	r16
    8d4c:	08 95       	ret

00008d4e <sscanf>:
    8d4e:	cf 93       	push	r28
    8d50:	df 93       	push	r29
    8d52:	cd b7       	in	r28, 0x3d	; 61
    8d54:	de b7       	in	r29, 0x3e	; 62
    8d56:	2e 97       	sbiw	r28, 0x0e	; 14
    8d58:	0f b6       	in	r0, 0x3f	; 63
    8d5a:	f8 94       	cli
    8d5c:	de bf       	out	0x3e, r29	; 62
    8d5e:	0f be       	out	0x3f, r0	; 63
    8d60:	cd bf       	out	0x3d, r28	; 61
    8d62:	85 e0       	ldi	r24, 0x05	; 5
    8d64:	8c 83       	std	Y+4, r24	; 0x04
    8d66:	8c 89       	ldd	r24, Y+20	; 0x14
    8d68:	9d 89       	ldd	r25, Y+21	; 0x15
    8d6a:	9a 83       	std	Y+2, r25	; 0x02
    8d6c:	89 83       	std	Y+1, r24	; 0x01
    8d6e:	ae 01       	movw	r20, r28
    8d70:	48 5e       	subi	r20, 0xE8	; 232
    8d72:	5f 4f       	sbci	r21, 0xFF	; 255
    8d74:	6e 89       	ldd	r22, Y+22	; 0x16
    8d76:	7f 89       	ldd	r23, Y+23	; 0x17
    8d78:	ce 01       	movw	r24, r28
    8d7a:	01 96       	adiw	r24, 0x01	; 1
    8d7c:	19 d2       	rcall	.+1074   	; 0x91b0 <vfscanf>
    8d7e:	2e 96       	adiw	r28, 0x0e	; 14
    8d80:	0f b6       	in	r0, 0x3f	; 63
    8d82:	f8 94       	cli
    8d84:	de bf       	out	0x3e, r29	; 62
    8d86:	0f be       	out	0x3f, r0	; 63
    8d88:	cd bf       	out	0x3d, r28	; 61
    8d8a:	df 91       	pop	r29
    8d8c:	cf 91       	pop	r28
    8d8e:	08 95       	ret

00008d90 <__ultoa_invert>:
    8d90:	fa 01       	movw	r30, r20
    8d92:	aa 27       	eor	r26, r26
    8d94:	28 30       	cpi	r18, 0x08	; 8
    8d96:	51 f1       	breq	.+84     	; 0x8dec <__ultoa_invert+0x5c>
    8d98:	20 31       	cpi	r18, 0x10	; 16
    8d9a:	81 f1       	breq	.+96     	; 0x8dfc <__ultoa_invert+0x6c>
    8d9c:	e8 94       	clt
    8d9e:	6f 93       	push	r22
    8da0:	6e 7f       	andi	r22, 0xFE	; 254
    8da2:	6e 5f       	subi	r22, 0xFE	; 254
    8da4:	7f 4f       	sbci	r23, 0xFF	; 255
    8da6:	8f 4f       	sbci	r24, 0xFF	; 255
    8da8:	9f 4f       	sbci	r25, 0xFF	; 255
    8daa:	af 4f       	sbci	r26, 0xFF	; 255
    8dac:	b1 e0       	ldi	r27, 0x01	; 1
    8dae:	3e d0       	rcall	.+124    	; 0x8e2c <__ultoa_invert+0x9c>
    8db0:	b4 e0       	ldi	r27, 0x04	; 4
    8db2:	3c d0       	rcall	.+120    	; 0x8e2c <__ultoa_invert+0x9c>
    8db4:	67 0f       	add	r22, r23
    8db6:	78 1f       	adc	r23, r24
    8db8:	89 1f       	adc	r24, r25
    8dba:	9a 1f       	adc	r25, r26
    8dbc:	a1 1d       	adc	r26, r1
    8dbe:	68 0f       	add	r22, r24
    8dc0:	79 1f       	adc	r23, r25
    8dc2:	8a 1f       	adc	r24, r26
    8dc4:	91 1d       	adc	r25, r1
    8dc6:	a1 1d       	adc	r26, r1
    8dc8:	6a 0f       	add	r22, r26
    8dca:	71 1d       	adc	r23, r1
    8dcc:	81 1d       	adc	r24, r1
    8dce:	91 1d       	adc	r25, r1
    8dd0:	a1 1d       	adc	r26, r1
    8dd2:	20 d0       	rcall	.+64     	; 0x8e14 <__ultoa_invert+0x84>
    8dd4:	09 f4       	brne	.+2      	; 0x8dd8 <__ultoa_invert+0x48>
    8dd6:	68 94       	set
    8dd8:	3f 91       	pop	r19
    8dda:	2a e0       	ldi	r18, 0x0A	; 10
    8ddc:	26 9f       	mul	r18, r22
    8dde:	11 24       	eor	r1, r1
    8de0:	30 19       	sub	r19, r0
    8de2:	30 5d       	subi	r19, 0xD0	; 208
    8de4:	31 93       	st	Z+, r19
    8de6:	de f6       	brtc	.-74     	; 0x8d9e <__ultoa_invert+0xe>
    8de8:	cf 01       	movw	r24, r30
    8dea:	08 95       	ret
    8dec:	46 2f       	mov	r20, r22
    8dee:	47 70       	andi	r20, 0x07	; 7
    8df0:	40 5d       	subi	r20, 0xD0	; 208
    8df2:	41 93       	st	Z+, r20
    8df4:	b3 e0       	ldi	r27, 0x03	; 3
    8df6:	0f d0       	rcall	.+30     	; 0x8e16 <__ultoa_invert+0x86>
    8df8:	c9 f7       	brne	.-14     	; 0x8dec <__ultoa_invert+0x5c>
    8dfa:	f6 cf       	rjmp	.-20     	; 0x8de8 <__ultoa_invert+0x58>
    8dfc:	46 2f       	mov	r20, r22
    8dfe:	4f 70       	andi	r20, 0x0F	; 15
    8e00:	40 5d       	subi	r20, 0xD0	; 208
    8e02:	4a 33       	cpi	r20, 0x3A	; 58
    8e04:	18 f0       	brcs	.+6      	; 0x8e0c <__ultoa_invert+0x7c>
    8e06:	49 5d       	subi	r20, 0xD9	; 217
    8e08:	31 fd       	sbrc	r19, 1
    8e0a:	40 52       	subi	r20, 0x20	; 32
    8e0c:	41 93       	st	Z+, r20
    8e0e:	02 d0       	rcall	.+4      	; 0x8e14 <__ultoa_invert+0x84>
    8e10:	a9 f7       	brne	.-22     	; 0x8dfc <__ultoa_invert+0x6c>
    8e12:	ea cf       	rjmp	.-44     	; 0x8de8 <__ultoa_invert+0x58>
    8e14:	b4 e0       	ldi	r27, 0x04	; 4
    8e16:	a6 95       	lsr	r26
    8e18:	97 95       	ror	r25
    8e1a:	87 95       	ror	r24
    8e1c:	77 95       	ror	r23
    8e1e:	67 95       	ror	r22
    8e20:	ba 95       	dec	r27
    8e22:	c9 f7       	brne	.-14     	; 0x8e16 <__ultoa_invert+0x86>
    8e24:	00 97       	sbiw	r24, 0x00	; 0
    8e26:	61 05       	cpc	r22, r1
    8e28:	71 05       	cpc	r23, r1
    8e2a:	08 95       	ret
    8e2c:	9b 01       	movw	r18, r22
    8e2e:	ac 01       	movw	r20, r24
    8e30:	0a 2e       	mov	r0, r26
    8e32:	06 94       	lsr	r0
    8e34:	57 95       	ror	r21
    8e36:	47 95       	ror	r20
    8e38:	37 95       	ror	r19
    8e3a:	27 95       	ror	r18
    8e3c:	ba 95       	dec	r27
    8e3e:	c9 f7       	brne	.-14     	; 0x8e32 <__ultoa_invert+0xa2>
    8e40:	62 0f       	add	r22, r18
    8e42:	73 1f       	adc	r23, r19
    8e44:	84 1f       	adc	r24, r20
    8e46:	95 1f       	adc	r25, r21
    8e48:	a0 1d       	adc	r26, r0
    8e4a:	08 95       	ret

00008e4c <putval>:
    8e4c:	20 fd       	sbrc	r18, 0
    8e4e:	09 c0       	rjmp	.+18     	; 0x8e62 <putval+0x16>
    8e50:	fc 01       	movw	r30, r24
    8e52:	23 fd       	sbrc	r18, 3
    8e54:	05 c0       	rjmp	.+10     	; 0x8e60 <putval+0x14>
    8e56:	22 ff       	sbrs	r18, 2
    8e58:	02 c0       	rjmp	.+4      	; 0x8e5e <putval+0x12>
    8e5a:	73 83       	std	Z+3, r23	; 0x03
    8e5c:	62 83       	std	Z+2, r22	; 0x02
    8e5e:	51 83       	std	Z+1, r21	; 0x01
    8e60:	40 83       	st	Z, r20
    8e62:	08 95       	ret

00008e64 <mulacc>:
    8e64:	44 fd       	sbrc	r20, 4
    8e66:	17 c0       	rjmp	.+46     	; 0x8e96 <mulacc+0x32>
    8e68:	46 fd       	sbrc	r20, 6
    8e6a:	17 c0       	rjmp	.+46     	; 0x8e9a <mulacc+0x36>
    8e6c:	ab 01       	movw	r20, r22
    8e6e:	bc 01       	movw	r22, r24
    8e70:	da 01       	movw	r26, r20
    8e72:	fb 01       	movw	r30, r22
    8e74:	aa 0f       	add	r26, r26
    8e76:	bb 1f       	adc	r27, r27
    8e78:	ee 1f       	adc	r30, r30
    8e7a:	ff 1f       	adc	r31, r31
    8e7c:	10 94       	com	r1
    8e7e:	d1 f7       	brne	.-12     	; 0x8e74 <mulacc+0x10>
    8e80:	4a 0f       	add	r20, r26
    8e82:	5b 1f       	adc	r21, r27
    8e84:	6e 1f       	adc	r22, r30
    8e86:	7f 1f       	adc	r23, r31
    8e88:	cb 01       	movw	r24, r22
    8e8a:	ba 01       	movw	r22, r20
    8e8c:	66 0f       	add	r22, r22
    8e8e:	77 1f       	adc	r23, r23
    8e90:	88 1f       	adc	r24, r24
    8e92:	99 1f       	adc	r25, r25
    8e94:	09 c0       	rjmp	.+18     	; 0x8ea8 <mulacc+0x44>
    8e96:	33 e0       	ldi	r19, 0x03	; 3
    8e98:	01 c0       	rjmp	.+2      	; 0x8e9c <mulacc+0x38>
    8e9a:	34 e0       	ldi	r19, 0x04	; 4
    8e9c:	66 0f       	add	r22, r22
    8e9e:	77 1f       	adc	r23, r23
    8ea0:	88 1f       	adc	r24, r24
    8ea2:	99 1f       	adc	r25, r25
    8ea4:	31 50       	subi	r19, 0x01	; 1
    8ea6:	d1 f7       	brne	.-12     	; 0x8e9c <mulacc+0x38>
    8ea8:	62 0f       	add	r22, r18
    8eaa:	71 1d       	adc	r23, r1
    8eac:	81 1d       	adc	r24, r1
    8eae:	91 1d       	adc	r25, r1
    8eb0:	08 95       	ret

00008eb2 <skip_spaces>:
    8eb2:	0f 93       	push	r16
    8eb4:	1f 93       	push	r17
    8eb6:	cf 93       	push	r28
    8eb8:	df 93       	push	r29
    8eba:	8c 01       	movw	r16, r24
    8ebc:	c8 01       	movw	r24, r16
    8ebe:	0f d4       	rcall	.+2078   	; 0x96de <fgetc>
    8ec0:	ec 01       	movw	r28, r24
    8ec2:	97 fd       	sbrc	r25, 7
    8ec4:	06 c0       	rjmp	.+12     	; 0x8ed2 <skip_spaces+0x20>
    8ec6:	e0 d3       	rcall	.+1984   	; 0x9688 <isspace>
    8ec8:	89 2b       	or	r24, r25
    8eca:	c1 f7       	brne	.-16     	; 0x8ebc <skip_spaces+0xa>
    8ecc:	b8 01       	movw	r22, r16
    8ece:	ce 01       	movw	r24, r28
    8ed0:	44 d4       	rcall	.+2184   	; 0x975a <ungetc>
    8ed2:	ce 01       	movw	r24, r28
    8ed4:	df 91       	pop	r29
    8ed6:	cf 91       	pop	r28
    8ed8:	1f 91       	pop	r17
    8eda:	0f 91       	pop	r16
    8edc:	08 95       	ret

00008ede <conv_int>:
    8ede:	8f 92       	push	r8
    8ee0:	9f 92       	push	r9
    8ee2:	af 92       	push	r10
    8ee4:	bf 92       	push	r11
    8ee6:	ef 92       	push	r14
    8ee8:	ff 92       	push	r15
    8eea:	0f 93       	push	r16
    8eec:	1f 93       	push	r17
    8eee:	cf 93       	push	r28
    8ef0:	df 93       	push	r29
    8ef2:	8c 01       	movw	r16, r24
    8ef4:	d6 2f       	mov	r29, r22
    8ef6:	7a 01       	movw	r14, r20
    8ef8:	b2 2e       	mov	r11, r18
    8efa:	f1 d3       	rcall	.+2018   	; 0x96de <fgetc>
    8efc:	9c 01       	movw	r18, r24
    8efe:	33 27       	eor	r19, r19
    8f00:	2b 32       	cpi	r18, 0x2B	; 43
    8f02:	31 05       	cpc	r19, r1
    8f04:	31 f0       	breq	.+12     	; 0x8f12 <conv_int+0x34>
    8f06:	2d 32       	cpi	r18, 0x2D	; 45
    8f08:	31 05       	cpc	r19, r1
    8f0a:	59 f4       	brne	.+22     	; 0x8f22 <conv_int+0x44>
    8f0c:	8b 2d       	mov	r24, r11
    8f0e:	80 68       	ori	r24, 0x80	; 128
    8f10:	b8 2e       	mov	r11, r24
    8f12:	d1 50       	subi	r29, 0x01	; 1
    8f14:	11 f4       	brne	.+4      	; 0x8f1a <conv_int+0x3c>
    8f16:	80 e0       	ldi	r24, 0x00	; 0
    8f18:	61 c0       	rjmp	.+194    	; 0x8fdc <conv_int+0xfe>
    8f1a:	c8 01       	movw	r24, r16
    8f1c:	e0 d3       	rcall	.+1984   	; 0x96de <fgetc>
    8f1e:	97 fd       	sbrc	r25, 7
    8f20:	fa cf       	rjmp	.-12     	; 0x8f16 <conv_int+0x38>
    8f22:	cb 2d       	mov	r28, r11
    8f24:	cd 7f       	andi	r28, 0xFD	; 253
    8f26:	2b 2d       	mov	r18, r11
    8f28:	20 73       	andi	r18, 0x30	; 48
    8f2a:	f9 f4       	brne	.+62     	; 0x8f6a <conv_int+0x8c>
    8f2c:	80 33       	cpi	r24, 0x30	; 48
    8f2e:	e9 f4       	brne	.+58     	; 0x8f6a <conv_int+0x8c>
    8f30:	aa 24       	eor	r10, r10
    8f32:	aa 94       	dec	r10
    8f34:	ad 0e       	add	r10, r29
    8f36:	09 f4       	brne	.+2      	; 0x8f3a <conv_int+0x5c>
    8f38:	3e c0       	rjmp	.+124    	; 0x8fb6 <conv_int+0xd8>
    8f3a:	c8 01       	movw	r24, r16
    8f3c:	d0 d3       	rcall	.+1952   	; 0x96de <fgetc>
    8f3e:	97 fd       	sbrc	r25, 7
    8f40:	3a c0       	rjmp	.+116    	; 0x8fb6 <conv_int+0xd8>
    8f42:	9c 01       	movw	r18, r24
    8f44:	2f 7d       	andi	r18, 0xDF	; 223
    8f46:	33 27       	eor	r19, r19
    8f48:	28 35       	cpi	r18, 0x58	; 88
    8f4a:	31 05       	cpc	r19, r1
    8f4c:	41 f4       	brne	.+16     	; 0x8f5e <conv_int+0x80>
    8f4e:	c2 64       	ori	r28, 0x42	; 66
    8f50:	d2 50       	subi	r29, 0x02	; 2
    8f52:	89 f1       	breq	.+98     	; 0x8fb6 <conv_int+0xd8>
    8f54:	c8 01       	movw	r24, r16
    8f56:	c3 d3       	rcall	.+1926   	; 0x96de <fgetc>
    8f58:	97 ff       	sbrs	r25, 7
    8f5a:	07 c0       	rjmp	.+14     	; 0x8f6a <conv_int+0x8c>
    8f5c:	2c c0       	rjmp	.+88     	; 0x8fb6 <conv_int+0xd8>
    8f5e:	b6 fe       	sbrs	r11, 6
    8f60:	02 c0       	rjmp	.+4      	; 0x8f66 <conv_int+0x88>
    8f62:	c2 60       	ori	r28, 0x02	; 2
    8f64:	01 c0       	rjmp	.+2      	; 0x8f68 <conv_int+0x8a>
    8f66:	c2 61       	ori	r28, 0x12	; 18
    8f68:	da 2d       	mov	r29, r10
    8f6a:	81 2c       	mov	r8, r1
    8f6c:	91 2c       	mov	r9, r1
    8f6e:	54 01       	movw	r10, r8
    8f70:	20 ed       	ldi	r18, 0xD0	; 208
    8f72:	28 0f       	add	r18, r24
    8f74:	28 30       	cpi	r18, 0x08	; 8
    8f76:	78 f0       	brcs	.+30     	; 0x8f96 <conv_int+0xb8>
    8f78:	c4 ff       	sbrs	r28, 4
    8f7a:	03 c0       	rjmp	.+6      	; 0x8f82 <conv_int+0xa4>
    8f7c:	b8 01       	movw	r22, r16
    8f7e:	ed d3       	rcall	.+2010   	; 0x975a <ungetc>
    8f80:	17 c0       	rjmp	.+46     	; 0x8fb0 <conv_int+0xd2>
    8f82:	2a 30       	cpi	r18, 0x0A	; 10
    8f84:	40 f0       	brcs	.+16     	; 0x8f96 <conv_int+0xb8>
    8f86:	c6 ff       	sbrs	r28, 6
    8f88:	f9 cf       	rjmp	.-14     	; 0x8f7c <conv_int+0x9e>
    8f8a:	2f 7d       	andi	r18, 0xDF	; 223
    8f8c:	3f ee       	ldi	r19, 0xEF	; 239
    8f8e:	32 0f       	add	r19, r18
    8f90:	36 30       	cpi	r19, 0x06	; 6
    8f92:	a0 f7       	brcc	.-24     	; 0x8f7c <conv_int+0x9e>
    8f94:	27 50       	subi	r18, 0x07	; 7
    8f96:	4c 2f       	mov	r20, r28
    8f98:	c5 01       	movw	r24, r10
    8f9a:	b4 01       	movw	r22, r8
    8f9c:	63 df       	rcall	.-314    	; 0x8e64 <mulacc>
    8f9e:	4b 01       	movw	r8, r22
    8fa0:	5c 01       	movw	r10, r24
    8fa2:	c2 60       	ori	r28, 0x02	; 2
    8fa4:	d1 50       	subi	r29, 0x01	; 1
    8fa6:	51 f0       	breq	.+20     	; 0x8fbc <conv_int+0xde>
    8fa8:	c8 01       	movw	r24, r16
    8faa:	99 d3       	rcall	.+1842   	; 0x96de <fgetc>
    8fac:	97 ff       	sbrs	r25, 7
    8fae:	e0 cf       	rjmp	.-64     	; 0x8f70 <conv_int+0x92>
    8fb0:	c1 fd       	sbrc	r28, 1
    8fb2:	04 c0       	rjmp	.+8      	; 0x8fbc <conv_int+0xde>
    8fb4:	b0 cf       	rjmp	.-160    	; 0x8f16 <conv_int+0x38>
    8fb6:	81 2c       	mov	r8, r1
    8fb8:	91 2c       	mov	r9, r1
    8fba:	54 01       	movw	r10, r8
    8fbc:	c7 ff       	sbrs	r28, 7
    8fbe:	08 c0       	rjmp	.+16     	; 0x8fd0 <conv_int+0xf2>
    8fc0:	b0 94       	com	r11
    8fc2:	a0 94       	com	r10
    8fc4:	90 94       	com	r9
    8fc6:	80 94       	com	r8
    8fc8:	81 1c       	adc	r8, r1
    8fca:	91 1c       	adc	r9, r1
    8fcc:	a1 1c       	adc	r10, r1
    8fce:	b1 1c       	adc	r11, r1
    8fd0:	2c 2f       	mov	r18, r28
    8fd2:	b5 01       	movw	r22, r10
    8fd4:	a4 01       	movw	r20, r8
    8fd6:	c7 01       	movw	r24, r14
    8fd8:	39 df       	rcall	.-398    	; 0x8e4c <putval>
    8fda:	81 e0       	ldi	r24, 0x01	; 1
    8fdc:	df 91       	pop	r29
    8fde:	cf 91       	pop	r28
    8fe0:	1f 91       	pop	r17
    8fe2:	0f 91       	pop	r16
    8fe4:	ff 90       	pop	r15
    8fe6:	ef 90       	pop	r14
    8fe8:	bf 90       	pop	r11
    8fea:	af 90       	pop	r10
    8fec:	9f 90       	pop	r9
    8fee:	8f 90       	pop	r8
    8ff0:	08 95       	ret

00008ff2 <conv_brk>:
    8ff2:	5f 92       	push	r5
    8ff4:	6f 92       	push	r6
    8ff6:	7f 92       	push	r7
    8ff8:	8f 92       	push	r8
    8ffa:	9f 92       	push	r9
    8ffc:	af 92       	push	r10
    8ffe:	bf 92       	push	r11
    9000:	cf 92       	push	r12
    9002:	df 92       	push	r13
    9004:	ef 92       	push	r14
    9006:	ff 92       	push	r15
    9008:	0f 93       	push	r16
    900a:	1f 93       	push	r17
    900c:	cf 93       	push	r28
    900e:	df 93       	push	r29
    9010:	cd b7       	in	r28, 0x3d	; 61
    9012:	de b7       	in	r29, 0x3e	; 62
    9014:	a0 97       	sbiw	r28, 0x20	; 32
    9016:	0f b6       	in	r0, 0x3f	; 63
    9018:	f8 94       	cli
    901a:	de bf       	out	0x3e, r29	; 62
    901c:	0f be       	out	0x3f, r0	; 63
    901e:	cd bf       	out	0x3d, r28	; 61
    9020:	5c 01       	movw	r10, r24
    9022:	96 2e       	mov	r9, r22
    9024:	7a 01       	movw	r14, r20
    9026:	f9 01       	movw	r30, r18
    9028:	8e 01       	movw	r16, r28
    902a:	0f 5f       	subi	r16, 0xFF	; 255
    902c:	1f 4f       	sbci	r17, 0xFF	; 255
    902e:	68 01       	movw	r12, r16
    9030:	80 e2       	ldi	r24, 0x20	; 32
    9032:	d8 01       	movw	r26, r16
    9034:	1d 92       	st	X+, r1
    9036:	8a 95       	dec	r24
    9038:	e9 f7       	brne	.-6      	; 0x9034 <conv_brk+0x42>
    903a:	d5 01       	movw	r26, r10
    903c:	13 96       	adiw	r26, 0x03	; 3
    903e:	8c 90       	ld	r8, X
    9040:	80 e0       	ldi	r24, 0x00	; 0
    9042:	90 e0       	ldi	r25, 0x00	; 0
    9044:	61 2c       	mov	r6, r1
    9046:	71 2c       	mov	r7, r1
    9048:	30 e0       	ldi	r19, 0x00	; 0
    904a:	61 e0       	ldi	r22, 0x01	; 1
    904c:	70 e0       	ldi	r23, 0x00	; 0
    904e:	83 fc       	sbrc	r8, 3
    9050:	25 91       	lpm	r18, Z+
    9052:	83 fe       	sbrs	r8, 3
    9054:	21 91       	ld	r18, Z+
    9056:	8f 01       	movw	r16, r30
    9058:	52 2e       	mov	r5, r18
    905a:	21 11       	cpse	r18, r1
    905c:	03 c0       	rjmp	.+6      	; 0x9064 <conv_brk+0x72>
    905e:	80 e0       	ldi	r24, 0x00	; 0
    9060:	90 e0       	ldi	r25, 0x00	; 0
    9062:	90 c0       	rjmp	.+288    	; 0x9184 <conv_brk+0x192>
    9064:	2e 35       	cpi	r18, 0x5E	; 94
    9066:	11 f4       	brne	.+4      	; 0x906c <conv_brk+0x7a>
    9068:	00 97       	sbiw	r24, 0x00	; 0
    906a:	51 f1       	breq	.+84     	; 0x90c0 <conv_brk+0xce>
    906c:	43 2f       	mov	r20, r19
    906e:	50 e0       	ldi	r21, 0x00	; 0
    9070:	48 17       	cp	r20, r24
    9072:	59 07       	cpc	r21, r25
    9074:	3c f4       	brge	.+14     	; 0x9084 <conv_brk+0x92>
    9076:	2d 35       	cpi	r18, 0x5D	; 93
    9078:	59 f1       	breq	.+86     	; 0x90d0 <conv_brk+0xde>
    907a:	2d 32       	cpi	r18, 0x2D	; 45
    907c:	19 f4       	brne	.+6      	; 0x9084 <conv_brk+0x92>
    907e:	77 20       	and	r7, r7
    9080:	09 f1       	breq	.+66     	; 0x90c4 <conv_brk+0xd2>
    9082:	03 c0       	rjmp	.+6      	; 0x908a <conv_brk+0x98>
    9084:	77 20       	and	r7, r7
    9086:	09 f4       	brne	.+2      	; 0x908a <conv_brk+0x98>
    9088:	68 c0       	rjmp	.+208    	; 0x915a <conv_brk+0x168>
    908a:	45 2d       	mov	r20, r5
    908c:	46 95       	lsr	r20
    908e:	46 95       	lsr	r20
    9090:	46 95       	lsr	r20
    9092:	d6 01       	movw	r26, r12
    9094:	a4 0f       	add	r26, r20
    9096:	b1 1d       	adc	r27, r1
    9098:	45 2d       	mov	r20, r5
    909a:	47 70       	andi	r20, 0x07	; 7
    909c:	8b 01       	movw	r16, r22
    909e:	02 c0       	rjmp	.+4      	; 0x90a4 <conv_brk+0xb2>
    90a0:	00 0f       	add	r16, r16
    90a2:	11 1f       	adc	r17, r17
    90a4:	4a 95       	dec	r20
    90a6:	e2 f7       	brpl	.-8      	; 0x90a0 <conv_brk+0xae>
    90a8:	a8 01       	movw	r20, r16
    90aa:	5c 91       	ld	r21, X
    90ac:	45 2b       	or	r20, r21
    90ae:	4c 93       	st	X, r20
    90b0:	65 14       	cp	r6, r5
    90b2:	59 f0       	breq	.+22     	; 0x90ca <conv_brk+0xd8>
    90b4:	56 14       	cp	r5, r6
    90b6:	10 f4       	brcc	.+4      	; 0x90bc <conv_brk+0xca>
    90b8:	53 94       	inc	r5
    90ba:	e7 cf       	rjmp	.-50     	; 0x908a <conv_brk+0x98>
    90bc:	5a 94       	dec	r5
    90be:	e5 cf       	rjmp	.-54     	; 0x908a <conv_brk+0x98>
    90c0:	31 e0       	ldi	r19, 0x01	; 1
    90c2:	04 c0       	rjmp	.+8      	; 0x90cc <conv_brk+0xda>
    90c4:	77 24       	eor	r7, r7
    90c6:	73 94       	inc	r7
    90c8:	01 c0       	rjmp	.+2      	; 0x90cc <conv_brk+0xda>
    90ca:	71 2c       	mov	r7, r1
    90cc:	01 96       	adiw	r24, 0x01	; 1
    90ce:	bf cf       	rjmp	.-130    	; 0x904e <conv_brk+0x5c>
    90d0:	77 20       	and	r7, r7
    90d2:	19 f0       	breq	.+6      	; 0x90da <conv_brk+0xe8>
    90d4:	8e 81       	ldd	r24, Y+6	; 0x06
    90d6:	80 62       	ori	r24, 0x20	; 32
    90d8:	8e 83       	std	Y+6, r24	; 0x06
    90da:	31 11       	cpse	r19, r1
    90dc:	03 c0       	rjmp	.+6      	; 0x90e4 <conv_brk+0xf2>
    90de:	88 24       	eor	r8, r8
    90e0:	83 94       	inc	r8
    90e2:	17 c0       	rjmp	.+46     	; 0x9112 <conv_brk+0x120>
    90e4:	f6 01       	movw	r30, r12
    90e6:	9e 01       	movw	r18, r28
    90e8:	2f 5d       	subi	r18, 0xDF	; 223
    90ea:	3f 4f       	sbci	r19, 0xFF	; 255
    90ec:	80 81       	ld	r24, Z
    90ee:	80 95       	com	r24
    90f0:	81 93       	st	Z+, r24
    90f2:	2e 17       	cp	r18, r30
    90f4:	3f 07       	cpc	r19, r31
    90f6:	d1 f7       	brne	.-12     	; 0x90ec <conv_brk+0xfa>
    90f8:	f2 cf       	rjmp	.-28     	; 0x90de <conv_brk+0xec>
    90fa:	e1 14       	cp	r14, r1
    90fc:	f1 04       	cpc	r15, r1
    90fe:	29 f0       	breq	.+10     	; 0x910a <conv_brk+0x118>
    9100:	d7 01       	movw	r26, r14
    9102:	8c 93       	st	X, r24
    9104:	f7 01       	movw	r30, r14
    9106:	31 96       	adiw	r30, 0x01	; 1
    9108:	7f 01       	movw	r14, r30
    910a:	9a 94       	dec	r9
    910c:	81 2c       	mov	r8, r1
    910e:	99 20       	and	r9, r9
    9110:	e9 f0       	breq	.+58     	; 0x914c <conv_brk+0x15a>
    9112:	c5 01       	movw	r24, r10
    9114:	e4 d2       	rcall	.+1480   	; 0x96de <fgetc>
    9116:	97 fd       	sbrc	r25, 7
    9118:	17 c0       	rjmp	.+46     	; 0x9148 <conv_brk+0x156>
    911a:	fc 01       	movw	r30, r24
    911c:	ff 27       	eor	r31, r31
    911e:	23 e0       	ldi	r18, 0x03	; 3
    9120:	f5 95       	asr	r31
    9122:	e7 95       	ror	r30
    9124:	2a 95       	dec	r18
    9126:	e1 f7       	brne	.-8      	; 0x9120 <conv_brk+0x12e>
    9128:	ec 0d       	add	r30, r12
    912a:	fd 1d       	adc	r31, r13
    912c:	20 81       	ld	r18, Z
    912e:	30 e0       	ldi	r19, 0x00	; 0
    9130:	ac 01       	movw	r20, r24
    9132:	47 70       	andi	r20, 0x07	; 7
    9134:	55 27       	eor	r21, r21
    9136:	02 c0       	rjmp	.+4      	; 0x913c <conv_brk+0x14a>
    9138:	35 95       	asr	r19
    913a:	27 95       	ror	r18
    913c:	4a 95       	dec	r20
    913e:	e2 f7       	brpl	.-8      	; 0x9138 <conv_brk+0x146>
    9140:	20 fd       	sbrc	r18, 0
    9142:	db cf       	rjmp	.-74     	; 0x90fa <conv_brk+0x108>
    9144:	b5 01       	movw	r22, r10
    9146:	09 d3       	rcall	.+1554   	; 0x975a <ungetc>
    9148:	81 10       	cpse	r8, r1
    914a:	89 cf       	rjmp	.-238    	; 0x905e <conv_brk+0x6c>
    914c:	e1 14       	cp	r14, r1
    914e:	f1 04       	cpc	r15, r1
    9150:	11 f0       	breq	.+4      	; 0x9156 <conv_brk+0x164>
    9152:	d7 01       	movw	r26, r14
    9154:	1c 92       	st	X, r1
    9156:	c8 01       	movw	r24, r16
    9158:	15 c0       	rjmp	.+42     	; 0x9184 <conv_brk+0x192>
    915a:	42 2f       	mov	r20, r18
    915c:	46 95       	lsr	r20
    915e:	46 95       	lsr	r20
    9160:	46 95       	lsr	r20
    9162:	d6 01       	movw	r26, r12
    9164:	a4 0f       	add	r26, r20
    9166:	b1 1d       	adc	r27, r1
    9168:	42 2f       	mov	r20, r18
    916a:	47 70       	andi	r20, 0x07	; 7
    916c:	8b 01       	movw	r16, r22
    916e:	02 c0       	rjmp	.+4      	; 0x9174 <conv_brk+0x182>
    9170:	00 0f       	add	r16, r16
    9172:	11 1f       	adc	r17, r17
    9174:	4a 95       	dec	r20
    9176:	e2 f7       	brpl	.-8      	; 0x9170 <conv_brk+0x17e>
    9178:	a8 01       	movw	r20, r16
    917a:	5c 91       	ld	r21, X
    917c:	45 2b       	or	r20, r21
    917e:	4c 93       	st	X, r20
    9180:	62 2e       	mov	r6, r18
    9182:	a4 cf       	rjmp	.-184    	; 0x90cc <conv_brk+0xda>
    9184:	a0 96       	adiw	r28, 0x20	; 32
    9186:	0f b6       	in	r0, 0x3f	; 63
    9188:	f8 94       	cli
    918a:	de bf       	out	0x3e, r29	; 62
    918c:	0f be       	out	0x3f, r0	; 63
    918e:	cd bf       	out	0x3d, r28	; 61
    9190:	df 91       	pop	r29
    9192:	cf 91       	pop	r28
    9194:	1f 91       	pop	r17
    9196:	0f 91       	pop	r16
    9198:	ff 90       	pop	r15
    919a:	ef 90       	pop	r14
    919c:	df 90       	pop	r13
    919e:	cf 90       	pop	r12
    91a0:	bf 90       	pop	r11
    91a2:	af 90       	pop	r10
    91a4:	9f 90       	pop	r9
    91a6:	8f 90       	pop	r8
    91a8:	7f 90       	pop	r7
    91aa:	6f 90       	pop	r6
    91ac:	5f 90       	pop	r5
    91ae:	08 95       	ret

000091b0 <vfscanf>:
    91b0:	5f 92       	push	r5
    91b2:	6f 92       	push	r6
    91b4:	7f 92       	push	r7
    91b6:	8f 92       	push	r8
    91b8:	9f 92       	push	r9
    91ba:	af 92       	push	r10
    91bc:	bf 92       	push	r11
    91be:	cf 92       	push	r12
    91c0:	df 92       	push	r13
    91c2:	ef 92       	push	r14
    91c4:	ff 92       	push	r15
    91c6:	0f 93       	push	r16
    91c8:	1f 93       	push	r17
    91ca:	cf 93       	push	r28
    91cc:	df 93       	push	r29
    91ce:	6c 01       	movw	r12, r24
    91d0:	eb 01       	movw	r28, r22
    91d2:	5a 01       	movw	r10, r20
    91d4:	fc 01       	movw	r30, r24
    91d6:	17 82       	std	Z+7, r1	; 0x07
    91d8:	16 82       	std	Z+6, r1	; 0x06
    91da:	51 2c       	mov	r5, r1
    91dc:	f6 01       	movw	r30, r12
    91de:	e3 80       	ldd	r14, Z+3	; 0x03
    91e0:	fe 01       	movw	r30, r28
    91e2:	e3 fc       	sbrc	r14, 3
    91e4:	85 91       	lpm	r24, Z+
    91e6:	e3 fe       	sbrs	r14, 3
    91e8:	81 91       	ld	r24, Z+
    91ea:	18 2f       	mov	r17, r24
    91ec:	ef 01       	movw	r28, r30
    91ee:	88 23       	and	r24, r24
    91f0:	09 f4       	brne	.+2      	; 0x91f4 <vfscanf+0x44>
    91f2:	e0 c0       	rjmp	.+448    	; 0x93b4 <vfscanf+0x204>
    91f4:	90 e0       	ldi	r25, 0x00	; 0
    91f6:	48 d2       	rcall	.+1168   	; 0x9688 <isspace>
    91f8:	89 2b       	or	r24, r25
    91fa:	19 f0       	breq	.+6      	; 0x9202 <vfscanf+0x52>
    91fc:	c6 01       	movw	r24, r12
    91fe:	59 de       	rcall	.-846    	; 0x8eb2 <skip_spaces>
    9200:	ed cf       	rjmp	.-38     	; 0x91dc <vfscanf+0x2c>
    9202:	15 32       	cpi	r17, 0x25	; 37
    9204:	41 f4       	brne	.+16     	; 0x9216 <vfscanf+0x66>
    9206:	fe 01       	movw	r30, r28
    9208:	e3 fc       	sbrc	r14, 3
    920a:	15 91       	lpm	r17, Z+
    920c:	e3 fe       	sbrs	r14, 3
    920e:	11 91       	ld	r17, Z+
    9210:	ef 01       	movw	r28, r30
    9212:	15 32       	cpi	r17, 0x25	; 37
    9214:	71 f4       	brne	.+28     	; 0x9232 <vfscanf+0x82>
    9216:	c6 01       	movw	r24, r12
    9218:	62 d2       	rcall	.+1220   	; 0x96de <fgetc>
    921a:	97 fd       	sbrc	r25, 7
    921c:	c9 c0       	rjmp	.+402    	; 0x93b0 <vfscanf+0x200>
    921e:	41 2f       	mov	r20, r17
    9220:	50 e0       	ldi	r21, 0x00	; 0
    9222:	9c 01       	movw	r18, r24
    9224:	33 27       	eor	r19, r19
    9226:	24 17       	cp	r18, r20
    9228:	35 07       	cpc	r19, r21
    922a:	c1 f2       	breq	.-80     	; 0x91dc <vfscanf+0x2c>
    922c:	b6 01       	movw	r22, r12
    922e:	95 d2       	rcall	.+1322   	; 0x975a <ungetc>
    9230:	c1 c0       	rjmp	.+386    	; 0x93b4 <vfscanf+0x204>
    9232:	1a 32       	cpi	r17, 0x2A	; 42
    9234:	39 f4       	brne	.+14     	; 0x9244 <vfscanf+0x94>
    9236:	e3 fc       	sbrc	r14, 3
    9238:	15 91       	lpm	r17, Z+
    923a:	e3 fe       	sbrs	r14, 3
    923c:	11 91       	ld	r17, Z+
    923e:	ef 01       	movw	r28, r30
    9240:	01 e0       	ldi	r16, 0x01	; 1
    9242:	01 c0       	rjmp	.+2      	; 0x9246 <vfscanf+0x96>
    9244:	00 e0       	ldi	r16, 0x00	; 0
    9246:	f1 2c       	mov	r15, r1
    9248:	20 ed       	ldi	r18, 0xD0	; 208
    924a:	21 0f       	add	r18, r17
    924c:	2a 30       	cpi	r18, 0x0A	; 10
    924e:	78 f4       	brcc	.+30     	; 0x926e <vfscanf+0xbe>
    9250:	02 60       	ori	r16, 0x02	; 2
    9252:	6f 2d       	mov	r22, r15
    9254:	70 e0       	ldi	r23, 0x00	; 0
    9256:	80 e0       	ldi	r24, 0x00	; 0
    9258:	90 e0       	ldi	r25, 0x00	; 0
    925a:	40 e2       	ldi	r20, 0x20	; 32
    925c:	03 de       	rcall	.-1018   	; 0x8e64 <mulacc>
    925e:	f6 2e       	mov	r15, r22
    9260:	fe 01       	movw	r30, r28
    9262:	e3 fc       	sbrc	r14, 3
    9264:	15 91       	lpm	r17, Z+
    9266:	e3 fe       	sbrs	r14, 3
    9268:	11 91       	ld	r17, Z+
    926a:	ef 01       	movw	r28, r30
    926c:	ed cf       	rjmp	.-38     	; 0x9248 <vfscanf+0x98>
    926e:	01 ff       	sbrs	r16, 1
    9270:	03 c0       	rjmp	.+6      	; 0x9278 <vfscanf+0xc8>
    9272:	f1 10       	cpse	r15, r1
    9274:	03 c0       	rjmp	.+6      	; 0x927c <vfscanf+0xcc>
    9276:	9e c0       	rjmp	.+316    	; 0x93b4 <vfscanf+0x204>
    9278:	ff 24       	eor	r15, r15
    927a:	fa 94       	dec	r15
    927c:	18 36       	cpi	r17, 0x68	; 104
    927e:	19 f0       	breq	.+6      	; 0x9286 <vfscanf+0xd6>
    9280:	1c 36       	cpi	r17, 0x6C	; 108
    9282:	51 f0       	breq	.+20     	; 0x9298 <vfscanf+0xe8>
    9284:	10 c0       	rjmp	.+32     	; 0x92a6 <vfscanf+0xf6>
    9286:	fe 01       	movw	r30, r28
    9288:	e3 fc       	sbrc	r14, 3
    928a:	15 91       	lpm	r17, Z+
    928c:	e3 fe       	sbrs	r14, 3
    928e:	11 91       	ld	r17, Z+
    9290:	ef 01       	movw	r28, r30
    9292:	18 36       	cpi	r17, 0x68	; 104
    9294:	41 f4       	brne	.+16     	; 0x92a6 <vfscanf+0xf6>
    9296:	08 60       	ori	r16, 0x08	; 8
    9298:	04 60       	ori	r16, 0x04	; 4
    929a:	fe 01       	movw	r30, r28
    929c:	e3 fc       	sbrc	r14, 3
    929e:	15 91       	lpm	r17, Z+
    92a0:	e3 fe       	sbrs	r14, 3
    92a2:	11 91       	ld	r17, Z+
    92a4:	ef 01       	movw	r28, r30
    92a6:	11 23       	and	r17, r17
    92a8:	09 f4       	brne	.+2      	; 0x92ac <vfscanf+0xfc>
    92aa:	84 c0       	rjmp	.+264    	; 0x93b4 <vfscanf+0x204>
    92ac:	61 2f       	mov	r22, r17
    92ae:	70 e0       	ldi	r23, 0x00	; 0
    92b0:	86 ea       	ldi	r24, 0xA6	; 166
    92b2:	92 e0       	ldi	r25, 0x02	; 2
    92b4:	f1 d1       	rcall	.+994    	; 0x9698 <strchr_P>
    92b6:	89 2b       	or	r24, r25
    92b8:	09 f4       	brne	.+2      	; 0x92bc <vfscanf+0x10c>
    92ba:	7c c0       	rjmp	.+248    	; 0x93b4 <vfscanf+0x204>
    92bc:	00 fd       	sbrc	r16, 0
    92be:	07 c0       	rjmp	.+14     	; 0x92ce <vfscanf+0x11e>
    92c0:	f5 01       	movw	r30, r10
    92c2:	80 80       	ld	r8, Z
    92c4:	91 80       	ldd	r9, Z+1	; 0x01
    92c6:	c5 01       	movw	r24, r10
    92c8:	02 96       	adiw	r24, 0x02	; 2
    92ca:	5c 01       	movw	r10, r24
    92cc:	02 c0       	rjmp	.+4      	; 0x92d2 <vfscanf+0x122>
    92ce:	81 2c       	mov	r8, r1
    92d0:	91 2c       	mov	r9, r1
    92d2:	1e 36       	cpi	r17, 0x6E	; 110
    92d4:	49 f4       	brne	.+18     	; 0x92e8 <vfscanf+0x138>
    92d6:	f6 01       	movw	r30, r12
    92d8:	46 81       	ldd	r20, Z+6	; 0x06
    92da:	57 81       	ldd	r21, Z+7	; 0x07
    92dc:	60 e0       	ldi	r22, 0x00	; 0
    92de:	70 e0       	ldi	r23, 0x00	; 0
    92e0:	20 2f       	mov	r18, r16
    92e2:	c4 01       	movw	r24, r8
    92e4:	b3 dd       	rcall	.-1178   	; 0x8e4c <putval>
    92e6:	7a cf       	rjmp	.-268    	; 0x91dc <vfscanf+0x2c>
    92e8:	13 36       	cpi	r17, 0x63	; 99
    92ea:	a1 f4       	brne	.+40     	; 0x9314 <vfscanf+0x164>
    92ec:	01 fd       	sbrc	r16, 1
    92ee:	02 c0       	rjmp	.+4      	; 0x92f4 <vfscanf+0x144>
    92f0:	ff 24       	eor	r15, r15
    92f2:	f3 94       	inc	r15
    92f4:	c6 01       	movw	r24, r12
    92f6:	f3 d1       	rcall	.+998    	; 0x96de <fgetc>
    92f8:	97 fd       	sbrc	r25, 7
    92fa:	5a c0       	rjmp	.+180    	; 0x93b0 <vfscanf+0x200>
    92fc:	81 14       	cp	r8, r1
    92fe:	91 04       	cpc	r9, r1
    9300:	29 f0       	breq	.+10     	; 0x930c <vfscanf+0x15c>
    9302:	f4 01       	movw	r30, r8
    9304:	80 83       	st	Z, r24
    9306:	c4 01       	movw	r24, r8
    9308:	01 96       	adiw	r24, 0x01	; 1
    930a:	4c 01       	movw	r8, r24
    930c:	fa 94       	dec	r15
    930e:	f1 10       	cpse	r15, r1
    9310:	f1 cf       	rjmp	.-30     	; 0x92f4 <vfscanf+0x144>
    9312:	4a c0       	rjmp	.+148    	; 0x93a8 <vfscanf+0x1f8>
    9314:	1b 35       	cpi	r17, 0x5B	; 91
    9316:	51 f4       	brne	.+20     	; 0x932c <vfscanf+0x17c>
    9318:	9e 01       	movw	r18, r28
    931a:	a4 01       	movw	r20, r8
    931c:	6f 2d       	mov	r22, r15
    931e:	c6 01       	movw	r24, r12
    9320:	68 de       	rcall	.-816    	; 0x8ff2 <conv_brk>
    9322:	ec 01       	movw	r28, r24
    9324:	89 2b       	or	r24, r25
    9326:	09 f0       	breq	.+2      	; 0x932a <vfscanf+0x17a>
    9328:	3f c0       	rjmp	.+126    	; 0x93a8 <vfscanf+0x1f8>
    932a:	39 c0       	rjmp	.+114    	; 0x939e <vfscanf+0x1ee>
    932c:	c6 01       	movw	r24, r12
    932e:	c1 dd       	rcall	.-1150   	; 0x8eb2 <skip_spaces>
    9330:	97 fd       	sbrc	r25, 7
    9332:	3e c0       	rjmp	.+124    	; 0x93b0 <vfscanf+0x200>
    9334:	1f 36       	cpi	r17, 0x6F	; 111
    9336:	49 f1       	breq	.+82     	; 0x938a <vfscanf+0x1da>
    9338:	28 f4       	brcc	.+10     	; 0x9344 <vfscanf+0x194>
    933a:	14 36       	cpi	r17, 0x64	; 100
    933c:	21 f1       	breq	.+72     	; 0x9386 <vfscanf+0x1d6>
    933e:	19 36       	cpi	r17, 0x69	; 105
    9340:	39 f1       	breq	.+78     	; 0x9390 <vfscanf+0x1e0>
    9342:	25 c0       	rjmp	.+74     	; 0x938e <vfscanf+0x1de>
    9344:	13 37       	cpi	r17, 0x73	; 115
    9346:	71 f0       	breq	.+28     	; 0x9364 <vfscanf+0x1b4>
    9348:	15 37       	cpi	r17, 0x75	; 117
    934a:	e9 f0       	breq	.+58     	; 0x9386 <vfscanf+0x1d6>
    934c:	20 c0       	rjmp	.+64     	; 0x938e <vfscanf+0x1de>
    934e:	81 14       	cp	r8, r1
    9350:	91 04       	cpc	r9, r1
    9352:	29 f0       	breq	.+10     	; 0x935e <vfscanf+0x1ae>
    9354:	f4 01       	movw	r30, r8
    9356:	60 82       	st	Z, r6
    9358:	c4 01       	movw	r24, r8
    935a:	01 96       	adiw	r24, 0x01	; 1
    935c:	4c 01       	movw	r8, r24
    935e:	fa 94       	dec	r15
    9360:	ff 20       	and	r15, r15
    9362:	59 f0       	breq	.+22     	; 0x937a <vfscanf+0x1ca>
    9364:	c6 01       	movw	r24, r12
    9366:	bb d1       	rcall	.+886    	; 0x96de <fgetc>
    9368:	3c 01       	movw	r6, r24
    936a:	97 fd       	sbrc	r25, 7
    936c:	06 c0       	rjmp	.+12     	; 0x937a <vfscanf+0x1ca>
    936e:	8c d1       	rcall	.+792    	; 0x9688 <isspace>
    9370:	89 2b       	or	r24, r25
    9372:	69 f3       	breq	.-38     	; 0x934e <vfscanf+0x19e>
    9374:	b6 01       	movw	r22, r12
    9376:	c3 01       	movw	r24, r6
    9378:	f0 d1       	rcall	.+992    	; 0x975a <ungetc>
    937a:	81 14       	cp	r8, r1
    937c:	91 04       	cpc	r9, r1
    937e:	a1 f0       	breq	.+40     	; 0x93a8 <vfscanf+0x1f8>
    9380:	f4 01       	movw	r30, r8
    9382:	10 82       	st	Z, r1
    9384:	11 c0       	rjmp	.+34     	; 0x93a8 <vfscanf+0x1f8>
    9386:	00 62       	ori	r16, 0x20	; 32
    9388:	03 c0       	rjmp	.+6      	; 0x9390 <vfscanf+0x1e0>
    938a:	00 61       	ori	r16, 0x10	; 16
    938c:	01 c0       	rjmp	.+2      	; 0x9390 <vfscanf+0x1e0>
    938e:	00 64       	ori	r16, 0x40	; 64
    9390:	20 2f       	mov	r18, r16
    9392:	a4 01       	movw	r20, r8
    9394:	6f 2d       	mov	r22, r15
    9396:	c6 01       	movw	r24, r12
    9398:	a2 dd       	rcall	.-1212   	; 0x8ede <conv_int>
    939a:	81 11       	cpse	r24, r1
    939c:	05 c0       	rjmp	.+10     	; 0x93a8 <vfscanf+0x1f8>
    939e:	f6 01       	movw	r30, r12
    93a0:	83 81       	ldd	r24, Z+3	; 0x03
    93a2:	80 73       	andi	r24, 0x30	; 48
    93a4:	29 f4       	brne	.+10     	; 0x93b0 <vfscanf+0x200>
    93a6:	06 c0       	rjmp	.+12     	; 0x93b4 <vfscanf+0x204>
    93a8:	00 fd       	sbrc	r16, 0
    93aa:	18 cf       	rjmp	.-464    	; 0x91dc <vfscanf+0x2c>
    93ac:	53 94       	inc	r5
    93ae:	16 cf       	rjmp	.-468    	; 0x91dc <vfscanf+0x2c>
    93b0:	55 20       	and	r5, r5
    93b2:	19 f0       	breq	.+6      	; 0x93ba <vfscanf+0x20a>
    93b4:	85 2d       	mov	r24, r5
    93b6:	90 e0       	ldi	r25, 0x00	; 0
    93b8:	02 c0       	rjmp	.+4      	; 0x93be <vfscanf+0x20e>
    93ba:	8f ef       	ldi	r24, 0xFF	; 255
    93bc:	9f ef       	ldi	r25, 0xFF	; 255
    93be:	df 91       	pop	r29
    93c0:	cf 91       	pop	r28
    93c2:	1f 91       	pop	r17
    93c4:	0f 91       	pop	r16
    93c6:	ff 90       	pop	r15
    93c8:	ef 90       	pop	r14
    93ca:	df 90       	pop	r13
    93cc:	cf 90       	pop	r12
    93ce:	bf 90       	pop	r11
    93d0:	af 90       	pop	r10
    93d2:	9f 90       	pop	r9
    93d4:	8f 90       	pop	r8
    93d6:	7f 90       	pop	r7
    93d8:	6f 90       	pop	r6
    93da:	5f 90       	pop	r5
    93dc:	08 95       	ret

000093de <strtod>:
    93de:	8f 92       	push	r8
    93e0:	9f 92       	push	r9
    93e2:	af 92       	push	r10
    93e4:	bf 92       	push	r11
    93e6:	cf 92       	push	r12
    93e8:	df 92       	push	r13
    93ea:	ef 92       	push	r14
    93ec:	ff 92       	push	r15
    93ee:	0f 93       	push	r16
    93f0:	1f 93       	push	r17
    93f2:	cf 93       	push	r28
    93f4:	df 93       	push	r29
    93f6:	ec 01       	movw	r28, r24
    93f8:	6b 01       	movw	r12, r22
    93fa:	61 15       	cp	r22, r1
    93fc:	71 05       	cpc	r23, r1
    93fe:	19 f0       	breq	.+6      	; 0x9406 <strtod+0x28>
    9400:	fb 01       	movw	r30, r22
    9402:	91 83       	std	Z+1, r25	; 0x01
    9404:	80 83       	st	Z, r24
    9406:	7e 01       	movw	r14, r28
    9408:	ff ef       	ldi	r31, 0xFF	; 255
    940a:	ef 1a       	sub	r14, r31
    940c:	ff 0a       	sbc	r15, r31
    940e:	08 81       	ld	r16, Y
    9410:	80 2f       	mov	r24, r16
    9412:	90 e0       	ldi	r25, 0x00	; 0
    9414:	39 d1       	rcall	.+626    	; 0x9688 <isspace>
    9416:	89 2b       	or	r24, r25
    9418:	11 f0       	breq	.+4      	; 0x941e <strtod+0x40>
    941a:	e7 01       	movw	r28, r14
    941c:	f4 cf       	rjmp	.-24     	; 0x9406 <strtod+0x28>
    941e:	0d 32       	cpi	r16, 0x2D	; 45
    9420:	39 f4       	brne	.+14     	; 0x9430 <strtod+0x52>
    9422:	7e 01       	movw	r14, r28
    9424:	82 e0       	ldi	r24, 0x02	; 2
    9426:	e8 0e       	add	r14, r24
    9428:	f1 1c       	adc	r15, r1
    942a:	09 81       	ldd	r16, Y+1	; 0x01
    942c:	11 e0       	ldi	r17, 0x01	; 1
    942e:	08 c0       	rjmp	.+16     	; 0x9440 <strtod+0x62>
    9430:	0b 32       	cpi	r16, 0x2B	; 43
    9432:	29 f4       	brne	.+10     	; 0x943e <strtod+0x60>
    9434:	7e 01       	movw	r14, r28
    9436:	92 e0       	ldi	r25, 0x02	; 2
    9438:	e9 0e       	add	r14, r25
    943a:	f1 1c       	adc	r15, r1
    943c:	09 81       	ldd	r16, Y+1	; 0x01
    943e:	10 e0       	ldi	r17, 0x00	; 0
    9440:	e7 01       	movw	r28, r14
    9442:	21 97       	sbiw	r28, 0x01	; 1
    9444:	43 e0       	ldi	r20, 0x03	; 3
    9446:	50 e0       	ldi	r21, 0x00	; 0
    9448:	6a eb       	ldi	r22, 0xBA	; 186
    944a:	72 e0       	ldi	r23, 0x02	; 2
    944c:	ce 01       	movw	r24, r28
    944e:	2f d1       	rcall	.+606    	; 0x96ae <strncasecmp_P>
    9450:	89 2b       	or	r24, r25
    9452:	b9 f4       	brne	.+46     	; 0x9482 <strtod+0xa4>
    9454:	23 96       	adiw	r28, 0x03	; 3
    9456:	45 e0       	ldi	r20, 0x05	; 5
    9458:	50 e0       	ldi	r21, 0x00	; 0
    945a:	65 eb       	ldi	r22, 0xB5	; 181
    945c:	72 e0       	ldi	r23, 0x02	; 2
    945e:	ce 01       	movw	r24, r28
    9460:	26 d1       	rcall	.+588    	; 0x96ae <strncasecmp_P>
    9462:	89 2b       	or	r24, r25
    9464:	09 f4       	brne	.+2      	; 0x9468 <strtod+0x8a>
    9466:	25 96       	adiw	r28, 0x05	; 5
    9468:	c1 14       	cp	r12, r1
    946a:	d1 04       	cpc	r13, r1
    946c:	19 f0       	breq	.+6      	; 0x9474 <strtod+0x96>
    946e:	f6 01       	movw	r30, r12
    9470:	d1 83       	std	Z+1, r29	; 0x01
    9472:	c0 83       	st	Z, r28
    9474:	11 11       	cpse	r17, r1
    9476:	f2 c0       	rjmp	.+484    	; 0x965c <strtod+0x27e>
    9478:	60 e0       	ldi	r22, 0x00	; 0
    947a:	70 e0       	ldi	r23, 0x00	; 0
    947c:	80 e8       	ldi	r24, 0x80	; 128
    947e:	9f e7       	ldi	r25, 0x7F	; 127
    9480:	f6 c0       	rjmp	.+492    	; 0x966e <strtod+0x290>
    9482:	43 e0       	ldi	r20, 0x03	; 3
    9484:	50 e0       	ldi	r21, 0x00	; 0
    9486:	62 eb       	ldi	r22, 0xB2	; 178
    9488:	72 e0       	ldi	r23, 0x02	; 2
    948a:	ce 01       	movw	r24, r28
    948c:	10 d1       	rcall	.+544    	; 0x96ae <strncasecmp_P>
    948e:	89 2b       	or	r24, r25
    9490:	59 f4       	brne	.+22     	; 0x94a8 <strtod+0xca>
    9492:	c1 14       	cp	r12, r1
    9494:	d1 04       	cpc	r13, r1
    9496:	09 f4       	brne	.+2      	; 0x949a <strtod+0xbc>
    9498:	e6 c0       	rjmp	.+460    	; 0x9666 <strtod+0x288>
    949a:	f2 e0       	ldi	r31, 0x02	; 2
    949c:	ef 0e       	add	r14, r31
    949e:	f1 1c       	adc	r15, r1
    94a0:	f6 01       	movw	r30, r12
    94a2:	f1 82       	std	Z+1, r15	; 0x01
    94a4:	e0 82       	st	Z, r14
    94a6:	df c0       	rjmp	.+446    	; 0x9666 <strtod+0x288>
    94a8:	20 e0       	ldi	r18, 0x00	; 0
    94aa:	30 e0       	ldi	r19, 0x00	; 0
    94ac:	a9 01       	movw	r20, r18
    94ae:	c0 e0       	ldi	r28, 0x00	; 0
    94b0:	d0 e0       	ldi	r29, 0x00	; 0
    94b2:	f7 01       	movw	r30, r14
    94b4:	60 ed       	ldi	r22, 0xD0	; 208
    94b6:	a6 2e       	mov	r10, r22
    94b8:	a0 0e       	add	r10, r16
    94ba:	89 e0       	ldi	r24, 0x09	; 9
    94bc:	8a 15       	cp	r24, r10
    94be:	28 f1       	brcs	.+74     	; 0x950a <strtod+0x12c>
    94c0:	91 2f       	mov	r25, r17
    94c2:	92 60       	ori	r25, 0x02	; 2
    94c4:	b9 2e       	mov	r11, r25
    94c6:	81 2f       	mov	r24, r17
    94c8:	88 70       	andi	r24, 0x08	; 8
    94ca:	12 ff       	sbrs	r17, 2
    94cc:	04 c0       	rjmp	.+8      	; 0x94d6 <strtod+0xf8>
    94ce:	81 11       	cpse	r24, r1
    94d0:	23 c0       	rjmp	.+70     	; 0x9518 <strtod+0x13a>
    94d2:	21 96       	adiw	r28, 0x01	; 1
    94d4:	21 c0       	rjmp	.+66     	; 0x9518 <strtod+0x13a>
    94d6:	81 11       	cpse	r24, r1
    94d8:	21 97       	sbiw	r28, 0x01	; 1
    94da:	a5 e0       	ldi	r26, 0x05	; 5
    94dc:	b0 e0       	ldi	r27, 0x00	; 0
    94de:	89 da       	rcall	.-2798   	; 0x89f2 <__muluhisi3>
    94e0:	dc 01       	movw	r26, r24
    94e2:	cb 01       	movw	r24, r22
    94e4:	88 0f       	add	r24, r24
    94e6:	99 1f       	adc	r25, r25
    94e8:	aa 1f       	adc	r26, r26
    94ea:	bb 1f       	adc	r27, r27
    94ec:	9c 01       	movw	r18, r24
    94ee:	ad 01       	movw	r20, r26
    94f0:	2a 0d       	add	r18, r10
    94f2:	31 1d       	adc	r19, r1
    94f4:	41 1d       	adc	r20, r1
    94f6:	51 1d       	adc	r21, r1
    94f8:	28 39       	cpi	r18, 0x98	; 152
    94fa:	89 e9       	ldi	r24, 0x99	; 153
    94fc:	38 07       	cpc	r19, r24
    94fe:	48 07       	cpc	r20, r24
    9500:	89 e1       	ldi	r24, 0x19	; 25
    9502:	58 07       	cpc	r21, r24
    9504:	48 f0       	brcs	.+18     	; 0x9518 <strtod+0x13a>
    9506:	16 60       	ori	r17, 0x06	; 6
    9508:	06 c0       	rjmp	.+12     	; 0x9516 <strtod+0x138>
    950a:	9e ef       	ldi	r25, 0xFE	; 254
    950c:	a9 12       	cpse	r10, r25
    950e:	0a c0       	rjmp	.+20     	; 0x9524 <strtod+0x146>
    9510:	13 fd       	sbrc	r17, 3
    9512:	40 c0       	rjmp	.+128    	; 0x9594 <strtod+0x1b6>
    9514:	18 60       	ori	r17, 0x08	; 8
    9516:	b1 2e       	mov	r11, r17
    9518:	8f ef       	ldi	r24, 0xFF	; 255
    951a:	e8 1a       	sub	r14, r24
    951c:	f8 0a       	sbc	r15, r24
    951e:	00 81       	ld	r16, Z
    9520:	1b 2d       	mov	r17, r11
    9522:	c7 cf       	rjmp	.-114    	; 0x94b2 <strtod+0xd4>
    9524:	80 2f       	mov	r24, r16
    9526:	8f 7d       	andi	r24, 0xDF	; 223
    9528:	85 34       	cpi	r24, 0x45	; 69
    952a:	a1 f5       	brne	.+104    	; 0x9594 <strtod+0x1b6>
    952c:	80 81       	ld	r24, Z
    952e:	8d 32       	cpi	r24, 0x2D	; 45
    9530:	11 f4       	brne	.+4      	; 0x9536 <strtod+0x158>
    9532:	10 61       	ori	r17, 0x10	; 16
    9534:	06 c0       	rjmp	.+12     	; 0x9542 <strtod+0x164>
    9536:	8b 32       	cpi	r24, 0x2B	; 43
    9538:	21 f0       	breq	.+8      	; 0x9542 <strtod+0x164>
    953a:	31 96       	adiw	r30, 0x01	; 1
    953c:	61 e0       	ldi	r22, 0x01	; 1
    953e:	70 e0       	ldi	r23, 0x00	; 0
    9540:	04 c0       	rjmp	.+8      	; 0x954a <strtod+0x16c>
    9542:	81 81       	ldd	r24, Z+1	; 0x01
    9544:	32 96       	adiw	r30, 0x02	; 2
    9546:	62 e0       	ldi	r22, 0x02	; 2
    9548:	70 e0       	ldi	r23, 0x00	; 0
    954a:	80 53       	subi	r24, 0x30	; 48
    954c:	8a 30       	cpi	r24, 0x0A	; 10
    954e:	18 f0       	brcs	.+6      	; 0x9556 <strtod+0x178>
    9550:	e6 1b       	sub	r30, r22
    9552:	f7 0b       	sbc	r31, r23
    9554:	1f c0       	rjmp	.+62     	; 0x9594 <strtod+0x1b6>
    9556:	60 e0       	ldi	r22, 0x00	; 0
    9558:	70 e0       	ldi	r23, 0x00	; 0
    955a:	60 38       	cpi	r22, 0x80	; 128
    955c:	9c e0       	ldi	r25, 0x0C	; 12
    955e:	79 07       	cpc	r23, r25
    9560:	5c f4       	brge	.+22     	; 0x9578 <strtod+0x19a>
    9562:	db 01       	movw	r26, r22
    9564:	aa 0f       	add	r26, r26
    9566:	bb 1f       	adc	r27, r27
    9568:	aa 0f       	add	r26, r26
    956a:	bb 1f       	adc	r27, r27
    956c:	6a 0f       	add	r22, r26
    956e:	7b 1f       	adc	r23, r27
    9570:	66 0f       	add	r22, r22
    9572:	77 1f       	adc	r23, r23
    9574:	68 0f       	add	r22, r24
    9576:	71 1d       	adc	r23, r1
    9578:	31 96       	adiw	r30, 0x01	; 1
    957a:	df 01       	movw	r26, r30
    957c:	11 97       	sbiw	r26, 0x01	; 1
    957e:	8c 91       	ld	r24, X
    9580:	80 53       	subi	r24, 0x30	; 48
    9582:	8a 30       	cpi	r24, 0x0A	; 10
    9584:	50 f3       	brcs	.-44     	; 0x955a <strtod+0x17c>
    9586:	14 ff       	sbrs	r17, 4
    9588:	03 c0       	rjmp	.+6      	; 0x9590 <strtod+0x1b2>
    958a:	71 95       	neg	r23
    958c:	61 95       	neg	r22
    958e:	71 09       	sbc	r23, r1
    9590:	c6 0f       	add	r28, r22
    9592:	d7 1f       	adc	r29, r23
    9594:	11 ff       	sbrs	r17, 1
    9596:	08 c0       	rjmp	.+16     	; 0x95a8 <strtod+0x1ca>
    9598:	c1 14       	cp	r12, r1
    959a:	d1 04       	cpc	r13, r1
    959c:	29 f0       	breq	.+10     	; 0x95a8 <strtod+0x1ca>
    959e:	cf 01       	movw	r24, r30
    95a0:	01 97       	sbiw	r24, 0x01	; 1
    95a2:	f6 01       	movw	r30, r12
    95a4:	91 83       	std	Z+1, r25	; 0x01
    95a6:	80 83       	st	Z, r24
    95a8:	ca 01       	movw	r24, r20
    95aa:	b9 01       	movw	r22, r18
    95ac:	a5 d8       	rcall	.-3766   	; 0x86f8 <__floatunsisf>
    95ae:	21 2f       	mov	r18, r17
    95b0:	23 70       	andi	r18, 0x03	; 3
    95b2:	23 30       	cpi	r18, 0x03	; 3
    95b4:	19 f0       	breq	.+6      	; 0x95bc <strtod+0x1de>
    95b6:	4b 01       	movw	r8, r22
    95b8:	5c 01       	movw	r10, r24
    95ba:	06 c0       	rjmp	.+12     	; 0x95c8 <strtod+0x1ea>
    95bc:	4b 01       	movw	r8, r22
    95be:	5c 01       	movw	r10, r24
    95c0:	b7 fa       	bst	r11, 7
    95c2:	b0 94       	com	r11
    95c4:	b7 f8       	bld	r11, 7
    95c6:	b0 94       	com	r11
    95c8:	20 e0       	ldi	r18, 0x00	; 0
    95ca:	30 e0       	ldi	r19, 0x00	; 0
    95cc:	a9 01       	movw	r20, r18
    95ce:	c5 01       	movw	r24, r10
    95d0:	b4 01       	movw	r22, r8
    95d2:	0e 94 df 42 	call	0x85be	; 0x85be <__cmpsf2>
    95d6:	88 23       	and	r24, r24
    95d8:	09 f4       	brne	.+2      	; 0x95dc <strtod+0x1fe>
    95da:	3d c0       	rjmp	.+122    	; 0x9656 <strtod+0x278>
    95dc:	d7 ff       	sbrs	r29, 7
    95de:	06 c0       	rjmp	.+12     	; 0x95ec <strtod+0x20e>
    95e0:	d1 95       	neg	r29
    95e2:	c1 95       	neg	r28
    95e4:	d1 09       	sbc	r29, r1
    95e6:	01 ed       	ldi	r16, 0xD1	; 209
    95e8:	12 e0       	ldi	r17, 0x02	; 2
    95ea:	02 c0       	rjmp	.+4      	; 0x95f0 <strtod+0x212>
    95ec:	09 ee       	ldi	r16, 0xE9	; 233
    95ee:	12 e0       	ldi	r17, 0x02	; 2
    95f0:	68 01       	movw	r12, r16
    95f2:	f8 e1       	ldi	r31, 0x18	; 24
    95f4:	cf 1a       	sub	r12, r31
    95f6:	d1 08       	sbc	r13, r1
    95f8:	90 e2       	ldi	r25, 0x20	; 32
    95fa:	e9 2e       	mov	r14, r25
    95fc:	f1 2c       	mov	r15, r1
    95fe:	ce 15       	cp	r28, r14
    9600:	df 05       	cpc	r29, r15
    9602:	6c f0       	brlt	.+26     	; 0x961e <strtod+0x240>
    9604:	f8 01       	movw	r30, r16
    9606:	25 91       	lpm	r18, Z+
    9608:	35 91       	lpm	r19, Z+
    960a:	45 91       	lpm	r20, Z+
    960c:	54 91       	lpm	r21, Z
    960e:	c5 01       	movw	r24, r10
    9610:	b4 01       	movw	r22, r8
    9612:	28 d9       	rcall	.-3504   	; 0x8864 <__mulsf3>
    9614:	4b 01       	movw	r8, r22
    9616:	5c 01       	movw	r10, r24
    9618:	ce 19       	sub	r28, r14
    961a:	df 09       	sbc	r29, r15
    961c:	f0 cf       	rjmp	.-32     	; 0x95fe <strtod+0x220>
    961e:	04 50       	subi	r16, 0x04	; 4
    9620:	11 09       	sbc	r17, r1
    9622:	f5 94       	asr	r15
    9624:	e7 94       	ror	r14
    9626:	0c 15       	cp	r16, r12
    9628:	1d 05       	cpc	r17, r13
    962a:	49 f7       	brne	.-46     	; 0x95fe <strtod+0x220>
    962c:	8a 2d       	mov	r24, r10
    962e:	88 0f       	add	r24, r24
    9630:	8b 2d       	mov	r24, r11
    9632:	88 1f       	adc	r24, r24
    9634:	8f 3f       	cpi	r24, 0xFF	; 255
    9636:	49 f0       	breq	.+18     	; 0x964a <strtod+0x26c>
    9638:	20 e0       	ldi	r18, 0x00	; 0
    963a:	30 e0       	ldi	r19, 0x00	; 0
    963c:	a9 01       	movw	r20, r18
    963e:	c5 01       	movw	r24, r10
    9640:	b4 01       	movw	r22, r8
    9642:	0e 94 df 42 	call	0x85be	; 0x85be <__cmpsf2>
    9646:	81 11       	cpse	r24, r1
    9648:	06 c0       	rjmp	.+12     	; 0x9656 <strtod+0x278>
    964a:	82 e2       	ldi	r24, 0x22	; 34
    964c:	90 e0       	ldi	r25, 0x00	; 0
    964e:	90 93 93 06 	sts	0x0693, r25	; 0x800693 <errno+0x1>
    9652:	80 93 92 06 	sts	0x0692, r24	; 0x800692 <errno>
    9656:	c5 01       	movw	r24, r10
    9658:	b4 01       	movw	r22, r8
    965a:	09 c0       	rjmp	.+18     	; 0x966e <strtod+0x290>
    965c:	60 e0       	ldi	r22, 0x00	; 0
    965e:	70 e0       	ldi	r23, 0x00	; 0
    9660:	80 e8       	ldi	r24, 0x80	; 128
    9662:	9f ef       	ldi	r25, 0xFF	; 255
    9664:	04 c0       	rjmp	.+8      	; 0x966e <strtod+0x290>
    9666:	60 e0       	ldi	r22, 0x00	; 0
    9668:	70 e0       	ldi	r23, 0x00	; 0
    966a:	80 ec       	ldi	r24, 0xC0	; 192
    966c:	9f e7       	ldi	r25, 0x7F	; 127
    966e:	df 91       	pop	r29
    9670:	cf 91       	pop	r28
    9672:	1f 91       	pop	r17
    9674:	0f 91       	pop	r16
    9676:	ff 90       	pop	r15
    9678:	ef 90       	pop	r14
    967a:	df 90       	pop	r13
    967c:	cf 90       	pop	r12
    967e:	bf 90       	pop	r11
    9680:	af 90       	pop	r10
    9682:	9f 90       	pop	r9
    9684:	8f 90       	pop	r8
    9686:	08 95       	ret

00009688 <isspace>:
    9688:	91 11       	cpse	r25, r1
    968a:	80 c0       	rjmp	.+256    	; 0x978c <__ctype_isfalse>
    968c:	80 32       	cpi	r24, 0x20	; 32
    968e:	19 f0       	breq	.+6      	; 0x9696 <isspace+0xe>
    9690:	89 50       	subi	r24, 0x09	; 9
    9692:	85 50       	subi	r24, 0x05	; 5
    9694:	d0 f7       	brcc	.-12     	; 0x968a <isspace+0x2>
    9696:	08 95       	ret

00009698 <strchr_P>:
    9698:	fc 01       	movw	r30, r24
    969a:	05 90       	lpm	r0, Z+
    969c:	06 16       	cp	r0, r22
    969e:	21 f0       	breq	.+8      	; 0x96a8 <strchr_P+0x10>
    96a0:	00 20       	and	r0, r0
    96a2:	d9 f7       	brne	.-10     	; 0x969a <strchr_P+0x2>
    96a4:	c0 01       	movw	r24, r0
    96a6:	08 95       	ret
    96a8:	31 97       	sbiw	r30, 0x01	; 1
    96aa:	cf 01       	movw	r24, r30
    96ac:	08 95       	ret

000096ae <strncasecmp_P>:
    96ae:	fb 01       	movw	r30, r22
    96b0:	dc 01       	movw	r26, r24
    96b2:	41 50       	subi	r20, 0x01	; 1
    96b4:	50 40       	sbci	r21, 0x00	; 0
    96b6:	88 f0       	brcs	.+34     	; 0x96da <strncasecmp_P+0x2c>
    96b8:	8d 91       	ld	r24, X+
    96ba:	81 34       	cpi	r24, 0x41	; 65
    96bc:	1c f0       	brlt	.+6      	; 0x96c4 <strncasecmp_P+0x16>
    96be:	8b 35       	cpi	r24, 0x5B	; 91
    96c0:	0c f4       	brge	.+2      	; 0x96c4 <strncasecmp_P+0x16>
    96c2:	80 5e       	subi	r24, 0xE0	; 224
    96c4:	65 91       	lpm	r22, Z+
    96c6:	61 34       	cpi	r22, 0x41	; 65
    96c8:	1c f0       	brlt	.+6      	; 0x96d0 <strncasecmp_P+0x22>
    96ca:	6b 35       	cpi	r22, 0x5B	; 91
    96cc:	0c f4       	brge	.+2      	; 0x96d0 <strncasecmp_P+0x22>
    96ce:	60 5e       	subi	r22, 0xE0	; 224
    96d0:	86 1b       	sub	r24, r22
    96d2:	61 11       	cpse	r22, r1
    96d4:	71 f3       	breq	.-36     	; 0x96b2 <strncasecmp_P+0x4>
    96d6:	99 0b       	sbc	r25, r25
    96d8:	08 95       	ret
    96da:	88 1b       	sub	r24, r24
    96dc:	fc cf       	rjmp	.-8      	; 0x96d6 <strncasecmp_P+0x28>

000096de <fgetc>:
    96de:	cf 93       	push	r28
    96e0:	df 93       	push	r29
    96e2:	ec 01       	movw	r28, r24
    96e4:	2b 81       	ldd	r18, Y+3	; 0x03
    96e6:	20 ff       	sbrs	r18, 0
    96e8:	33 c0       	rjmp	.+102    	; 0x9750 <fgetc+0x72>
    96ea:	26 ff       	sbrs	r18, 6
    96ec:	0a c0       	rjmp	.+20     	; 0x9702 <fgetc+0x24>
    96ee:	2f 7b       	andi	r18, 0xBF	; 191
    96f0:	2b 83       	std	Y+3, r18	; 0x03
    96f2:	8e 81       	ldd	r24, Y+6	; 0x06
    96f4:	9f 81       	ldd	r25, Y+7	; 0x07
    96f6:	01 96       	adiw	r24, 0x01	; 1
    96f8:	9f 83       	std	Y+7, r25	; 0x07
    96fa:	8e 83       	std	Y+6, r24	; 0x06
    96fc:	8a 81       	ldd	r24, Y+2	; 0x02
    96fe:	90 e0       	ldi	r25, 0x00	; 0
    9700:	29 c0       	rjmp	.+82     	; 0x9754 <fgetc+0x76>
    9702:	22 ff       	sbrs	r18, 2
    9704:	0f c0       	rjmp	.+30     	; 0x9724 <fgetc+0x46>
    9706:	e8 81       	ld	r30, Y
    9708:	f9 81       	ldd	r31, Y+1	; 0x01
    970a:	80 81       	ld	r24, Z
    970c:	08 2e       	mov	r0, r24
    970e:	00 0c       	add	r0, r0
    9710:	99 0b       	sbc	r25, r25
    9712:	00 97       	sbiw	r24, 0x00	; 0
    9714:	19 f4       	brne	.+6      	; 0x971c <fgetc+0x3e>
    9716:	20 62       	ori	r18, 0x20	; 32
    9718:	2b 83       	std	Y+3, r18	; 0x03
    971a:	1a c0       	rjmp	.+52     	; 0x9750 <fgetc+0x72>
    971c:	31 96       	adiw	r30, 0x01	; 1
    971e:	f9 83       	std	Y+1, r31	; 0x01
    9720:	e8 83       	st	Y, r30
    9722:	0e c0       	rjmp	.+28     	; 0x9740 <fgetc+0x62>
    9724:	ea 85       	ldd	r30, Y+10	; 0x0a
    9726:	fb 85       	ldd	r31, Y+11	; 0x0b
    9728:	19 95       	eicall
    972a:	97 ff       	sbrs	r25, 7
    972c:	09 c0       	rjmp	.+18     	; 0x9740 <fgetc+0x62>
    972e:	2b 81       	ldd	r18, Y+3	; 0x03
    9730:	01 96       	adiw	r24, 0x01	; 1
    9732:	11 f0       	breq	.+4      	; 0x9738 <fgetc+0x5a>
    9734:	80 e2       	ldi	r24, 0x20	; 32
    9736:	01 c0       	rjmp	.+2      	; 0x973a <fgetc+0x5c>
    9738:	80 e1       	ldi	r24, 0x10	; 16
    973a:	82 2b       	or	r24, r18
    973c:	8b 83       	std	Y+3, r24	; 0x03
    973e:	08 c0       	rjmp	.+16     	; 0x9750 <fgetc+0x72>
    9740:	2e 81       	ldd	r18, Y+6	; 0x06
    9742:	3f 81       	ldd	r19, Y+7	; 0x07
    9744:	2f 5f       	subi	r18, 0xFF	; 255
    9746:	3f 4f       	sbci	r19, 0xFF	; 255
    9748:	3f 83       	std	Y+7, r19	; 0x07
    974a:	2e 83       	std	Y+6, r18	; 0x06
    974c:	99 27       	eor	r25, r25
    974e:	02 c0       	rjmp	.+4      	; 0x9754 <fgetc+0x76>
    9750:	8f ef       	ldi	r24, 0xFF	; 255
    9752:	9f ef       	ldi	r25, 0xFF	; 255
    9754:	df 91       	pop	r29
    9756:	cf 91       	pop	r28
    9758:	08 95       	ret

0000975a <ungetc>:
    975a:	fb 01       	movw	r30, r22
    975c:	23 81       	ldd	r18, Z+3	; 0x03
    975e:	20 ff       	sbrs	r18, 0
    9760:	12 c0       	rjmp	.+36     	; 0x9786 <ungetc+0x2c>
    9762:	26 fd       	sbrc	r18, 6
    9764:	10 c0       	rjmp	.+32     	; 0x9786 <ungetc+0x2c>
    9766:	8f 3f       	cpi	r24, 0xFF	; 255
    9768:	3f ef       	ldi	r19, 0xFF	; 255
    976a:	93 07       	cpc	r25, r19
    976c:	61 f0       	breq	.+24     	; 0x9786 <ungetc+0x2c>
    976e:	82 83       	std	Z+2, r24	; 0x02
    9770:	2f 7d       	andi	r18, 0xDF	; 223
    9772:	20 64       	ori	r18, 0x40	; 64
    9774:	23 83       	std	Z+3, r18	; 0x03
    9776:	26 81       	ldd	r18, Z+6	; 0x06
    9778:	37 81       	ldd	r19, Z+7	; 0x07
    977a:	21 50       	subi	r18, 0x01	; 1
    977c:	31 09       	sbc	r19, r1
    977e:	37 83       	std	Z+7, r19	; 0x07
    9780:	26 83       	std	Z+6, r18	; 0x06
    9782:	99 27       	eor	r25, r25
    9784:	08 95       	ret
    9786:	8f ef       	ldi	r24, 0xFF	; 255
    9788:	9f ef       	ldi	r25, 0xFF	; 255
    978a:	08 95       	ret

0000978c <__ctype_isfalse>:
    978c:	99 27       	eor	r25, r25
    978e:	88 27       	eor	r24, r24

00009790 <__ctype_istrue>:
    9790:	08 95       	ret

00009792 <_exit>:
    9792:	f8 94       	cli

00009794 <__stop_program>:
    9794:	ff cf       	rjmp	.-2      	; 0x9794 <__stop_program>
